ARM GAS  /tmp/cc8xco1Q.s 			page 1


   1              		.cpu cortex-m7
   2              		.eabi_attribute 28, 1
   3              		.eabi_attribute 20, 1
   4              		.eabi_attribute 21, 1
   5              		.eabi_attribute 23, 3
   6              		.eabi_attribute 24, 1
   7              		.eabi_attribute 25, 1
   8              		.eabi_attribute 26, 1
   9              		.eabi_attribute 30, 1
  10              		.eabi_attribute 34, 1
  11              		.eabi_attribute 18, 4
  12              		.file	"stm32f7xx_ll_usb.c"
  13              		.text
  14              	.Ltext0:
  15              		.cfi_sections	.debug_frame
  16              		.section	.text.USB_CoreReset,"ax",%progbits
  17              		.align	1
  18              		.arch armv7e-m
  19              		.syntax unified
  20              		.thumb
  21              		.thumb_func
  22              		.fpu fpv5-d16
  24              	USB_CoreReset:
  25              	.LVL0:
  26              	.LFB174:
  27              		.file 1 "Drivers/STM32F7xx_HAL_Driver/Src/stm32f7xx_ll_usb.c"
   1:Drivers/STM32F7xx_HAL_Driver/Src/stm32f7xx_ll_usb.c **** /**
   2:Drivers/STM32F7xx_HAL_Driver/Src/stm32f7xx_ll_usb.c ****   ******************************************************************************
   3:Drivers/STM32F7xx_HAL_Driver/Src/stm32f7xx_ll_usb.c ****   * @file    stm32f7xx_ll_usb.c
   4:Drivers/STM32F7xx_HAL_Driver/Src/stm32f7xx_ll_usb.c ****   * @author  MCD Application Team
   5:Drivers/STM32F7xx_HAL_Driver/Src/stm32f7xx_ll_usb.c ****   * @brief   USB Low Layer HAL module driver.
   6:Drivers/STM32F7xx_HAL_Driver/Src/stm32f7xx_ll_usb.c ****   *
   7:Drivers/STM32F7xx_HAL_Driver/Src/stm32f7xx_ll_usb.c ****   *          This file provides firmware functions to manage the following
   8:Drivers/STM32F7xx_HAL_Driver/Src/stm32f7xx_ll_usb.c ****   *          functionalities of the USB Peripheral Controller:
   9:Drivers/STM32F7xx_HAL_Driver/Src/stm32f7xx_ll_usb.c ****   *           + Initialization/de-initialization functions
  10:Drivers/STM32F7xx_HAL_Driver/Src/stm32f7xx_ll_usb.c ****   *           + I/O operation functions
  11:Drivers/STM32F7xx_HAL_Driver/Src/stm32f7xx_ll_usb.c ****   *           + Peripheral Control functions
  12:Drivers/STM32F7xx_HAL_Driver/Src/stm32f7xx_ll_usb.c ****   *           + Peripheral State functions
  13:Drivers/STM32F7xx_HAL_Driver/Src/stm32f7xx_ll_usb.c ****   *
  14:Drivers/STM32F7xx_HAL_Driver/Src/stm32f7xx_ll_usb.c ****   @verbatim
  15:Drivers/STM32F7xx_HAL_Driver/Src/stm32f7xx_ll_usb.c ****   ==============================================================================
  16:Drivers/STM32F7xx_HAL_Driver/Src/stm32f7xx_ll_usb.c ****                     ##### How to use this driver #####
  17:Drivers/STM32F7xx_HAL_Driver/Src/stm32f7xx_ll_usb.c ****   ==============================================================================
  18:Drivers/STM32F7xx_HAL_Driver/Src/stm32f7xx_ll_usb.c ****     [..]
  19:Drivers/STM32F7xx_HAL_Driver/Src/stm32f7xx_ll_usb.c ****       (#) Fill parameters of Init structure in USB_OTG_CfgTypeDef structure.
  20:Drivers/STM32F7xx_HAL_Driver/Src/stm32f7xx_ll_usb.c **** 
  21:Drivers/STM32F7xx_HAL_Driver/Src/stm32f7xx_ll_usb.c ****       (#) Call USB_CoreInit() API to initialize the USB Core peripheral.
  22:Drivers/STM32F7xx_HAL_Driver/Src/stm32f7xx_ll_usb.c **** 
  23:Drivers/STM32F7xx_HAL_Driver/Src/stm32f7xx_ll_usb.c ****       (#) The upper HAL HCD/PCD driver will call the right routines for its internal processes.
  24:Drivers/STM32F7xx_HAL_Driver/Src/stm32f7xx_ll_usb.c **** 
  25:Drivers/STM32F7xx_HAL_Driver/Src/stm32f7xx_ll_usb.c ****   @endverbatim
  26:Drivers/STM32F7xx_HAL_Driver/Src/stm32f7xx_ll_usb.c ****   ******************************************************************************
  27:Drivers/STM32F7xx_HAL_Driver/Src/stm32f7xx_ll_usb.c ****   * @attention
  28:Drivers/STM32F7xx_HAL_Driver/Src/stm32f7xx_ll_usb.c ****   *
  29:Drivers/STM32F7xx_HAL_Driver/Src/stm32f7xx_ll_usb.c ****   * <h2><center>&copy; Copyright (c) 2017 STMicroelectronics.
  30:Drivers/STM32F7xx_HAL_Driver/Src/stm32f7xx_ll_usb.c ****   * All rights reserved.</center></h2>
  31:Drivers/STM32F7xx_HAL_Driver/Src/stm32f7xx_ll_usb.c ****   *
ARM GAS  /tmp/cc8xco1Q.s 			page 2


  32:Drivers/STM32F7xx_HAL_Driver/Src/stm32f7xx_ll_usb.c ****   * This software component is licensed by ST under BSD 3-Clause license,
  33:Drivers/STM32F7xx_HAL_Driver/Src/stm32f7xx_ll_usb.c ****   * the "License"; You may not use this file except in compliance with the
  34:Drivers/STM32F7xx_HAL_Driver/Src/stm32f7xx_ll_usb.c ****   * License. You may obtain a copy of the License at:
  35:Drivers/STM32F7xx_HAL_Driver/Src/stm32f7xx_ll_usb.c ****   *                        opensource.org/licenses/BSD-3-Clause
  36:Drivers/STM32F7xx_HAL_Driver/Src/stm32f7xx_ll_usb.c ****   *
  37:Drivers/STM32F7xx_HAL_Driver/Src/stm32f7xx_ll_usb.c ****   ******************************************************************************
  38:Drivers/STM32F7xx_HAL_Driver/Src/stm32f7xx_ll_usb.c ****   */
  39:Drivers/STM32F7xx_HAL_Driver/Src/stm32f7xx_ll_usb.c **** 
  40:Drivers/STM32F7xx_HAL_Driver/Src/stm32f7xx_ll_usb.c **** /* Includes ------------------------------------------------------------------*/
  41:Drivers/STM32F7xx_HAL_Driver/Src/stm32f7xx_ll_usb.c **** #include "stm32f7xx_hal.h"
  42:Drivers/STM32F7xx_HAL_Driver/Src/stm32f7xx_ll_usb.c **** 
  43:Drivers/STM32F7xx_HAL_Driver/Src/stm32f7xx_ll_usb.c **** /** @addtogroup STM32F7xx_LL_USB_DRIVER
  44:Drivers/STM32F7xx_HAL_Driver/Src/stm32f7xx_ll_usb.c ****   * @{
  45:Drivers/STM32F7xx_HAL_Driver/Src/stm32f7xx_ll_usb.c ****   */
  46:Drivers/STM32F7xx_HAL_Driver/Src/stm32f7xx_ll_usb.c **** 
  47:Drivers/STM32F7xx_HAL_Driver/Src/stm32f7xx_ll_usb.c **** #if defined (HAL_PCD_MODULE_ENABLED) || defined (HAL_HCD_MODULE_ENABLED)
  48:Drivers/STM32F7xx_HAL_Driver/Src/stm32f7xx_ll_usb.c **** #if defined (USB_OTG_FS) || defined (USB_OTG_HS)
  49:Drivers/STM32F7xx_HAL_Driver/Src/stm32f7xx_ll_usb.c **** /* Private typedef -----------------------------------------------------------*/
  50:Drivers/STM32F7xx_HAL_Driver/Src/stm32f7xx_ll_usb.c **** /* Private define ------------------------------------------------------------*/
  51:Drivers/STM32F7xx_HAL_Driver/Src/stm32f7xx_ll_usb.c **** /* Private macro -------------------------------------------------------------*/
  52:Drivers/STM32F7xx_HAL_Driver/Src/stm32f7xx_ll_usb.c **** /* Private variables ---------------------------------------------------------*/
  53:Drivers/STM32F7xx_HAL_Driver/Src/stm32f7xx_ll_usb.c **** /* Private function prototypes -----------------------------------------------*/
  54:Drivers/STM32F7xx_HAL_Driver/Src/stm32f7xx_ll_usb.c **** /* Private functions ---------------------------------------------------------*/
  55:Drivers/STM32F7xx_HAL_Driver/Src/stm32f7xx_ll_usb.c **** #if defined (USB_OTG_FS) || defined (USB_OTG_HS)
  56:Drivers/STM32F7xx_HAL_Driver/Src/stm32f7xx_ll_usb.c **** static HAL_StatusTypeDef USB_CoreReset(USB_OTG_GlobalTypeDef *USBx);
  57:Drivers/STM32F7xx_HAL_Driver/Src/stm32f7xx_ll_usb.c **** 
  58:Drivers/STM32F7xx_HAL_Driver/Src/stm32f7xx_ll_usb.c **** #ifdef USB_HS_PHYC
  59:Drivers/STM32F7xx_HAL_Driver/Src/stm32f7xx_ll_usb.c **** static HAL_StatusTypeDef USB_HS_PHYCInit(USB_OTG_GlobalTypeDef *USBx);
  60:Drivers/STM32F7xx_HAL_Driver/Src/stm32f7xx_ll_usb.c **** #endif
  61:Drivers/STM32F7xx_HAL_Driver/Src/stm32f7xx_ll_usb.c **** 
  62:Drivers/STM32F7xx_HAL_Driver/Src/stm32f7xx_ll_usb.c **** /* Exported functions --------------------------------------------------------*/
  63:Drivers/STM32F7xx_HAL_Driver/Src/stm32f7xx_ll_usb.c **** /** @defgroup USB_LL_Exported_Functions USB Low Layer Exported Functions
  64:Drivers/STM32F7xx_HAL_Driver/Src/stm32f7xx_ll_usb.c ****   * @{
  65:Drivers/STM32F7xx_HAL_Driver/Src/stm32f7xx_ll_usb.c ****   */
  66:Drivers/STM32F7xx_HAL_Driver/Src/stm32f7xx_ll_usb.c **** 
  67:Drivers/STM32F7xx_HAL_Driver/Src/stm32f7xx_ll_usb.c **** /** @defgroup USB_LL_Exported_Functions_Group1 Initialization/de-initialization functions
  68:Drivers/STM32F7xx_HAL_Driver/Src/stm32f7xx_ll_usb.c ****  *  @brief    Initialization and Configuration functions
  69:Drivers/STM32F7xx_HAL_Driver/Src/stm32f7xx_ll_usb.c ****  *
  70:Drivers/STM32F7xx_HAL_Driver/Src/stm32f7xx_ll_usb.c **** @verbatim
  71:Drivers/STM32F7xx_HAL_Driver/Src/stm32f7xx_ll_usb.c ****  ===============================================================================
  72:Drivers/STM32F7xx_HAL_Driver/Src/stm32f7xx_ll_usb.c ****                       ##### Initialization/de-initialization functions #####
  73:Drivers/STM32F7xx_HAL_Driver/Src/stm32f7xx_ll_usb.c ****  ===============================================================================
  74:Drivers/STM32F7xx_HAL_Driver/Src/stm32f7xx_ll_usb.c **** 
  75:Drivers/STM32F7xx_HAL_Driver/Src/stm32f7xx_ll_usb.c **** @endverbatim
  76:Drivers/STM32F7xx_HAL_Driver/Src/stm32f7xx_ll_usb.c ****   * @{
  77:Drivers/STM32F7xx_HAL_Driver/Src/stm32f7xx_ll_usb.c ****   */
  78:Drivers/STM32F7xx_HAL_Driver/Src/stm32f7xx_ll_usb.c **** 
  79:Drivers/STM32F7xx_HAL_Driver/Src/stm32f7xx_ll_usb.c **** /**
  80:Drivers/STM32F7xx_HAL_Driver/Src/stm32f7xx_ll_usb.c ****   * @brief  Initializes the USB Core
  81:Drivers/STM32F7xx_HAL_Driver/Src/stm32f7xx_ll_usb.c ****   * @param  USBx USB Instance
  82:Drivers/STM32F7xx_HAL_Driver/Src/stm32f7xx_ll_usb.c ****   * @param  cfg pointer to a USB_OTG_CfgTypeDef structure that contains
  83:Drivers/STM32F7xx_HAL_Driver/Src/stm32f7xx_ll_usb.c ****   *         the configuration information for the specified USBx peripheral.
  84:Drivers/STM32F7xx_HAL_Driver/Src/stm32f7xx_ll_usb.c ****   * @retval HAL status
  85:Drivers/STM32F7xx_HAL_Driver/Src/stm32f7xx_ll_usb.c ****   */
  86:Drivers/STM32F7xx_HAL_Driver/Src/stm32f7xx_ll_usb.c **** HAL_StatusTypeDef USB_CoreInit(USB_OTG_GlobalTypeDef *USBx, USB_OTG_CfgTypeDef cfg)
  87:Drivers/STM32F7xx_HAL_Driver/Src/stm32f7xx_ll_usb.c **** {
  88:Drivers/STM32F7xx_HAL_Driver/Src/stm32f7xx_ll_usb.c ****   HAL_StatusTypeDef ret;
ARM GAS  /tmp/cc8xco1Q.s 			page 3


  89:Drivers/STM32F7xx_HAL_Driver/Src/stm32f7xx_ll_usb.c **** 
  90:Drivers/STM32F7xx_HAL_Driver/Src/stm32f7xx_ll_usb.c ****   if (cfg.phy_itface == USB_OTG_ULPI_PHY)
  91:Drivers/STM32F7xx_HAL_Driver/Src/stm32f7xx_ll_usb.c ****   {
  92:Drivers/STM32F7xx_HAL_Driver/Src/stm32f7xx_ll_usb.c ****     USBx->GCCFG &= ~(USB_OTG_GCCFG_PWRDWN);
  93:Drivers/STM32F7xx_HAL_Driver/Src/stm32f7xx_ll_usb.c **** 
  94:Drivers/STM32F7xx_HAL_Driver/Src/stm32f7xx_ll_usb.c ****     /* Init The ULPI Interface */
  95:Drivers/STM32F7xx_HAL_Driver/Src/stm32f7xx_ll_usb.c ****     USBx->GUSBCFG &= ~(USB_OTG_GUSBCFG_TSDPS | USB_OTG_GUSBCFG_ULPIFSLS | USB_OTG_GUSBCFG_PHYSEL);
  96:Drivers/STM32F7xx_HAL_Driver/Src/stm32f7xx_ll_usb.c **** 
  97:Drivers/STM32F7xx_HAL_Driver/Src/stm32f7xx_ll_usb.c **** #if defined(STM32F722xx) || defined(STM32F723xx) || defined(STM32F730xx) || defined(STM32F732xx) ||
  98:Drivers/STM32F7xx_HAL_Driver/Src/stm32f7xx_ll_usb.c ****     /* Select ULPI Interface */
  99:Drivers/STM32F7xx_HAL_Driver/Src/stm32f7xx_ll_usb.c ****     USBx->GUSBCFG |= USB_OTG_GUSBCFG_ULPI_UTMI_SEL;
 100:Drivers/STM32F7xx_HAL_Driver/Src/stm32f7xx_ll_usb.c **** #endif /* defined(STM32F722xx) || defined(STM32F723xx) || defined(STM32F730xx) || defined(STM32F732
 101:Drivers/STM32F7xx_HAL_Driver/Src/stm32f7xx_ll_usb.c **** 
 102:Drivers/STM32F7xx_HAL_Driver/Src/stm32f7xx_ll_usb.c ****     /* Select vbus source */
 103:Drivers/STM32F7xx_HAL_Driver/Src/stm32f7xx_ll_usb.c ****     USBx->GUSBCFG &= ~(USB_OTG_GUSBCFG_ULPIEVBUSD | USB_OTG_GUSBCFG_ULPIEVBUSI);
 104:Drivers/STM32F7xx_HAL_Driver/Src/stm32f7xx_ll_usb.c ****     if (cfg.use_external_vbus == 1U)
 105:Drivers/STM32F7xx_HAL_Driver/Src/stm32f7xx_ll_usb.c ****     {
 106:Drivers/STM32F7xx_HAL_Driver/Src/stm32f7xx_ll_usb.c ****       USBx->GUSBCFG |= USB_OTG_GUSBCFG_ULPIEVBUSD;
 107:Drivers/STM32F7xx_HAL_Driver/Src/stm32f7xx_ll_usb.c ****     }
 108:Drivers/STM32F7xx_HAL_Driver/Src/stm32f7xx_ll_usb.c ****     /* Reset after a PHY select  */
 109:Drivers/STM32F7xx_HAL_Driver/Src/stm32f7xx_ll_usb.c ****     ret = USB_CoreReset(USBx);
 110:Drivers/STM32F7xx_HAL_Driver/Src/stm32f7xx_ll_usb.c ****   }
 111:Drivers/STM32F7xx_HAL_Driver/Src/stm32f7xx_ll_usb.c **** #ifdef USB_HS_PHYC
 112:Drivers/STM32F7xx_HAL_Driver/Src/stm32f7xx_ll_usb.c ****   else if (cfg.phy_itface == USB_OTG_HS_EMBEDDED_PHY)
 113:Drivers/STM32F7xx_HAL_Driver/Src/stm32f7xx_ll_usb.c ****   {
 114:Drivers/STM32F7xx_HAL_Driver/Src/stm32f7xx_ll_usb.c ****     USBx->GCCFG &= ~(USB_OTG_GCCFG_PWRDWN);
 115:Drivers/STM32F7xx_HAL_Driver/Src/stm32f7xx_ll_usb.c **** 
 116:Drivers/STM32F7xx_HAL_Driver/Src/stm32f7xx_ll_usb.c ****     /* Init The UTMI Interface */
 117:Drivers/STM32F7xx_HAL_Driver/Src/stm32f7xx_ll_usb.c ****     USBx->GUSBCFG &= ~(USB_OTG_GUSBCFG_TSDPS | USB_OTG_GUSBCFG_ULPIFSLS | USB_OTG_GUSBCFG_PHYSEL);
 118:Drivers/STM32F7xx_HAL_Driver/Src/stm32f7xx_ll_usb.c **** 
 119:Drivers/STM32F7xx_HAL_Driver/Src/stm32f7xx_ll_usb.c ****     /* Select vbus source */
 120:Drivers/STM32F7xx_HAL_Driver/Src/stm32f7xx_ll_usb.c ****     USBx->GUSBCFG &= ~(USB_OTG_GUSBCFG_ULPIEVBUSD | USB_OTG_GUSBCFG_ULPIEVBUSI);
 121:Drivers/STM32F7xx_HAL_Driver/Src/stm32f7xx_ll_usb.c **** 
 122:Drivers/STM32F7xx_HAL_Driver/Src/stm32f7xx_ll_usb.c ****     /* Select UTMI Interace */
 123:Drivers/STM32F7xx_HAL_Driver/Src/stm32f7xx_ll_usb.c ****     USBx->GUSBCFG &= ~USB_OTG_GUSBCFG_ULPI_UTMI_SEL;
 124:Drivers/STM32F7xx_HAL_Driver/Src/stm32f7xx_ll_usb.c ****     USBx->GCCFG |= USB_OTG_GCCFG_PHYHSEN;
 125:Drivers/STM32F7xx_HAL_Driver/Src/stm32f7xx_ll_usb.c **** 
 126:Drivers/STM32F7xx_HAL_Driver/Src/stm32f7xx_ll_usb.c ****     /* Enables control of a High Speed USB PHY */
 127:Drivers/STM32F7xx_HAL_Driver/Src/stm32f7xx_ll_usb.c ****     if (USB_HS_PHYCInit(USBx) != HAL_OK)
 128:Drivers/STM32F7xx_HAL_Driver/Src/stm32f7xx_ll_usb.c ****     {
 129:Drivers/STM32F7xx_HAL_Driver/Src/stm32f7xx_ll_usb.c ****       return HAL_ERROR;
 130:Drivers/STM32F7xx_HAL_Driver/Src/stm32f7xx_ll_usb.c ****     }
 131:Drivers/STM32F7xx_HAL_Driver/Src/stm32f7xx_ll_usb.c **** 
 132:Drivers/STM32F7xx_HAL_Driver/Src/stm32f7xx_ll_usb.c ****     if (cfg.use_external_vbus == 1U)
 133:Drivers/STM32F7xx_HAL_Driver/Src/stm32f7xx_ll_usb.c ****     {
 134:Drivers/STM32F7xx_HAL_Driver/Src/stm32f7xx_ll_usb.c ****       USBx->GUSBCFG |= USB_OTG_GUSBCFG_ULPIEVBUSD;
 135:Drivers/STM32F7xx_HAL_Driver/Src/stm32f7xx_ll_usb.c ****     }
 136:Drivers/STM32F7xx_HAL_Driver/Src/stm32f7xx_ll_usb.c ****     /* Reset after a PHY select  */
 137:Drivers/STM32F7xx_HAL_Driver/Src/stm32f7xx_ll_usb.c ****     ret = USB_CoreReset(USBx);
 138:Drivers/STM32F7xx_HAL_Driver/Src/stm32f7xx_ll_usb.c ****   }
 139:Drivers/STM32F7xx_HAL_Driver/Src/stm32f7xx_ll_usb.c **** #endif
 140:Drivers/STM32F7xx_HAL_Driver/Src/stm32f7xx_ll_usb.c ****   else /* FS interface (embedded Phy) */
 141:Drivers/STM32F7xx_HAL_Driver/Src/stm32f7xx_ll_usb.c ****   {
 142:Drivers/STM32F7xx_HAL_Driver/Src/stm32f7xx_ll_usb.c ****     /* Select FS Embedded PHY */
 143:Drivers/STM32F7xx_HAL_Driver/Src/stm32f7xx_ll_usb.c ****     USBx->GUSBCFG |= USB_OTG_GUSBCFG_PHYSEL;
 144:Drivers/STM32F7xx_HAL_Driver/Src/stm32f7xx_ll_usb.c **** 
 145:Drivers/STM32F7xx_HAL_Driver/Src/stm32f7xx_ll_usb.c ****     /* Reset after a PHY select and set Host mode */
ARM GAS  /tmp/cc8xco1Q.s 			page 4


 146:Drivers/STM32F7xx_HAL_Driver/Src/stm32f7xx_ll_usb.c ****     ret = USB_CoreReset(USBx);
 147:Drivers/STM32F7xx_HAL_Driver/Src/stm32f7xx_ll_usb.c **** 
 148:Drivers/STM32F7xx_HAL_Driver/Src/stm32f7xx_ll_usb.c ****     /* Activate the USB Transceiver */
 149:Drivers/STM32F7xx_HAL_Driver/Src/stm32f7xx_ll_usb.c ****     USBx->GCCFG |= USB_OTG_GCCFG_PWRDWN;
 150:Drivers/STM32F7xx_HAL_Driver/Src/stm32f7xx_ll_usb.c ****   }
 151:Drivers/STM32F7xx_HAL_Driver/Src/stm32f7xx_ll_usb.c **** 
 152:Drivers/STM32F7xx_HAL_Driver/Src/stm32f7xx_ll_usb.c ****   if (cfg.dma_enable == 1U)
 153:Drivers/STM32F7xx_HAL_Driver/Src/stm32f7xx_ll_usb.c ****   {
 154:Drivers/STM32F7xx_HAL_Driver/Src/stm32f7xx_ll_usb.c ****     USBx->GAHBCFG |= USB_OTG_GAHBCFG_HBSTLEN_2;
 155:Drivers/STM32F7xx_HAL_Driver/Src/stm32f7xx_ll_usb.c ****     USBx->GAHBCFG |= USB_OTG_GAHBCFG_DMAEN;
 156:Drivers/STM32F7xx_HAL_Driver/Src/stm32f7xx_ll_usb.c ****   }
 157:Drivers/STM32F7xx_HAL_Driver/Src/stm32f7xx_ll_usb.c **** 
 158:Drivers/STM32F7xx_HAL_Driver/Src/stm32f7xx_ll_usb.c ****   return ret;
 159:Drivers/STM32F7xx_HAL_Driver/Src/stm32f7xx_ll_usb.c **** }
 160:Drivers/STM32F7xx_HAL_Driver/Src/stm32f7xx_ll_usb.c **** 
 161:Drivers/STM32F7xx_HAL_Driver/Src/stm32f7xx_ll_usb.c **** 
 162:Drivers/STM32F7xx_HAL_Driver/Src/stm32f7xx_ll_usb.c **** /**
 163:Drivers/STM32F7xx_HAL_Driver/Src/stm32f7xx_ll_usb.c ****   * @brief  Set the USB turnaround time
 164:Drivers/STM32F7xx_HAL_Driver/Src/stm32f7xx_ll_usb.c ****   * @param  USBx USB Instance
 165:Drivers/STM32F7xx_HAL_Driver/Src/stm32f7xx_ll_usb.c ****   * @param  hclk: AHB clock frequency
 166:Drivers/STM32F7xx_HAL_Driver/Src/stm32f7xx_ll_usb.c ****   * @retval USB turnaround time In PHY Clocks number
 167:Drivers/STM32F7xx_HAL_Driver/Src/stm32f7xx_ll_usb.c ****   */
 168:Drivers/STM32F7xx_HAL_Driver/Src/stm32f7xx_ll_usb.c **** HAL_StatusTypeDef USB_SetTurnaroundTime(USB_OTG_GlobalTypeDef *USBx,
 169:Drivers/STM32F7xx_HAL_Driver/Src/stm32f7xx_ll_usb.c ****                                         uint32_t hclk, uint8_t speed)
 170:Drivers/STM32F7xx_HAL_Driver/Src/stm32f7xx_ll_usb.c **** {
 171:Drivers/STM32F7xx_HAL_Driver/Src/stm32f7xx_ll_usb.c ****   uint32_t UsbTrd;
 172:Drivers/STM32F7xx_HAL_Driver/Src/stm32f7xx_ll_usb.c **** 
 173:Drivers/STM32F7xx_HAL_Driver/Src/stm32f7xx_ll_usb.c ****   /* The USBTRD is configured according to the tables below, depending on AHB frequency
 174:Drivers/STM32F7xx_HAL_Driver/Src/stm32f7xx_ll_usb.c ****   used by application. In the low AHB frequency range it is used to stretch enough the USB response
 175:Drivers/STM32F7xx_HAL_Driver/Src/stm32f7xx_ll_usb.c ****   time to IN tokens, the USB turnaround time, so to compensate for the longer AHB read access
 176:Drivers/STM32F7xx_HAL_Driver/Src/stm32f7xx_ll_usb.c ****   latency to the Data FIFO */
 177:Drivers/STM32F7xx_HAL_Driver/Src/stm32f7xx_ll_usb.c ****   if (speed == USBD_FS_SPEED)
 178:Drivers/STM32F7xx_HAL_Driver/Src/stm32f7xx_ll_usb.c ****   {
 179:Drivers/STM32F7xx_HAL_Driver/Src/stm32f7xx_ll_usb.c ****     if ((hclk >= 14200000U) && (hclk < 15000000U))
 180:Drivers/STM32F7xx_HAL_Driver/Src/stm32f7xx_ll_usb.c ****     {
 181:Drivers/STM32F7xx_HAL_Driver/Src/stm32f7xx_ll_usb.c ****       /* hclk Clock Range between 14.2-15 MHz */
 182:Drivers/STM32F7xx_HAL_Driver/Src/stm32f7xx_ll_usb.c ****       UsbTrd = 0xFU;
 183:Drivers/STM32F7xx_HAL_Driver/Src/stm32f7xx_ll_usb.c ****     }
 184:Drivers/STM32F7xx_HAL_Driver/Src/stm32f7xx_ll_usb.c ****     else if ((hclk >= 15000000U) && (hclk < 16000000U))
 185:Drivers/STM32F7xx_HAL_Driver/Src/stm32f7xx_ll_usb.c ****     {
 186:Drivers/STM32F7xx_HAL_Driver/Src/stm32f7xx_ll_usb.c ****       /* hclk Clock Range between 15-16 MHz */
 187:Drivers/STM32F7xx_HAL_Driver/Src/stm32f7xx_ll_usb.c ****       UsbTrd = 0xEU;
 188:Drivers/STM32F7xx_HAL_Driver/Src/stm32f7xx_ll_usb.c ****     }
 189:Drivers/STM32F7xx_HAL_Driver/Src/stm32f7xx_ll_usb.c ****     else if ((hclk >= 16000000U) && (hclk < 17200000U))
 190:Drivers/STM32F7xx_HAL_Driver/Src/stm32f7xx_ll_usb.c ****     {
 191:Drivers/STM32F7xx_HAL_Driver/Src/stm32f7xx_ll_usb.c ****       /* hclk Clock Range between 16-17.2 MHz */
 192:Drivers/STM32F7xx_HAL_Driver/Src/stm32f7xx_ll_usb.c ****       UsbTrd = 0xDU;
 193:Drivers/STM32F7xx_HAL_Driver/Src/stm32f7xx_ll_usb.c ****     }
 194:Drivers/STM32F7xx_HAL_Driver/Src/stm32f7xx_ll_usb.c ****     else if ((hclk >= 17200000U) && (hclk < 18500000U))
 195:Drivers/STM32F7xx_HAL_Driver/Src/stm32f7xx_ll_usb.c ****     {
 196:Drivers/STM32F7xx_HAL_Driver/Src/stm32f7xx_ll_usb.c ****       /* hclk Clock Range between 17.2-18.5 MHz */
 197:Drivers/STM32F7xx_HAL_Driver/Src/stm32f7xx_ll_usb.c ****       UsbTrd = 0xCU;
 198:Drivers/STM32F7xx_HAL_Driver/Src/stm32f7xx_ll_usb.c ****     }
 199:Drivers/STM32F7xx_HAL_Driver/Src/stm32f7xx_ll_usb.c ****     else if ((hclk >= 18500000U) && (hclk < 20000000U))
 200:Drivers/STM32F7xx_HAL_Driver/Src/stm32f7xx_ll_usb.c ****     {
 201:Drivers/STM32F7xx_HAL_Driver/Src/stm32f7xx_ll_usb.c ****       /* hclk Clock Range between 18.5-20 MHz */
 202:Drivers/STM32F7xx_HAL_Driver/Src/stm32f7xx_ll_usb.c ****       UsbTrd = 0xBU;
ARM GAS  /tmp/cc8xco1Q.s 			page 5


 203:Drivers/STM32F7xx_HAL_Driver/Src/stm32f7xx_ll_usb.c ****     }
 204:Drivers/STM32F7xx_HAL_Driver/Src/stm32f7xx_ll_usb.c ****     else if ((hclk >= 20000000U) && (hclk < 21800000U))
 205:Drivers/STM32F7xx_HAL_Driver/Src/stm32f7xx_ll_usb.c ****     {
 206:Drivers/STM32F7xx_HAL_Driver/Src/stm32f7xx_ll_usb.c ****       /* hclk Clock Range between 20-21.8 MHz */
 207:Drivers/STM32F7xx_HAL_Driver/Src/stm32f7xx_ll_usb.c ****       UsbTrd = 0xAU;
 208:Drivers/STM32F7xx_HAL_Driver/Src/stm32f7xx_ll_usb.c ****     }
 209:Drivers/STM32F7xx_HAL_Driver/Src/stm32f7xx_ll_usb.c ****     else if ((hclk >= 21800000U) && (hclk < 24000000U))
 210:Drivers/STM32F7xx_HAL_Driver/Src/stm32f7xx_ll_usb.c ****     {
 211:Drivers/STM32F7xx_HAL_Driver/Src/stm32f7xx_ll_usb.c ****       /* hclk Clock Range between 21.8-24 MHz */
 212:Drivers/STM32F7xx_HAL_Driver/Src/stm32f7xx_ll_usb.c ****       UsbTrd = 0x9U;
 213:Drivers/STM32F7xx_HAL_Driver/Src/stm32f7xx_ll_usb.c ****     }
 214:Drivers/STM32F7xx_HAL_Driver/Src/stm32f7xx_ll_usb.c ****     else if ((hclk >= 24000000U) && (hclk < 27700000U))
 215:Drivers/STM32F7xx_HAL_Driver/Src/stm32f7xx_ll_usb.c ****     {
 216:Drivers/STM32F7xx_HAL_Driver/Src/stm32f7xx_ll_usb.c ****       /* hclk Clock Range between 24-27.7 MHz */
 217:Drivers/STM32F7xx_HAL_Driver/Src/stm32f7xx_ll_usb.c ****       UsbTrd = 0x8U;
 218:Drivers/STM32F7xx_HAL_Driver/Src/stm32f7xx_ll_usb.c ****     }
 219:Drivers/STM32F7xx_HAL_Driver/Src/stm32f7xx_ll_usb.c ****     else if ((hclk >= 27700000U) && (hclk < 32000000U))
 220:Drivers/STM32F7xx_HAL_Driver/Src/stm32f7xx_ll_usb.c ****     {
 221:Drivers/STM32F7xx_HAL_Driver/Src/stm32f7xx_ll_usb.c ****       /* hclk Clock Range between 27.7-32 MHz */
 222:Drivers/STM32F7xx_HAL_Driver/Src/stm32f7xx_ll_usb.c ****       UsbTrd = 0x7U;
 223:Drivers/STM32F7xx_HAL_Driver/Src/stm32f7xx_ll_usb.c ****     }
 224:Drivers/STM32F7xx_HAL_Driver/Src/stm32f7xx_ll_usb.c ****     else /* if(hclk >= 32000000) */
 225:Drivers/STM32F7xx_HAL_Driver/Src/stm32f7xx_ll_usb.c ****     {
 226:Drivers/STM32F7xx_HAL_Driver/Src/stm32f7xx_ll_usb.c ****       /* hclk Clock Range between 32-200 MHz */
 227:Drivers/STM32F7xx_HAL_Driver/Src/stm32f7xx_ll_usb.c ****       UsbTrd = 0x6U;
 228:Drivers/STM32F7xx_HAL_Driver/Src/stm32f7xx_ll_usb.c ****     }
 229:Drivers/STM32F7xx_HAL_Driver/Src/stm32f7xx_ll_usb.c ****   }
 230:Drivers/STM32F7xx_HAL_Driver/Src/stm32f7xx_ll_usb.c ****   else if (speed == USBD_HS_SPEED)
 231:Drivers/STM32F7xx_HAL_Driver/Src/stm32f7xx_ll_usb.c ****   {
 232:Drivers/STM32F7xx_HAL_Driver/Src/stm32f7xx_ll_usb.c ****     UsbTrd = USBD_HS_TRDT_VALUE;
 233:Drivers/STM32F7xx_HAL_Driver/Src/stm32f7xx_ll_usb.c ****   }
 234:Drivers/STM32F7xx_HAL_Driver/Src/stm32f7xx_ll_usb.c ****   else
 235:Drivers/STM32F7xx_HAL_Driver/Src/stm32f7xx_ll_usb.c ****   {
 236:Drivers/STM32F7xx_HAL_Driver/Src/stm32f7xx_ll_usb.c ****     UsbTrd = USBD_DEFAULT_TRDT_VALUE;
 237:Drivers/STM32F7xx_HAL_Driver/Src/stm32f7xx_ll_usb.c ****   }
 238:Drivers/STM32F7xx_HAL_Driver/Src/stm32f7xx_ll_usb.c **** 
 239:Drivers/STM32F7xx_HAL_Driver/Src/stm32f7xx_ll_usb.c ****   USBx->GUSBCFG &= ~USB_OTG_GUSBCFG_TRDT;
 240:Drivers/STM32F7xx_HAL_Driver/Src/stm32f7xx_ll_usb.c ****   USBx->GUSBCFG |= (uint32_t)((UsbTrd << 10) & USB_OTG_GUSBCFG_TRDT);
 241:Drivers/STM32F7xx_HAL_Driver/Src/stm32f7xx_ll_usb.c **** 
 242:Drivers/STM32F7xx_HAL_Driver/Src/stm32f7xx_ll_usb.c ****   return HAL_OK;
 243:Drivers/STM32F7xx_HAL_Driver/Src/stm32f7xx_ll_usb.c **** }
 244:Drivers/STM32F7xx_HAL_Driver/Src/stm32f7xx_ll_usb.c **** 
 245:Drivers/STM32F7xx_HAL_Driver/Src/stm32f7xx_ll_usb.c **** /**
 246:Drivers/STM32F7xx_HAL_Driver/Src/stm32f7xx_ll_usb.c ****   * @brief  USB_EnableGlobalInt
 247:Drivers/STM32F7xx_HAL_Driver/Src/stm32f7xx_ll_usb.c ****   *         Enables the controller's Global Int in the AHB Config reg
 248:Drivers/STM32F7xx_HAL_Driver/Src/stm32f7xx_ll_usb.c ****   * @param  USBx  Selected device
 249:Drivers/STM32F7xx_HAL_Driver/Src/stm32f7xx_ll_usb.c ****   * @retval HAL status
 250:Drivers/STM32F7xx_HAL_Driver/Src/stm32f7xx_ll_usb.c ****   */
 251:Drivers/STM32F7xx_HAL_Driver/Src/stm32f7xx_ll_usb.c **** HAL_StatusTypeDef USB_EnableGlobalInt(USB_OTG_GlobalTypeDef *USBx)
 252:Drivers/STM32F7xx_HAL_Driver/Src/stm32f7xx_ll_usb.c **** {
 253:Drivers/STM32F7xx_HAL_Driver/Src/stm32f7xx_ll_usb.c ****   USBx->GAHBCFG |= USB_OTG_GAHBCFG_GINT;
 254:Drivers/STM32F7xx_HAL_Driver/Src/stm32f7xx_ll_usb.c ****   return HAL_OK;
 255:Drivers/STM32F7xx_HAL_Driver/Src/stm32f7xx_ll_usb.c **** }
 256:Drivers/STM32F7xx_HAL_Driver/Src/stm32f7xx_ll_usb.c **** 
 257:Drivers/STM32F7xx_HAL_Driver/Src/stm32f7xx_ll_usb.c **** /**
 258:Drivers/STM32F7xx_HAL_Driver/Src/stm32f7xx_ll_usb.c ****   * @brief  USB_DisableGlobalInt
 259:Drivers/STM32F7xx_HAL_Driver/Src/stm32f7xx_ll_usb.c ****   *         Disable the controller's Global Int in the AHB Config reg
ARM GAS  /tmp/cc8xco1Q.s 			page 6


 260:Drivers/STM32F7xx_HAL_Driver/Src/stm32f7xx_ll_usb.c ****   * @param  USBx  Selected device
 261:Drivers/STM32F7xx_HAL_Driver/Src/stm32f7xx_ll_usb.c ****   * @retval HAL status
 262:Drivers/STM32F7xx_HAL_Driver/Src/stm32f7xx_ll_usb.c **** */
 263:Drivers/STM32F7xx_HAL_Driver/Src/stm32f7xx_ll_usb.c **** HAL_StatusTypeDef USB_DisableGlobalInt(USB_OTG_GlobalTypeDef *USBx)
 264:Drivers/STM32F7xx_HAL_Driver/Src/stm32f7xx_ll_usb.c **** {
 265:Drivers/STM32F7xx_HAL_Driver/Src/stm32f7xx_ll_usb.c ****   USBx->GAHBCFG &= ~USB_OTG_GAHBCFG_GINT;
 266:Drivers/STM32F7xx_HAL_Driver/Src/stm32f7xx_ll_usb.c ****   return HAL_OK;
 267:Drivers/STM32F7xx_HAL_Driver/Src/stm32f7xx_ll_usb.c **** }
 268:Drivers/STM32F7xx_HAL_Driver/Src/stm32f7xx_ll_usb.c **** 
 269:Drivers/STM32F7xx_HAL_Driver/Src/stm32f7xx_ll_usb.c **** /**
 270:Drivers/STM32F7xx_HAL_Driver/Src/stm32f7xx_ll_usb.c ****   * @brief  USB_SetCurrentMode : Set functional mode
 271:Drivers/STM32F7xx_HAL_Driver/Src/stm32f7xx_ll_usb.c ****   * @param  USBx  Selected device
 272:Drivers/STM32F7xx_HAL_Driver/Src/stm32f7xx_ll_usb.c ****   * @param  mode   current core mode
 273:Drivers/STM32F7xx_HAL_Driver/Src/stm32f7xx_ll_usb.c ****   *          This parameter can be one of these values:
 274:Drivers/STM32F7xx_HAL_Driver/Src/stm32f7xx_ll_usb.c ****   *            @arg USB_DEVICE_MODE: Peripheral mode
 275:Drivers/STM32F7xx_HAL_Driver/Src/stm32f7xx_ll_usb.c ****   *            @arg USB_HOST_MODE: Host mode
 276:Drivers/STM32F7xx_HAL_Driver/Src/stm32f7xx_ll_usb.c ****   *            @arg USB_DRD_MODE: Dual Role Device mode
 277:Drivers/STM32F7xx_HAL_Driver/Src/stm32f7xx_ll_usb.c ****   * @retval HAL status
 278:Drivers/STM32F7xx_HAL_Driver/Src/stm32f7xx_ll_usb.c ****   */
 279:Drivers/STM32F7xx_HAL_Driver/Src/stm32f7xx_ll_usb.c **** HAL_StatusTypeDef USB_SetCurrentMode(USB_OTG_GlobalTypeDef *USBx, USB_OTG_ModeTypeDef mode)
 280:Drivers/STM32F7xx_HAL_Driver/Src/stm32f7xx_ll_usb.c **** {
 281:Drivers/STM32F7xx_HAL_Driver/Src/stm32f7xx_ll_usb.c ****   USBx->GUSBCFG &= ~(USB_OTG_GUSBCFG_FHMOD | USB_OTG_GUSBCFG_FDMOD);
 282:Drivers/STM32F7xx_HAL_Driver/Src/stm32f7xx_ll_usb.c **** 
 283:Drivers/STM32F7xx_HAL_Driver/Src/stm32f7xx_ll_usb.c ****   if (mode == USB_HOST_MODE)
 284:Drivers/STM32F7xx_HAL_Driver/Src/stm32f7xx_ll_usb.c ****   {
 285:Drivers/STM32F7xx_HAL_Driver/Src/stm32f7xx_ll_usb.c ****     USBx->GUSBCFG |= USB_OTG_GUSBCFG_FHMOD;
 286:Drivers/STM32F7xx_HAL_Driver/Src/stm32f7xx_ll_usb.c ****   }
 287:Drivers/STM32F7xx_HAL_Driver/Src/stm32f7xx_ll_usb.c ****   else if (mode == USB_DEVICE_MODE)
 288:Drivers/STM32F7xx_HAL_Driver/Src/stm32f7xx_ll_usb.c ****   {
 289:Drivers/STM32F7xx_HAL_Driver/Src/stm32f7xx_ll_usb.c ****     USBx->GUSBCFG |= USB_OTG_GUSBCFG_FDMOD;
 290:Drivers/STM32F7xx_HAL_Driver/Src/stm32f7xx_ll_usb.c ****   }
 291:Drivers/STM32F7xx_HAL_Driver/Src/stm32f7xx_ll_usb.c ****   else
 292:Drivers/STM32F7xx_HAL_Driver/Src/stm32f7xx_ll_usb.c ****   {
 293:Drivers/STM32F7xx_HAL_Driver/Src/stm32f7xx_ll_usb.c ****     return HAL_ERROR;
 294:Drivers/STM32F7xx_HAL_Driver/Src/stm32f7xx_ll_usb.c ****   }
 295:Drivers/STM32F7xx_HAL_Driver/Src/stm32f7xx_ll_usb.c ****   HAL_Delay(50U);
 296:Drivers/STM32F7xx_HAL_Driver/Src/stm32f7xx_ll_usb.c **** 
 297:Drivers/STM32F7xx_HAL_Driver/Src/stm32f7xx_ll_usb.c ****   return HAL_OK;
 298:Drivers/STM32F7xx_HAL_Driver/Src/stm32f7xx_ll_usb.c **** }
 299:Drivers/STM32F7xx_HAL_Driver/Src/stm32f7xx_ll_usb.c **** 
 300:Drivers/STM32F7xx_HAL_Driver/Src/stm32f7xx_ll_usb.c **** /**
 301:Drivers/STM32F7xx_HAL_Driver/Src/stm32f7xx_ll_usb.c ****   * @brief  USB_DevInit : Initializes the USB_OTG controller registers
 302:Drivers/STM32F7xx_HAL_Driver/Src/stm32f7xx_ll_usb.c ****   *         for device mode
 303:Drivers/STM32F7xx_HAL_Driver/Src/stm32f7xx_ll_usb.c ****   * @param  USBx  Selected device
 304:Drivers/STM32F7xx_HAL_Driver/Src/stm32f7xx_ll_usb.c ****   * @param  cfg   pointer to a USB_OTG_CfgTypeDef structure that contains
 305:Drivers/STM32F7xx_HAL_Driver/Src/stm32f7xx_ll_usb.c ****   *         the configuration information for the specified USBx peripheral.
 306:Drivers/STM32F7xx_HAL_Driver/Src/stm32f7xx_ll_usb.c ****   * @retval HAL status
 307:Drivers/STM32F7xx_HAL_Driver/Src/stm32f7xx_ll_usb.c ****   */
 308:Drivers/STM32F7xx_HAL_Driver/Src/stm32f7xx_ll_usb.c **** HAL_StatusTypeDef USB_DevInit(USB_OTG_GlobalTypeDef *USBx, USB_OTG_CfgTypeDef cfg)
 309:Drivers/STM32F7xx_HAL_Driver/Src/stm32f7xx_ll_usb.c **** {
 310:Drivers/STM32F7xx_HAL_Driver/Src/stm32f7xx_ll_usb.c ****   HAL_StatusTypeDef ret = HAL_OK;
 311:Drivers/STM32F7xx_HAL_Driver/Src/stm32f7xx_ll_usb.c ****   uint32_t USBx_BASE = (uint32_t)USBx;
 312:Drivers/STM32F7xx_HAL_Driver/Src/stm32f7xx_ll_usb.c ****   uint32_t i;
 313:Drivers/STM32F7xx_HAL_Driver/Src/stm32f7xx_ll_usb.c **** 
 314:Drivers/STM32F7xx_HAL_Driver/Src/stm32f7xx_ll_usb.c ****   for (i = 0U; i < 15U; i++)
 315:Drivers/STM32F7xx_HAL_Driver/Src/stm32f7xx_ll_usb.c ****   {
 316:Drivers/STM32F7xx_HAL_Driver/Src/stm32f7xx_ll_usb.c ****     USBx->DIEPTXF[i] = 0U;
ARM GAS  /tmp/cc8xco1Q.s 			page 7


 317:Drivers/STM32F7xx_HAL_Driver/Src/stm32f7xx_ll_usb.c ****   }
 318:Drivers/STM32F7xx_HAL_Driver/Src/stm32f7xx_ll_usb.c **** 
 319:Drivers/STM32F7xx_HAL_Driver/Src/stm32f7xx_ll_usb.c ****   /* VBUS Sensing setup */
 320:Drivers/STM32F7xx_HAL_Driver/Src/stm32f7xx_ll_usb.c ****   if (cfg.vbus_sensing_enable == 0U)
 321:Drivers/STM32F7xx_HAL_Driver/Src/stm32f7xx_ll_usb.c ****   {
 322:Drivers/STM32F7xx_HAL_Driver/Src/stm32f7xx_ll_usb.c ****     USBx_DEVICE->DCTL |= USB_OTG_DCTL_SDIS;
 323:Drivers/STM32F7xx_HAL_Driver/Src/stm32f7xx_ll_usb.c **** 
 324:Drivers/STM32F7xx_HAL_Driver/Src/stm32f7xx_ll_usb.c ****     /* Deactivate VBUS Sensing B */
 325:Drivers/STM32F7xx_HAL_Driver/Src/stm32f7xx_ll_usb.c ****     USBx->GCCFG &= ~USB_OTG_GCCFG_VBDEN;
 326:Drivers/STM32F7xx_HAL_Driver/Src/stm32f7xx_ll_usb.c **** 
 327:Drivers/STM32F7xx_HAL_Driver/Src/stm32f7xx_ll_usb.c ****     /* B-peripheral session valid override enable */
 328:Drivers/STM32F7xx_HAL_Driver/Src/stm32f7xx_ll_usb.c ****     USBx->GOTGCTL |= USB_OTG_GOTGCTL_BVALOEN;
 329:Drivers/STM32F7xx_HAL_Driver/Src/stm32f7xx_ll_usb.c ****     USBx->GOTGCTL |= USB_OTG_GOTGCTL_BVALOVAL;
 330:Drivers/STM32F7xx_HAL_Driver/Src/stm32f7xx_ll_usb.c ****   }
 331:Drivers/STM32F7xx_HAL_Driver/Src/stm32f7xx_ll_usb.c ****   else
 332:Drivers/STM32F7xx_HAL_Driver/Src/stm32f7xx_ll_usb.c ****   {
 333:Drivers/STM32F7xx_HAL_Driver/Src/stm32f7xx_ll_usb.c ****     /* Enable HW VBUS sensing */
 334:Drivers/STM32F7xx_HAL_Driver/Src/stm32f7xx_ll_usb.c ****     USBx->GCCFG |= USB_OTG_GCCFG_VBDEN;
 335:Drivers/STM32F7xx_HAL_Driver/Src/stm32f7xx_ll_usb.c ****   }
 336:Drivers/STM32F7xx_HAL_Driver/Src/stm32f7xx_ll_usb.c **** 
 337:Drivers/STM32F7xx_HAL_Driver/Src/stm32f7xx_ll_usb.c ****   /* Restart the Phy Clock */
 338:Drivers/STM32F7xx_HAL_Driver/Src/stm32f7xx_ll_usb.c ****   USBx_PCGCCTL = 0U;
 339:Drivers/STM32F7xx_HAL_Driver/Src/stm32f7xx_ll_usb.c **** 
 340:Drivers/STM32F7xx_HAL_Driver/Src/stm32f7xx_ll_usb.c ****   /* Device mode configuration */
 341:Drivers/STM32F7xx_HAL_Driver/Src/stm32f7xx_ll_usb.c ****   USBx_DEVICE->DCFG |= DCFG_FRAME_INTERVAL_80;
 342:Drivers/STM32F7xx_HAL_Driver/Src/stm32f7xx_ll_usb.c **** 
 343:Drivers/STM32F7xx_HAL_Driver/Src/stm32f7xx_ll_usb.c ****   if (cfg.phy_itface == USB_OTG_ULPI_PHY)
 344:Drivers/STM32F7xx_HAL_Driver/Src/stm32f7xx_ll_usb.c ****   {
 345:Drivers/STM32F7xx_HAL_Driver/Src/stm32f7xx_ll_usb.c ****     if (cfg.speed == USBD_HS_SPEED)
 346:Drivers/STM32F7xx_HAL_Driver/Src/stm32f7xx_ll_usb.c ****     {
 347:Drivers/STM32F7xx_HAL_Driver/Src/stm32f7xx_ll_usb.c ****       /* Set Core speed to High speed mode */
 348:Drivers/STM32F7xx_HAL_Driver/Src/stm32f7xx_ll_usb.c ****       (void)USB_SetDevSpeed(USBx, USB_OTG_SPEED_HIGH);
 349:Drivers/STM32F7xx_HAL_Driver/Src/stm32f7xx_ll_usb.c ****     }
 350:Drivers/STM32F7xx_HAL_Driver/Src/stm32f7xx_ll_usb.c ****     else
 351:Drivers/STM32F7xx_HAL_Driver/Src/stm32f7xx_ll_usb.c ****     {
 352:Drivers/STM32F7xx_HAL_Driver/Src/stm32f7xx_ll_usb.c ****       /* Set Core speed to Full speed mode */
 353:Drivers/STM32F7xx_HAL_Driver/Src/stm32f7xx_ll_usb.c ****       (void)USB_SetDevSpeed(USBx, USB_OTG_SPEED_HIGH_IN_FULL);
 354:Drivers/STM32F7xx_HAL_Driver/Src/stm32f7xx_ll_usb.c ****     }
 355:Drivers/STM32F7xx_HAL_Driver/Src/stm32f7xx_ll_usb.c ****   }
 356:Drivers/STM32F7xx_HAL_Driver/Src/stm32f7xx_ll_usb.c ****   else if (cfg.phy_itface == USB_OTG_HS_EMBEDDED_PHY)
 357:Drivers/STM32F7xx_HAL_Driver/Src/stm32f7xx_ll_usb.c ****   {
 358:Drivers/STM32F7xx_HAL_Driver/Src/stm32f7xx_ll_usb.c ****     if (cfg.speed == USBD_HS_SPEED)
 359:Drivers/STM32F7xx_HAL_Driver/Src/stm32f7xx_ll_usb.c ****     {
 360:Drivers/STM32F7xx_HAL_Driver/Src/stm32f7xx_ll_usb.c ****       /* Set Core speed to High speed mode */
 361:Drivers/STM32F7xx_HAL_Driver/Src/stm32f7xx_ll_usb.c ****       (void)USB_SetDevSpeed(USBx, USB_OTG_SPEED_HIGH);
 362:Drivers/STM32F7xx_HAL_Driver/Src/stm32f7xx_ll_usb.c ****     }
 363:Drivers/STM32F7xx_HAL_Driver/Src/stm32f7xx_ll_usb.c ****     else
 364:Drivers/STM32F7xx_HAL_Driver/Src/stm32f7xx_ll_usb.c ****     {
 365:Drivers/STM32F7xx_HAL_Driver/Src/stm32f7xx_ll_usb.c ****       /* Set Core speed to Full speed mode */
 366:Drivers/STM32F7xx_HAL_Driver/Src/stm32f7xx_ll_usb.c ****       (void)USB_SetDevSpeed(USBx, USB_OTG_SPEED_HIGH_IN_FULL);
 367:Drivers/STM32F7xx_HAL_Driver/Src/stm32f7xx_ll_usb.c ****     }
 368:Drivers/STM32F7xx_HAL_Driver/Src/stm32f7xx_ll_usb.c ****   }
 369:Drivers/STM32F7xx_HAL_Driver/Src/stm32f7xx_ll_usb.c ****   else
 370:Drivers/STM32F7xx_HAL_Driver/Src/stm32f7xx_ll_usb.c ****   {
 371:Drivers/STM32F7xx_HAL_Driver/Src/stm32f7xx_ll_usb.c ****     /* Set Core speed to Full speed mode */
 372:Drivers/STM32F7xx_HAL_Driver/Src/stm32f7xx_ll_usb.c ****     (void)USB_SetDevSpeed(USBx, USB_OTG_SPEED_FULL);
 373:Drivers/STM32F7xx_HAL_Driver/Src/stm32f7xx_ll_usb.c ****   }
ARM GAS  /tmp/cc8xco1Q.s 			page 8


 374:Drivers/STM32F7xx_HAL_Driver/Src/stm32f7xx_ll_usb.c **** 
 375:Drivers/STM32F7xx_HAL_Driver/Src/stm32f7xx_ll_usb.c ****   /* Flush the FIFOs */
 376:Drivers/STM32F7xx_HAL_Driver/Src/stm32f7xx_ll_usb.c ****   if (USB_FlushTxFifo(USBx, 0x10U) != HAL_OK) /* all Tx FIFOs */
 377:Drivers/STM32F7xx_HAL_Driver/Src/stm32f7xx_ll_usb.c ****   {
 378:Drivers/STM32F7xx_HAL_Driver/Src/stm32f7xx_ll_usb.c ****     ret = HAL_ERROR;
 379:Drivers/STM32F7xx_HAL_Driver/Src/stm32f7xx_ll_usb.c ****   }
 380:Drivers/STM32F7xx_HAL_Driver/Src/stm32f7xx_ll_usb.c **** 
 381:Drivers/STM32F7xx_HAL_Driver/Src/stm32f7xx_ll_usb.c ****   if (USB_FlushRxFifo(USBx) != HAL_OK)
 382:Drivers/STM32F7xx_HAL_Driver/Src/stm32f7xx_ll_usb.c ****   {
 383:Drivers/STM32F7xx_HAL_Driver/Src/stm32f7xx_ll_usb.c ****     ret = HAL_ERROR;
 384:Drivers/STM32F7xx_HAL_Driver/Src/stm32f7xx_ll_usb.c ****   }
 385:Drivers/STM32F7xx_HAL_Driver/Src/stm32f7xx_ll_usb.c **** 
 386:Drivers/STM32F7xx_HAL_Driver/Src/stm32f7xx_ll_usb.c ****   /* Clear all pending Device Interrupts */
 387:Drivers/STM32F7xx_HAL_Driver/Src/stm32f7xx_ll_usb.c ****   USBx_DEVICE->DIEPMSK = 0U;
 388:Drivers/STM32F7xx_HAL_Driver/Src/stm32f7xx_ll_usb.c ****   USBx_DEVICE->DOEPMSK = 0U;
 389:Drivers/STM32F7xx_HAL_Driver/Src/stm32f7xx_ll_usb.c ****   USBx_DEVICE->DAINTMSK = 0U;
 390:Drivers/STM32F7xx_HAL_Driver/Src/stm32f7xx_ll_usb.c **** 
 391:Drivers/STM32F7xx_HAL_Driver/Src/stm32f7xx_ll_usb.c ****   for (i = 0U; i < cfg.dev_endpoints; i++)
 392:Drivers/STM32F7xx_HAL_Driver/Src/stm32f7xx_ll_usb.c ****   {
 393:Drivers/STM32F7xx_HAL_Driver/Src/stm32f7xx_ll_usb.c ****     if ((USBx_INEP(i)->DIEPCTL & USB_OTG_DIEPCTL_EPENA) == USB_OTG_DIEPCTL_EPENA)
 394:Drivers/STM32F7xx_HAL_Driver/Src/stm32f7xx_ll_usb.c ****     {
 395:Drivers/STM32F7xx_HAL_Driver/Src/stm32f7xx_ll_usb.c ****       if (i == 0U)
 396:Drivers/STM32F7xx_HAL_Driver/Src/stm32f7xx_ll_usb.c ****       {
 397:Drivers/STM32F7xx_HAL_Driver/Src/stm32f7xx_ll_usb.c ****         USBx_INEP(i)->DIEPCTL = USB_OTG_DIEPCTL_SNAK;
 398:Drivers/STM32F7xx_HAL_Driver/Src/stm32f7xx_ll_usb.c ****       }
 399:Drivers/STM32F7xx_HAL_Driver/Src/stm32f7xx_ll_usb.c ****       else
 400:Drivers/STM32F7xx_HAL_Driver/Src/stm32f7xx_ll_usb.c ****       {
 401:Drivers/STM32F7xx_HAL_Driver/Src/stm32f7xx_ll_usb.c ****         USBx_INEP(i)->DIEPCTL = USB_OTG_DIEPCTL_EPDIS | USB_OTG_DIEPCTL_SNAK;
 402:Drivers/STM32F7xx_HAL_Driver/Src/stm32f7xx_ll_usb.c ****       }
 403:Drivers/STM32F7xx_HAL_Driver/Src/stm32f7xx_ll_usb.c ****     }
 404:Drivers/STM32F7xx_HAL_Driver/Src/stm32f7xx_ll_usb.c ****     else
 405:Drivers/STM32F7xx_HAL_Driver/Src/stm32f7xx_ll_usb.c ****     {
 406:Drivers/STM32F7xx_HAL_Driver/Src/stm32f7xx_ll_usb.c ****       USBx_INEP(i)->DIEPCTL = 0U;
 407:Drivers/STM32F7xx_HAL_Driver/Src/stm32f7xx_ll_usb.c ****     }
 408:Drivers/STM32F7xx_HAL_Driver/Src/stm32f7xx_ll_usb.c **** 
 409:Drivers/STM32F7xx_HAL_Driver/Src/stm32f7xx_ll_usb.c ****     USBx_INEP(i)->DIEPTSIZ = 0U;
 410:Drivers/STM32F7xx_HAL_Driver/Src/stm32f7xx_ll_usb.c ****     USBx_INEP(i)->DIEPINT  = 0xFB7FU;
 411:Drivers/STM32F7xx_HAL_Driver/Src/stm32f7xx_ll_usb.c ****   }
 412:Drivers/STM32F7xx_HAL_Driver/Src/stm32f7xx_ll_usb.c **** 
 413:Drivers/STM32F7xx_HAL_Driver/Src/stm32f7xx_ll_usb.c ****   for (i = 0U; i < cfg.dev_endpoints; i++)
 414:Drivers/STM32F7xx_HAL_Driver/Src/stm32f7xx_ll_usb.c ****   {
 415:Drivers/STM32F7xx_HAL_Driver/Src/stm32f7xx_ll_usb.c ****     if ((USBx_OUTEP(i)->DOEPCTL & USB_OTG_DOEPCTL_EPENA) == USB_OTG_DOEPCTL_EPENA)
 416:Drivers/STM32F7xx_HAL_Driver/Src/stm32f7xx_ll_usb.c ****     {
 417:Drivers/STM32F7xx_HAL_Driver/Src/stm32f7xx_ll_usb.c ****       if (i == 0U)
 418:Drivers/STM32F7xx_HAL_Driver/Src/stm32f7xx_ll_usb.c ****       {
 419:Drivers/STM32F7xx_HAL_Driver/Src/stm32f7xx_ll_usb.c ****         USBx_OUTEP(i)->DOEPCTL = USB_OTG_DOEPCTL_SNAK;
 420:Drivers/STM32F7xx_HAL_Driver/Src/stm32f7xx_ll_usb.c ****       }
 421:Drivers/STM32F7xx_HAL_Driver/Src/stm32f7xx_ll_usb.c ****       else
 422:Drivers/STM32F7xx_HAL_Driver/Src/stm32f7xx_ll_usb.c ****       {
 423:Drivers/STM32F7xx_HAL_Driver/Src/stm32f7xx_ll_usb.c ****         USBx_OUTEP(i)->DOEPCTL = USB_OTG_DOEPCTL_EPDIS | USB_OTG_DOEPCTL_SNAK;
 424:Drivers/STM32F7xx_HAL_Driver/Src/stm32f7xx_ll_usb.c ****       }
 425:Drivers/STM32F7xx_HAL_Driver/Src/stm32f7xx_ll_usb.c ****     }
 426:Drivers/STM32F7xx_HAL_Driver/Src/stm32f7xx_ll_usb.c ****     else
 427:Drivers/STM32F7xx_HAL_Driver/Src/stm32f7xx_ll_usb.c ****     {
 428:Drivers/STM32F7xx_HAL_Driver/Src/stm32f7xx_ll_usb.c ****       USBx_OUTEP(i)->DOEPCTL = 0U;
 429:Drivers/STM32F7xx_HAL_Driver/Src/stm32f7xx_ll_usb.c ****     }
 430:Drivers/STM32F7xx_HAL_Driver/Src/stm32f7xx_ll_usb.c **** 
ARM GAS  /tmp/cc8xco1Q.s 			page 9


 431:Drivers/STM32F7xx_HAL_Driver/Src/stm32f7xx_ll_usb.c ****     USBx_OUTEP(i)->DOEPTSIZ = 0U;
 432:Drivers/STM32F7xx_HAL_Driver/Src/stm32f7xx_ll_usb.c ****     USBx_OUTEP(i)->DOEPINT  = 0xFB7FU;
 433:Drivers/STM32F7xx_HAL_Driver/Src/stm32f7xx_ll_usb.c ****   }
 434:Drivers/STM32F7xx_HAL_Driver/Src/stm32f7xx_ll_usb.c **** 
 435:Drivers/STM32F7xx_HAL_Driver/Src/stm32f7xx_ll_usb.c ****   USBx_DEVICE->DIEPMSK &= ~(USB_OTG_DIEPMSK_TXFURM);
 436:Drivers/STM32F7xx_HAL_Driver/Src/stm32f7xx_ll_usb.c **** 
 437:Drivers/STM32F7xx_HAL_Driver/Src/stm32f7xx_ll_usb.c ****   /* Disable all interrupts. */
 438:Drivers/STM32F7xx_HAL_Driver/Src/stm32f7xx_ll_usb.c ****   USBx->GINTMSK = 0U;
 439:Drivers/STM32F7xx_HAL_Driver/Src/stm32f7xx_ll_usb.c **** 
 440:Drivers/STM32F7xx_HAL_Driver/Src/stm32f7xx_ll_usb.c ****   /* Clear any pending interrupts */
 441:Drivers/STM32F7xx_HAL_Driver/Src/stm32f7xx_ll_usb.c ****   USBx->GINTSTS = 0xBFFFFFFFU;
 442:Drivers/STM32F7xx_HAL_Driver/Src/stm32f7xx_ll_usb.c **** 
 443:Drivers/STM32F7xx_HAL_Driver/Src/stm32f7xx_ll_usb.c ****   /* Enable the common interrupts */
 444:Drivers/STM32F7xx_HAL_Driver/Src/stm32f7xx_ll_usb.c ****   if (cfg.dma_enable == 0U)
 445:Drivers/STM32F7xx_HAL_Driver/Src/stm32f7xx_ll_usb.c ****   {
 446:Drivers/STM32F7xx_HAL_Driver/Src/stm32f7xx_ll_usb.c ****     USBx->GINTMSK |= USB_OTG_GINTMSK_RXFLVLM;
 447:Drivers/STM32F7xx_HAL_Driver/Src/stm32f7xx_ll_usb.c ****   }
 448:Drivers/STM32F7xx_HAL_Driver/Src/stm32f7xx_ll_usb.c **** 
 449:Drivers/STM32F7xx_HAL_Driver/Src/stm32f7xx_ll_usb.c ****   /* Enable interrupts matching to the Device mode ONLY */
 450:Drivers/STM32F7xx_HAL_Driver/Src/stm32f7xx_ll_usb.c ****   USBx->GINTMSK |= USB_OTG_GINTMSK_USBSUSPM | USB_OTG_GINTMSK_USBRST |
 451:Drivers/STM32F7xx_HAL_Driver/Src/stm32f7xx_ll_usb.c ****                    USB_OTG_GINTMSK_ENUMDNEM | USB_OTG_GINTMSK_IEPINT |
 452:Drivers/STM32F7xx_HAL_Driver/Src/stm32f7xx_ll_usb.c ****                    USB_OTG_GINTMSK_OEPINT   | USB_OTG_GINTMSK_IISOIXFRM |
 453:Drivers/STM32F7xx_HAL_Driver/Src/stm32f7xx_ll_usb.c ****                    USB_OTG_GINTMSK_PXFRM_IISOOXFRM | USB_OTG_GINTMSK_WUIM;
 454:Drivers/STM32F7xx_HAL_Driver/Src/stm32f7xx_ll_usb.c **** 
 455:Drivers/STM32F7xx_HAL_Driver/Src/stm32f7xx_ll_usb.c ****   if (cfg.Sof_enable != 0U)
 456:Drivers/STM32F7xx_HAL_Driver/Src/stm32f7xx_ll_usb.c ****   {
 457:Drivers/STM32F7xx_HAL_Driver/Src/stm32f7xx_ll_usb.c ****     USBx->GINTMSK |= USB_OTG_GINTMSK_SOFM;
 458:Drivers/STM32F7xx_HAL_Driver/Src/stm32f7xx_ll_usb.c ****   }
 459:Drivers/STM32F7xx_HAL_Driver/Src/stm32f7xx_ll_usb.c **** 
 460:Drivers/STM32F7xx_HAL_Driver/Src/stm32f7xx_ll_usb.c ****   if (cfg.vbus_sensing_enable == 1U)
 461:Drivers/STM32F7xx_HAL_Driver/Src/stm32f7xx_ll_usb.c ****   {
 462:Drivers/STM32F7xx_HAL_Driver/Src/stm32f7xx_ll_usb.c ****     USBx->GINTMSK |= (USB_OTG_GINTMSK_SRQIM | USB_OTG_GINTMSK_OTGINT);
 463:Drivers/STM32F7xx_HAL_Driver/Src/stm32f7xx_ll_usb.c ****   }
 464:Drivers/STM32F7xx_HAL_Driver/Src/stm32f7xx_ll_usb.c **** 
 465:Drivers/STM32F7xx_HAL_Driver/Src/stm32f7xx_ll_usb.c ****   return ret;
 466:Drivers/STM32F7xx_HAL_Driver/Src/stm32f7xx_ll_usb.c **** }
 467:Drivers/STM32F7xx_HAL_Driver/Src/stm32f7xx_ll_usb.c **** 
 468:Drivers/STM32F7xx_HAL_Driver/Src/stm32f7xx_ll_usb.c **** /**
 469:Drivers/STM32F7xx_HAL_Driver/Src/stm32f7xx_ll_usb.c ****   * @brief  USB_OTG_FlushTxFifo : Flush a Tx FIFO
 470:Drivers/STM32F7xx_HAL_Driver/Src/stm32f7xx_ll_usb.c ****   * @param  USBx  Selected device
 471:Drivers/STM32F7xx_HAL_Driver/Src/stm32f7xx_ll_usb.c ****   * @param  num  FIFO number
 472:Drivers/STM32F7xx_HAL_Driver/Src/stm32f7xx_ll_usb.c ****   *         This parameter can be a value from 1 to 15
 473:Drivers/STM32F7xx_HAL_Driver/Src/stm32f7xx_ll_usb.c ****             15 means Flush all Tx FIFOs
 474:Drivers/STM32F7xx_HAL_Driver/Src/stm32f7xx_ll_usb.c ****   * @retval HAL status
 475:Drivers/STM32F7xx_HAL_Driver/Src/stm32f7xx_ll_usb.c ****   */
 476:Drivers/STM32F7xx_HAL_Driver/Src/stm32f7xx_ll_usb.c **** HAL_StatusTypeDef USB_FlushTxFifo(USB_OTG_GlobalTypeDef *USBx, uint32_t num)
 477:Drivers/STM32F7xx_HAL_Driver/Src/stm32f7xx_ll_usb.c **** {
 478:Drivers/STM32F7xx_HAL_Driver/Src/stm32f7xx_ll_usb.c ****   uint32_t count = 0U;
 479:Drivers/STM32F7xx_HAL_Driver/Src/stm32f7xx_ll_usb.c **** 
 480:Drivers/STM32F7xx_HAL_Driver/Src/stm32f7xx_ll_usb.c ****   USBx->GRSTCTL = (USB_OTG_GRSTCTL_TXFFLSH | (num << 6));
 481:Drivers/STM32F7xx_HAL_Driver/Src/stm32f7xx_ll_usb.c **** 
 482:Drivers/STM32F7xx_HAL_Driver/Src/stm32f7xx_ll_usb.c ****   do
 483:Drivers/STM32F7xx_HAL_Driver/Src/stm32f7xx_ll_usb.c ****   {
 484:Drivers/STM32F7xx_HAL_Driver/Src/stm32f7xx_ll_usb.c ****     if (++count > 200000U)
 485:Drivers/STM32F7xx_HAL_Driver/Src/stm32f7xx_ll_usb.c ****     {
 486:Drivers/STM32F7xx_HAL_Driver/Src/stm32f7xx_ll_usb.c ****       return HAL_TIMEOUT;
 487:Drivers/STM32F7xx_HAL_Driver/Src/stm32f7xx_ll_usb.c ****     }
ARM GAS  /tmp/cc8xco1Q.s 			page 10


 488:Drivers/STM32F7xx_HAL_Driver/Src/stm32f7xx_ll_usb.c ****   }
 489:Drivers/STM32F7xx_HAL_Driver/Src/stm32f7xx_ll_usb.c ****   while ((USBx->GRSTCTL & USB_OTG_GRSTCTL_TXFFLSH) == USB_OTG_GRSTCTL_TXFFLSH);
 490:Drivers/STM32F7xx_HAL_Driver/Src/stm32f7xx_ll_usb.c **** 
 491:Drivers/STM32F7xx_HAL_Driver/Src/stm32f7xx_ll_usb.c ****   return HAL_OK;
 492:Drivers/STM32F7xx_HAL_Driver/Src/stm32f7xx_ll_usb.c **** }
 493:Drivers/STM32F7xx_HAL_Driver/Src/stm32f7xx_ll_usb.c **** 
 494:Drivers/STM32F7xx_HAL_Driver/Src/stm32f7xx_ll_usb.c **** /**
 495:Drivers/STM32F7xx_HAL_Driver/Src/stm32f7xx_ll_usb.c ****   * @brief  USB_FlushRxFifo : Flush Rx FIFO
 496:Drivers/STM32F7xx_HAL_Driver/Src/stm32f7xx_ll_usb.c ****   * @param  USBx  Selected device
 497:Drivers/STM32F7xx_HAL_Driver/Src/stm32f7xx_ll_usb.c ****   * @retval HAL status
 498:Drivers/STM32F7xx_HAL_Driver/Src/stm32f7xx_ll_usb.c ****   */
 499:Drivers/STM32F7xx_HAL_Driver/Src/stm32f7xx_ll_usb.c **** HAL_StatusTypeDef USB_FlushRxFifo(USB_OTG_GlobalTypeDef *USBx)
 500:Drivers/STM32F7xx_HAL_Driver/Src/stm32f7xx_ll_usb.c **** {
 501:Drivers/STM32F7xx_HAL_Driver/Src/stm32f7xx_ll_usb.c ****   uint32_t count = 0;
 502:Drivers/STM32F7xx_HAL_Driver/Src/stm32f7xx_ll_usb.c **** 
 503:Drivers/STM32F7xx_HAL_Driver/Src/stm32f7xx_ll_usb.c ****   USBx->GRSTCTL = USB_OTG_GRSTCTL_RXFFLSH;
 504:Drivers/STM32F7xx_HAL_Driver/Src/stm32f7xx_ll_usb.c **** 
 505:Drivers/STM32F7xx_HAL_Driver/Src/stm32f7xx_ll_usb.c ****   do
 506:Drivers/STM32F7xx_HAL_Driver/Src/stm32f7xx_ll_usb.c ****   {
 507:Drivers/STM32F7xx_HAL_Driver/Src/stm32f7xx_ll_usb.c ****     if (++count > 200000U)
 508:Drivers/STM32F7xx_HAL_Driver/Src/stm32f7xx_ll_usb.c ****     {
 509:Drivers/STM32F7xx_HAL_Driver/Src/stm32f7xx_ll_usb.c ****       return HAL_TIMEOUT;
 510:Drivers/STM32F7xx_HAL_Driver/Src/stm32f7xx_ll_usb.c ****     }
 511:Drivers/STM32F7xx_HAL_Driver/Src/stm32f7xx_ll_usb.c ****   }
 512:Drivers/STM32F7xx_HAL_Driver/Src/stm32f7xx_ll_usb.c ****   while ((USBx->GRSTCTL & USB_OTG_GRSTCTL_RXFFLSH) == USB_OTG_GRSTCTL_RXFFLSH);
 513:Drivers/STM32F7xx_HAL_Driver/Src/stm32f7xx_ll_usb.c **** 
 514:Drivers/STM32F7xx_HAL_Driver/Src/stm32f7xx_ll_usb.c ****   return HAL_OK;
 515:Drivers/STM32F7xx_HAL_Driver/Src/stm32f7xx_ll_usb.c **** }
 516:Drivers/STM32F7xx_HAL_Driver/Src/stm32f7xx_ll_usb.c **** 
 517:Drivers/STM32F7xx_HAL_Driver/Src/stm32f7xx_ll_usb.c **** /**
 518:Drivers/STM32F7xx_HAL_Driver/Src/stm32f7xx_ll_usb.c ****   * @brief  USB_SetDevSpeed  Initializes the DevSpd field of DCFG register
 519:Drivers/STM32F7xx_HAL_Driver/Src/stm32f7xx_ll_usb.c ****   *         depending the PHY type and the enumeration speed of the device.
 520:Drivers/STM32F7xx_HAL_Driver/Src/stm32f7xx_ll_usb.c ****   * @param  USBx  Selected device
 521:Drivers/STM32F7xx_HAL_Driver/Src/stm32f7xx_ll_usb.c ****   * @param  speed  device speed
 522:Drivers/STM32F7xx_HAL_Driver/Src/stm32f7xx_ll_usb.c ****   *          This parameter can be one of these values:
 523:Drivers/STM32F7xx_HAL_Driver/Src/stm32f7xx_ll_usb.c ****   *            @arg USB_OTG_SPEED_HIGH: High speed mode
 524:Drivers/STM32F7xx_HAL_Driver/Src/stm32f7xx_ll_usb.c ****   *            @arg USB_OTG_SPEED_HIGH_IN_FULL: High speed core in Full Speed mode
 525:Drivers/STM32F7xx_HAL_Driver/Src/stm32f7xx_ll_usb.c ****   *            @arg USB_OTG_SPEED_FULL: Full speed mode
 526:Drivers/STM32F7xx_HAL_Driver/Src/stm32f7xx_ll_usb.c ****   * @retval  Hal status
 527:Drivers/STM32F7xx_HAL_Driver/Src/stm32f7xx_ll_usb.c ****   */
 528:Drivers/STM32F7xx_HAL_Driver/Src/stm32f7xx_ll_usb.c **** HAL_StatusTypeDef USB_SetDevSpeed(USB_OTG_GlobalTypeDef *USBx, uint8_t speed)
 529:Drivers/STM32F7xx_HAL_Driver/Src/stm32f7xx_ll_usb.c **** {
 530:Drivers/STM32F7xx_HAL_Driver/Src/stm32f7xx_ll_usb.c ****   uint32_t USBx_BASE = (uint32_t)USBx;
 531:Drivers/STM32F7xx_HAL_Driver/Src/stm32f7xx_ll_usb.c **** 
 532:Drivers/STM32F7xx_HAL_Driver/Src/stm32f7xx_ll_usb.c ****   USBx_DEVICE->DCFG |= speed;
 533:Drivers/STM32F7xx_HAL_Driver/Src/stm32f7xx_ll_usb.c ****   return HAL_OK;
 534:Drivers/STM32F7xx_HAL_Driver/Src/stm32f7xx_ll_usb.c **** }
 535:Drivers/STM32F7xx_HAL_Driver/Src/stm32f7xx_ll_usb.c **** 
 536:Drivers/STM32F7xx_HAL_Driver/Src/stm32f7xx_ll_usb.c **** /**
 537:Drivers/STM32F7xx_HAL_Driver/Src/stm32f7xx_ll_usb.c ****   * @brief  USB_GetDevSpeed  Return the Dev Speed
 538:Drivers/STM32F7xx_HAL_Driver/Src/stm32f7xx_ll_usb.c ****   * @param  USBx  Selected device
 539:Drivers/STM32F7xx_HAL_Driver/Src/stm32f7xx_ll_usb.c ****   * @retval speed  device speed
 540:Drivers/STM32F7xx_HAL_Driver/Src/stm32f7xx_ll_usb.c ****   *          This parameter can be one of these values:
 541:Drivers/STM32F7xx_HAL_Driver/Src/stm32f7xx_ll_usb.c ****   *            @arg PCD_SPEED_HIGH: High speed mode
 542:Drivers/STM32F7xx_HAL_Driver/Src/stm32f7xx_ll_usb.c ****   *            @arg PCD_SPEED_FULL: Full speed mode
 543:Drivers/STM32F7xx_HAL_Driver/Src/stm32f7xx_ll_usb.c ****   */
 544:Drivers/STM32F7xx_HAL_Driver/Src/stm32f7xx_ll_usb.c **** uint8_t USB_GetDevSpeed(USB_OTG_GlobalTypeDef *USBx)
ARM GAS  /tmp/cc8xco1Q.s 			page 11


 545:Drivers/STM32F7xx_HAL_Driver/Src/stm32f7xx_ll_usb.c **** {
 546:Drivers/STM32F7xx_HAL_Driver/Src/stm32f7xx_ll_usb.c ****   uint32_t USBx_BASE = (uint32_t)USBx;
 547:Drivers/STM32F7xx_HAL_Driver/Src/stm32f7xx_ll_usb.c ****   uint8_t speed;
 548:Drivers/STM32F7xx_HAL_Driver/Src/stm32f7xx_ll_usb.c ****   uint32_t DevEnumSpeed = USBx_DEVICE->DSTS & USB_OTG_DSTS_ENUMSPD;
 549:Drivers/STM32F7xx_HAL_Driver/Src/stm32f7xx_ll_usb.c **** 
 550:Drivers/STM32F7xx_HAL_Driver/Src/stm32f7xx_ll_usb.c ****   if (DevEnumSpeed == DSTS_ENUMSPD_HS_PHY_30MHZ_OR_60MHZ)
 551:Drivers/STM32F7xx_HAL_Driver/Src/stm32f7xx_ll_usb.c ****   {
 552:Drivers/STM32F7xx_HAL_Driver/Src/stm32f7xx_ll_usb.c ****     speed = USBD_HS_SPEED;
 553:Drivers/STM32F7xx_HAL_Driver/Src/stm32f7xx_ll_usb.c ****   }
 554:Drivers/STM32F7xx_HAL_Driver/Src/stm32f7xx_ll_usb.c ****   else if ((DevEnumSpeed == DSTS_ENUMSPD_FS_PHY_30MHZ_OR_60MHZ) ||
 555:Drivers/STM32F7xx_HAL_Driver/Src/stm32f7xx_ll_usb.c ****            (DevEnumSpeed == DSTS_ENUMSPD_FS_PHY_48MHZ))
 556:Drivers/STM32F7xx_HAL_Driver/Src/stm32f7xx_ll_usb.c ****   {
 557:Drivers/STM32F7xx_HAL_Driver/Src/stm32f7xx_ll_usb.c ****     speed = USBD_FS_SPEED;
 558:Drivers/STM32F7xx_HAL_Driver/Src/stm32f7xx_ll_usb.c ****   }
 559:Drivers/STM32F7xx_HAL_Driver/Src/stm32f7xx_ll_usb.c ****   else
 560:Drivers/STM32F7xx_HAL_Driver/Src/stm32f7xx_ll_usb.c ****   {
 561:Drivers/STM32F7xx_HAL_Driver/Src/stm32f7xx_ll_usb.c ****     speed = 0xFU;
 562:Drivers/STM32F7xx_HAL_Driver/Src/stm32f7xx_ll_usb.c ****   }
 563:Drivers/STM32F7xx_HAL_Driver/Src/stm32f7xx_ll_usb.c **** 
 564:Drivers/STM32F7xx_HAL_Driver/Src/stm32f7xx_ll_usb.c ****   return speed;
 565:Drivers/STM32F7xx_HAL_Driver/Src/stm32f7xx_ll_usb.c **** }
 566:Drivers/STM32F7xx_HAL_Driver/Src/stm32f7xx_ll_usb.c **** 
 567:Drivers/STM32F7xx_HAL_Driver/Src/stm32f7xx_ll_usb.c **** /**
 568:Drivers/STM32F7xx_HAL_Driver/Src/stm32f7xx_ll_usb.c ****   * @brief  Activate and configure an endpoint
 569:Drivers/STM32F7xx_HAL_Driver/Src/stm32f7xx_ll_usb.c ****   * @param  USBx  Selected device
 570:Drivers/STM32F7xx_HAL_Driver/Src/stm32f7xx_ll_usb.c ****   * @param  ep pointer to endpoint structure
 571:Drivers/STM32F7xx_HAL_Driver/Src/stm32f7xx_ll_usb.c ****   * @retval HAL status
 572:Drivers/STM32F7xx_HAL_Driver/Src/stm32f7xx_ll_usb.c ****   */
 573:Drivers/STM32F7xx_HAL_Driver/Src/stm32f7xx_ll_usb.c **** HAL_StatusTypeDef USB_ActivateEndpoint(USB_OTG_GlobalTypeDef *USBx, USB_OTG_EPTypeDef *ep)
 574:Drivers/STM32F7xx_HAL_Driver/Src/stm32f7xx_ll_usb.c **** {
 575:Drivers/STM32F7xx_HAL_Driver/Src/stm32f7xx_ll_usb.c ****   uint32_t USBx_BASE = (uint32_t)USBx;
 576:Drivers/STM32F7xx_HAL_Driver/Src/stm32f7xx_ll_usb.c ****   uint32_t epnum = (uint32_t)ep->num;
 577:Drivers/STM32F7xx_HAL_Driver/Src/stm32f7xx_ll_usb.c **** 
 578:Drivers/STM32F7xx_HAL_Driver/Src/stm32f7xx_ll_usb.c ****   if (ep->is_in == 1U)
 579:Drivers/STM32F7xx_HAL_Driver/Src/stm32f7xx_ll_usb.c ****   {
 580:Drivers/STM32F7xx_HAL_Driver/Src/stm32f7xx_ll_usb.c ****     USBx_DEVICE->DAINTMSK |= USB_OTG_DAINTMSK_IEPM & (uint32_t)(1UL << (ep->num & EP_ADDR_MSK));
 581:Drivers/STM32F7xx_HAL_Driver/Src/stm32f7xx_ll_usb.c **** 
 582:Drivers/STM32F7xx_HAL_Driver/Src/stm32f7xx_ll_usb.c ****     if ((USBx_INEP(epnum)->DIEPCTL & USB_OTG_DIEPCTL_USBAEP) == 0U)
 583:Drivers/STM32F7xx_HAL_Driver/Src/stm32f7xx_ll_usb.c ****     {
 584:Drivers/STM32F7xx_HAL_Driver/Src/stm32f7xx_ll_usb.c ****       USBx_INEP(epnum)->DIEPCTL |= (ep->maxpacket & USB_OTG_DIEPCTL_MPSIZ) |
 585:Drivers/STM32F7xx_HAL_Driver/Src/stm32f7xx_ll_usb.c ****                                    ((uint32_t)ep->type << 18) | (epnum << 22) |
 586:Drivers/STM32F7xx_HAL_Driver/Src/stm32f7xx_ll_usb.c ****                                    USB_OTG_DIEPCTL_SD0PID_SEVNFRM |
 587:Drivers/STM32F7xx_HAL_Driver/Src/stm32f7xx_ll_usb.c ****                                    USB_OTG_DIEPCTL_USBAEP;
 588:Drivers/STM32F7xx_HAL_Driver/Src/stm32f7xx_ll_usb.c ****     }
 589:Drivers/STM32F7xx_HAL_Driver/Src/stm32f7xx_ll_usb.c ****   }
 590:Drivers/STM32F7xx_HAL_Driver/Src/stm32f7xx_ll_usb.c ****   else
 591:Drivers/STM32F7xx_HAL_Driver/Src/stm32f7xx_ll_usb.c ****   {
 592:Drivers/STM32F7xx_HAL_Driver/Src/stm32f7xx_ll_usb.c ****     USBx_DEVICE->DAINTMSK |= USB_OTG_DAINTMSK_OEPM & ((uint32_t)(1UL << (ep->num & EP_ADDR_MSK)) <<
 593:Drivers/STM32F7xx_HAL_Driver/Src/stm32f7xx_ll_usb.c **** 
 594:Drivers/STM32F7xx_HAL_Driver/Src/stm32f7xx_ll_usb.c ****     if (((USBx_OUTEP(epnum)->DOEPCTL) & USB_OTG_DOEPCTL_USBAEP) == 0U)
 595:Drivers/STM32F7xx_HAL_Driver/Src/stm32f7xx_ll_usb.c ****     {
 596:Drivers/STM32F7xx_HAL_Driver/Src/stm32f7xx_ll_usb.c ****       USBx_OUTEP(epnum)->DOEPCTL |= (ep->maxpacket & USB_OTG_DOEPCTL_MPSIZ) |
 597:Drivers/STM32F7xx_HAL_Driver/Src/stm32f7xx_ll_usb.c ****                                     ((uint32_t)ep->type << 18) |
 598:Drivers/STM32F7xx_HAL_Driver/Src/stm32f7xx_ll_usb.c ****                                     USB_OTG_DIEPCTL_SD0PID_SEVNFRM |
 599:Drivers/STM32F7xx_HAL_Driver/Src/stm32f7xx_ll_usb.c ****                                     USB_OTG_DOEPCTL_USBAEP;
 600:Drivers/STM32F7xx_HAL_Driver/Src/stm32f7xx_ll_usb.c ****     }
 601:Drivers/STM32F7xx_HAL_Driver/Src/stm32f7xx_ll_usb.c ****   }
ARM GAS  /tmp/cc8xco1Q.s 			page 12


 602:Drivers/STM32F7xx_HAL_Driver/Src/stm32f7xx_ll_usb.c ****   return HAL_OK;
 603:Drivers/STM32F7xx_HAL_Driver/Src/stm32f7xx_ll_usb.c **** }
 604:Drivers/STM32F7xx_HAL_Driver/Src/stm32f7xx_ll_usb.c **** 
 605:Drivers/STM32F7xx_HAL_Driver/Src/stm32f7xx_ll_usb.c **** /**
 606:Drivers/STM32F7xx_HAL_Driver/Src/stm32f7xx_ll_usb.c ****   * @brief  Activate and configure a dedicated endpoint
 607:Drivers/STM32F7xx_HAL_Driver/Src/stm32f7xx_ll_usb.c ****   * @param  USBx  Selected device
 608:Drivers/STM32F7xx_HAL_Driver/Src/stm32f7xx_ll_usb.c ****   * @param  ep pointer to endpoint structure
 609:Drivers/STM32F7xx_HAL_Driver/Src/stm32f7xx_ll_usb.c ****   * @retval HAL status
 610:Drivers/STM32F7xx_HAL_Driver/Src/stm32f7xx_ll_usb.c ****   */
 611:Drivers/STM32F7xx_HAL_Driver/Src/stm32f7xx_ll_usb.c **** HAL_StatusTypeDef USB_ActivateDedicatedEndpoint(USB_OTG_GlobalTypeDef *USBx, USB_OTG_EPTypeDef *ep)
 612:Drivers/STM32F7xx_HAL_Driver/Src/stm32f7xx_ll_usb.c **** {
 613:Drivers/STM32F7xx_HAL_Driver/Src/stm32f7xx_ll_usb.c ****   uint32_t USBx_BASE = (uint32_t)USBx;
 614:Drivers/STM32F7xx_HAL_Driver/Src/stm32f7xx_ll_usb.c ****   uint32_t epnum = (uint32_t)ep->num;
 615:Drivers/STM32F7xx_HAL_Driver/Src/stm32f7xx_ll_usb.c **** 
 616:Drivers/STM32F7xx_HAL_Driver/Src/stm32f7xx_ll_usb.c ****   /* Read DEPCTLn register */
 617:Drivers/STM32F7xx_HAL_Driver/Src/stm32f7xx_ll_usb.c ****   if (ep->is_in == 1U)
 618:Drivers/STM32F7xx_HAL_Driver/Src/stm32f7xx_ll_usb.c ****   {
 619:Drivers/STM32F7xx_HAL_Driver/Src/stm32f7xx_ll_usb.c ****     if (((USBx_INEP(epnum)->DIEPCTL) & USB_OTG_DIEPCTL_USBAEP) == 0U)
 620:Drivers/STM32F7xx_HAL_Driver/Src/stm32f7xx_ll_usb.c ****     {
 621:Drivers/STM32F7xx_HAL_Driver/Src/stm32f7xx_ll_usb.c ****       USBx_INEP(epnum)->DIEPCTL |= (ep->maxpacket & USB_OTG_DIEPCTL_MPSIZ) |
 622:Drivers/STM32F7xx_HAL_Driver/Src/stm32f7xx_ll_usb.c ****                                    ((uint32_t)ep->type << 18) | (epnum << 22) |
 623:Drivers/STM32F7xx_HAL_Driver/Src/stm32f7xx_ll_usb.c ****                                    USB_OTG_DIEPCTL_SD0PID_SEVNFRM |
 624:Drivers/STM32F7xx_HAL_Driver/Src/stm32f7xx_ll_usb.c ****                                    USB_OTG_DIEPCTL_USBAEP;
 625:Drivers/STM32F7xx_HAL_Driver/Src/stm32f7xx_ll_usb.c ****     }
 626:Drivers/STM32F7xx_HAL_Driver/Src/stm32f7xx_ll_usb.c **** 
 627:Drivers/STM32F7xx_HAL_Driver/Src/stm32f7xx_ll_usb.c ****     USBx_DEVICE->DEACHMSK |= USB_OTG_DAINTMSK_IEPM & (uint32_t)(1UL << (ep->num & EP_ADDR_MSK));
 628:Drivers/STM32F7xx_HAL_Driver/Src/stm32f7xx_ll_usb.c ****   }
 629:Drivers/STM32F7xx_HAL_Driver/Src/stm32f7xx_ll_usb.c ****   else
 630:Drivers/STM32F7xx_HAL_Driver/Src/stm32f7xx_ll_usb.c ****   {
 631:Drivers/STM32F7xx_HAL_Driver/Src/stm32f7xx_ll_usb.c ****     if (((USBx_OUTEP(epnum)->DOEPCTL) & USB_OTG_DOEPCTL_USBAEP) == 0U)
 632:Drivers/STM32F7xx_HAL_Driver/Src/stm32f7xx_ll_usb.c ****     {
 633:Drivers/STM32F7xx_HAL_Driver/Src/stm32f7xx_ll_usb.c ****       USBx_OUTEP(epnum)->DOEPCTL |= (ep->maxpacket & USB_OTG_DOEPCTL_MPSIZ) |
 634:Drivers/STM32F7xx_HAL_Driver/Src/stm32f7xx_ll_usb.c ****                                     ((uint32_t)ep->type << 18) | (epnum << 22) |
 635:Drivers/STM32F7xx_HAL_Driver/Src/stm32f7xx_ll_usb.c ****                                     USB_OTG_DOEPCTL_USBAEP;
 636:Drivers/STM32F7xx_HAL_Driver/Src/stm32f7xx_ll_usb.c ****     }
 637:Drivers/STM32F7xx_HAL_Driver/Src/stm32f7xx_ll_usb.c **** 
 638:Drivers/STM32F7xx_HAL_Driver/Src/stm32f7xx_ll_usb.c ****     USBx_DEVICE->DEACHMSK |= USB_OTG_DAINTMSK_OEPM & ((uint32_t)(1UL << (ep->num & EP_ADDR_MSK)) <<
 639:Drivers/STM32F7xx_HAL_Driver/Src/stm32f7xx_ll_usb.c ****   }
 640:Drivers/STM32F7xx_HAL_Driver/Src/stm32f7xx_ll_usb.c **** 
 641:Drivers/STM32F7xx_HAL_Driver/Src/stm32f7xx_ll_usb.c ****   return HAL_OK;
 642:Drivers/STM32F7xx_HAL_Driver/Src/stm32f7xx_ll_usb.c **** }
 643:Drivers/STM32F7xx_HAL_Driver/Src/stm32f7xx_ll_usb.c **** 
 644:Drivers/STM32F7xx_HAL_Driver/Src/stm32f7xx_ll_usb.c **** /**
 645:Drivers/STM32F7xx_HAL_Driver/Src/stm32f7xx_ll_usb.c ****   * @brief  De-activate and de-initialize an endpoint
 646:Drivers/STM32F7xx_HAL_Driver/Src/stm32f7xx_ll_usb.c ****   * @param  USBx  Selected device
 647:Drivers/STM32F7xx_HAL_Driver/Src/stm32f7xx_ll_usb.c ****   * @param  ep pointer to endpoint structure
 648:Drivers/STM32F7xx_HAL_Driver/Src/stm32f7xx_ll_usb.c ****   * @retval HAL status
 649:Drivers/STM32F7xx_HAL_Driver/Src/stm32f7xx_ll_usb.c ****   */
 650:Drivers/STM32F7xx_HAL_Driver/Src/stm32f7xx_ll_usb.c **** HAL_StatusTypeDef USB_DeactivateEndpoint(USB_OTG_GlobalTypeDef *USBx, USB_OTG_EPTypeDef *ep)
 651:Drivers/STM32F7xx_HAL_Driver/Src/stm32f7xx_ll_usb.c **** {
 652:Drivers/STM32F7xx_HAL_Driver/Src/stm32f7xx_ll_usb.c ****   uint32_t USBx_BASE = (uint32_t)USBx;
 653:Drivers/STM32F7xx_HAL_Driver/Src/stm32f7xx_ll_usb.c ****   uint32_t epnum = (uint32_t)ep->num;
 654:Drivers/STM32F7xx_HAL_Driver/Src/stm32f7xx_ll_usb.c **** 
 655:Drivers/STM32F7xx_HAL_Driver/Src/stm32f7xx_ll_usb.c ****   /* Read DEPCTLn register */
 656:Drivers/STM32F7xx_HAL_Driver/Src/stm32f7xx_ll_usb.c ****   if (ep->is_in == 1U)
 657:Drivers/STM32F7xx_HAL_Driver/Src/stm32f7xx_ll_usb.c ****   {
 658:Drivers/STM32F7xx_HAL_Driver/Src/stm32f7xx_ll_usb.c ****     if ((USBx_INEP(epnum)->DIEPCTL & USB_OTG_DIEPCTL_EPENA) == USB_OTG_DIEPCTL_EPENA)
ARM GAS  /tmp/cc8xco1Q.s 			page 13


 659:Drivers/STM32F7xx_HAL_Driver/Src/stm32f7xx_ll_usb.c ****     {
 660:Drivers/STM32F7xx_HAL_Driver/Src/stm32f7xx_ll_usb.c ****       USBx_INEP(epnum)->DIEPCTL |= USB_OTG_DIEPCTL_SNAK;
 661:Drivers/STM32F7xx_HAL_Driver/Src/stm32f7xx_ll_usb.c ****       USBx_INEP(epnum)->DIEPCTL |= USB_OTG_DIEPCTL_EPDIS;
 662:Drivers/STM32F7xx_HAL_Driver/Src/stm32f7xx_ll_usb.c ****     }
 663:Drivers/STM32F7xx_HAL_Driver/Src/stm32f7xx_ll_usb.c **** 
 664:Drivers/STM32F7xx_HAL_Driver/Src/stm32f7xx_ll_usb.c ****     USBx_DEVICE->DEACHMSK &= ~(USB_OTG_DAINTMSK_IEPM & (uint32_t)(1UL << (ep->num & EP_ADDR_MSK)));
 665:Drivers/STM32F7xx_HAL_Driver/Src/stm32f7xx_ll_usb.c ****     USBx_DEVICE->DAINTMSK &= ~(USB_OTG_DAINTMSK_IEPM & (uint32_t)(1UL << (ep->num & EP_ADDR_MSK)));
 666:Drivers/STM32F7xx_HAL_Driver/Src/stm32f7xx_ll_usb.c ****     USBx_INEP(epnum)->DIEPCTL &= ~(USB_OTG_DIEPCTL_USBAEP |
 667:Drivers/STM32F7xx_HAL_Driver/Src/stm32f7xx_ll_usb.c ****                                    USB_OTG_DIEPCTL_MPSIZ |
 668:Drivers/STM32F7xx_HAL_Driver/Src/stm32f7xx_ll_usb.c ****                                    USB_OTG_DIEPCTL_TXFNUM |
 669:Drivers/STM32F7xx_HAL_Driver/Src/stm32f7xx_ll_usb.c ****                                    USB_OTG_DIEPCTL_SD0PID_SEVNFRM |
 670:Drivers/STM32F7xx_HAL_Driver/Src/stm32f7xx_ll_usb.c ****                                    USB_OTG_DIEPCTL_EPTYP);
 671:Drivers/STM32F7xx_HAL_Driver/Src/stm32f7xx_ll_usb.c ****   }
 672:Drivers/STM32F7xx_HAL_Driver/Src/stm32f7xx_ll_usb.c ****   else
 673:Drivers/STM32F7xx_HAL_Driver/Src/stm32f7xx_ll_usb.c ****   {
 674:Drivers/STM32F7xx_HAL_Driver/Src/stm32f7xx_ll_usb.c ****     if ((USBx_OUTEP(epnum)->DOEPCTL & USB_OTG_DOEPCTL_EPENA) == USB_OTG_DOEPCTL_EPENA)
 675:Drivers/STM32F7xx_HAL_Driver/Src/stm32f7xx_ll_usb.c ****     {
 676:Drivers/STM32F7xx_HAL_Driver/Src/stm32f7xx_ll_usb.c ****       USBx_OUTEP(epnum)->DOEPCTL |= USB_OTG_DOEPCTL_SNAK;
 677:Drivers/STM32F7xx_HAL_Driver/Src/stm32f7xx_ll_usb.c ****       USBx_OUTEP(epnum)->DOEPCTL |= USB_OTG_DOEPCTL_EPDIS;
 678:Drivers/STM32F7xx_HAL_Driver/Src/stm32f7xx_ll_usb.c ****     }
 679:Drivers/STM32F7xx_HAL_Driver/Src/stm32f7xx_ll_usb.c **** 
 680:Drivers/STM32F7xx_HAL_Driver/Src/stm32f7xx_ll_usb.c ****     USBx_DEVICE->DEACHMSK &= ~(USB_OTG_DAINTMSK_OEPM & ((uint32_t)(1UL << (ep->num & EP_ADDR_MSK)) 
 681:Drivers/STM32F7xx_HAL_Driver/Src/stm32f7xx_ll_usb.c ****     USBx_DEVICE->DAINTMSK &= ~(USB_OTG_DAINTMSK_OEPM & ((uint32_t)(1UL << (ep->num & EP_ADDR_MSK)) 
 682:Drivers/STM32F7xx_HAL_Driver/Src/stm32f7xx_ll_usb.c ****     USBx_OUTEP(epnum)->DOEPCTL &= ~(USB_OTG_DOEPCTL_USBAEP |
 683:Drivers/STM32F7xx_HAL_Driver/Src/stm32f7xx_ll_usb.c ****                                     USB_OTG_DOEPCTL_MPSIZ |
 684:Drivers/STM32F7xx_HAL_Driver/Src/stm32f7xx_ll_usb.c ****                                     USB_OTG_DOEPCTL_SD0PID_SEVNFRM |
 685:Drivers/STM32F7xx_HAL_Driver/Src/stm32f7xx_ll_usb.c ****                                     USB_OTG_DOEPCTL_EPTYP);
 686:Drivers/STM32F7xx_HAL_Driver/Src/stm32f7xx_ll_usb.c ****   }
 687:Drivers/STM32F7xx_HAL_Driver/Src/stm32f7xx_ll_usb.c **** 
 688:Drivers/STM32F7xx_HAL_Driver/Src/stm32f7xx_ll_usb.c ****   return HAL_OK;
 689:Drivers/STM32F7xx_HAL_Driver/Src/stm32f7xx_ll_usb.c **** }
 690:Drivers/STM32F7xx_HAL_Driver/Src/stm32f7xx_ll_usb.c **** 
 691:Drivers/STM32F7xx_HAL_Driver/Src/stm32f7xx_ll_usb.c **** /**
 692:Drivers/STM32F7xx_HAL_Driver/Src/stm32f7xx_ll_usb.c ****   * @brief  De-activate and de-initialize a dedicated endpoint
 693:Drivers/STM32F7xx_HAL_Driver/Src/stm32f7xx_ll_usb.c ****   * @param  USBx  Selected device
 694:Drivers/STM32F7xx_HAL_Driver/Src/stm32f7xx_ll_usb.c ****   * @param  ep pointer to endpoint structure
 695:Drivers/STM32F7xx_HAL_Driver/Src/stm32f7xx_ll_usb.c ****   * @retval HAL status
 696:Drivers/STM32F7xx_HAL_Driver/Src/stm32f7xx_ll_usb.c ****   */
 697:Drivers/STM32F7xx_HAL_Driver/Src/stm32f7xx_ll_usb.c **** HAL_StatusTypeDef USB_DeactivateDedicatedEndpoint(USB_OTG_GlobalTypeDef *USBx, USB_OTG_EPTypeDef *e
 698:Drivers/STM32F7xx_HAL_Driver/Src/stm32f7xx_ll_usb.c **** {
 699:Drivers/STM32F7xx_HAL_Driver/Src/stm32f7xx_ll_usb.c ****   uint32_t USBx_BASE = (uint32_t)USBx;
 700:Drivers/STM32F7xx_HAL_Driver/Src/stm32f7xx_ll_usb.c ****   uint32_t epnum = (uint32_t)ep->num;
 701:Drivers/STM32F7xx_HAL_Driver/Src/stm32f7xx_ll_usb.c **** 
 702:Drivers/STM32F7xx_HAL_Driver/Src/stm32f7xx_ll_usb.c ****   /* Read DEPCTLn register */
 703:Drivers/STM32F7xx_HAL_Driver/Src/stm32f7xx_ll_usb.c ****   if (ep->is_in == 1U)
 704:Drivers/STM32F7xx_HAL_Driver/Src/stm32f7xx_ll_usb.c ****   {
 705:Drivers/STM32F7xx_HAL_Driver/Src/stm32f7xx_ll_usb.c ****     if ((USBx_INEP(epnum)->DIEPCTL & USB_OTG_DIEPCTL_EPENA) == USB_OTG_DIEPCTL_EPENA)
 706:Drivers/STM32F7xx_HAL_Driver/Src/stm32f7xx_ll_usb.c ****     {
 707:Drivers/STM32F7xx_HAL_Driver/Src/stm32f7xx_ll_usb.c ****       USBx_INEP(epnum)->DIEPCTL  |= USB_OTG_DIEPCTL_SNAK;
 708:Drivers/STM32F7xx_HAL_Driver/Src/stm32f7xx_ll_usb.c ****       USBx_INEP(epnum)->DIEPCTL  |= USB_OTG_DIEPCTL_EPDIS;
 709:Drivers/STM32F7xx_HAL_Driver/Src/stm32f7xx_ll_usb.c ****     }
 710:Drivers/STM32F7xx_HAL_Driver/Src/stm32f7xx_ll_usb.c **** 
 711:Drivers/STM32F7xx_HAL_Driver/Src/stm32f7xx_ll_usb.c ****     USBx_INEP(epnum)->DIEPCTL &= ~ USB_OTG_DIEPCTL_USBAEP;
 712:Drivers/STM32F7xx_HAL_Driver/Src/stm32f7xx_ll_usb.c ****     USBx_DEVICE->DAINTMSK &= ~(USB_OTG_DAINTMSK_IEPM & (uint32_t)(1UL << (ep->num & EP_ADDR_MSK)));
 713:Drivers/STM32F7xx_HAL_Driver/Src/stm32f7xx_ll_usb.c ****   }
 714:Drivers/STM32F7xx_HAL_Driver/Src/stm32f7xx_ll_usb.c ****   else
 715:Drivers/STM32F7xx_HAL_Driver/Src/stm32f7xx_ll_usb.c ****   {
ARM GAS  /tmp/cc8xco1Q.s 			page 14


 716:Drivers/STM32F7xx_HAL_Driver/Src/stm32f7xx_ll_usb.c ****     if ((USBx_OUTEP(epnum)->DOEPCTL & USB_OTG_DOEPCTL_EPENA) == USB_OTG_DOEPCTL_EPENA)
 717:Drivers/STM32F7xx_HAL_Driver/Src/stm32f7xx_ll_usb.c ****     {
 718:Drivers/STM32F7xx_HAL_Driver/Src/stm32f7xx_ll_usb.c ****       USBx_OUTEP(epnum)->DOEPCTL  |= USB_OTG_DOEPCTL_SNAK;
 719:Drivers/STM32F7xx_HAL_Driver/Src/stm32f7xx_ll_usb.c ****       USBx_OUTEP(epnum)->DOEPCTL  |= USB_OTG_DOEPCTL_EPDIS;
 720:Drivers/STM32F7xx_HAL_Driver/Src/stm32f7xx_ll_usb.c ****     }
 721:Drivers/STM32F7xx_HAL_Driver/Src/stm32f7xx_ll_usb.c **** 
 722:Drivers/STM32F7xx_HAL_Driver/Src/stm32f7xx_ll_usb.c ****     USBx_OUTEP(epnum)->DOEPCTL &= ~USB_OTG_DOEPCTL_USBAEP;
 723:Drivers/STM32F7xx_HAL_Driver/Src/stm32f7xx_ll_usb.c ****     USBx_DEVICE->DAINTMSK &= ~(USB_OTG_DAINTMSK_OEPM & ((uint32_t)(1UL << (ep->num & EP_ADDR_MSK)) 
 724:Drivers/STM32F7xx_HAL_Driver/Src/stm32f7xx_ll_usb.c ****   }
 725:Drivers/STM32F7xx_HAL_Driver/Src/stm32f7xx_ll_usb.c **** 
 726:Drivers/STM32F7xx_HAL_Driver/Src/stm32f7xx_ll_usb.c ****   return HAL_OK;
 727:Drivers/STM32F7xx_HAL_Driver/Src/stm32f7xx_ll_usb.c **** }
 728:Drivers/STM32F7xx_HAL_Driver/Src/stm32f7xx_ll_usb.c **** 
 729:Drivers/STM32F7xx_HAL_Driver/Src/stm32f7xx_ll_usb.c **** /**
 730:Drivers/STM32F7xx_HAL_Driver/Src/stm32f7xx_ll_usb.c ****   * @brief  USB_EPStartXfer : setup and starts a transfer over an EP
 731:Drivers/STM32F7xx_HAL_Driver/Src/stm32f7xx_ll_usb.c ****   * @param  USBx  Selected device
 732:Drivers/STM32F7xx_HAL_Driver/Src/stm32f7xx_ll_usb.c ****   * @param  ep pointer to endpoint structure
 733:Drivers/STM32F7xx_HAL_Driver/Src/stm32f7xx_ll_usb.c ****   * @param  dma USB dma enabled or disabled
 734:Drivers/STM32F7xx_HAL_Driver/Src/stm32f7xx_ll_usb.c ****   *          This parameter can be one of these values:
 735:Drivers/STM32F7xx_HAL_Driver/Src/stm32f7xx_ll_usb.c ****   *           0 : DMA feature not used
 736:Drivers/STM32F7xx_HAL_Driver/Src/stm32f7xx_ll_usb.c ****   *           1 : DMA feature used
 737:Drivers/STM32F7xx_HAL_Driver/Src/stm32f7xx_ll_usb.c ****   * @retval HAL status
 738:Drivers/STM32F7xx_HAL_Driver/Src/stm32f7xx_ll_usb.c ****   */
 739:Drivers/STM32F7xx_HAL_Driver/Src/stm32f7xx_ll_usb.c **** HAL_StatusTypeDef USB_EPStartXfer(USB_OTG_GlobalTypeDef *USBx, USB_OTG_EPTypeDef *ep, uint8_t dma)
 740:Drivers/STM32F7xx_HAL_Driver/Src/stm32f7xx_ll_usb.c **** {
 741:Drivers/STM32F7xx_HAL_Driver/Src/stm32f7xx_ll_usb.c ****   uint32_t USBx_BASE = (uint32_t)USBx;
 742:Drivers/STM32F7xx_HAL_Driver/Src/stm32f7xx_ll_usb.c ****   uint32_t epnum = (uint32_t)ep->num;
 743:Drivers/STM32F7xx_HAL_Driver/Src/stm32f7xx_ll_usb.c ****   uint16_t pktcnt;
 744:Drivers/STM32F7xx_HAL_Driver/Src/stm32f7xx_ll_usb.c **** 
 745:Drivers/STM32F7xx_HAL_Driver/Src/stm32f7xx_ll_usb.c ****   /* IN endpoint */
 746:Drivers/STM32F7xx_HAL_Driver/Src/stm32f7xx_ll_usb.c ****   if (ep->is_in == 1U)
 747:Drivers/STM32F7xx_HAL_Driver/Src/stm32f7xx_ll_usb.c ****   {
 748:Drivers/STM32F7xx_HAL_Driver/Src/stm32f7xx_ll_usb.c ****     /* Zero Length Packet? */
 749:Drivers/STM32F7xx_HAL_Driver/Src/stm32f7xx_ll_usb.c ****     if (ep->xfer_len == 0U)
 750:Drivers/STM32F7xx_HAL_Driver/Src/stm32f7xx_ll_usb.c ****     {
 751:Drivers/STM32F7xx_HAL_Driver/Src/stm32f7xx_ll_usb.c ****       USBx_INEP(epnum)->DIEPTSIZ &= ~(USB_OTG_DIEPTSIZ_PKTCNT);
 752:Drivers/STM32F7xx_HAL_Driver/Src/stm32f7xx_ll_usb.c ****       USBx_INEP(epnum)->DIEPTSIZ |= (USB_OTG_DIEPTSIZ_PKTCNT & (1U << 19));
 753:Drivers/STM32F7xx_HAL_Driver/Src/stm32f7xx_ll_usb.c ****       USBx_INEP(epnum)->DIEPTSIZ &= ~(USB_OTG_DIEPTSIZ_XFRSIZ);
 754:Drivers/STM32F7xx_HAL_Driver/Src/stm32f7xx_ll_usb.c ****     }
 755:Drivers/STM32F7xx_HAL_Driver/Src/stm32f7xx_ll_usb.c ****     else
 756:Drivers/STM32F7xx_HAL_Driver/Src/stm32f7xx_ll_usb.c ****     {
 757:Drivers/STM32F7xx_HAL_Driver/Src/stm32f7xx_ll_usb.c ****       /* Program the transfer size and packet count
 758:Drivers/STM32F7xx_HAL_Driver/Src/stm32f7xx_ll_usb.c ****       * as follows: xfersize = N * maxpacket +
 759:Drivers/STM32F7xx_HAL_Driver/Src/stm32f7xx_ll_usb.c ****       * short_packet pktcnt = N + (short_packet
 760:Drivers/STM32F7xx_HAL_Driver/Src/stm32f7xx_ll_usb.c ****       * exist ? 1 : 0)
 761:Drivers/STM32F7xx_HAL_Driver/Src/stm32f7xx_ll_usb.c ****       */
 762:Drivers/STM32F7xx_HAL_Driver/Src/stm32f7xx_ll_usb.c ****       USBx_INEP(epnum)->DIEPTSIZ &= ~(USB_OTG_DIEPTSIZ_XFRSIZ);
 763:Drivers/STM32F7xx_HAL_Driver/Src/stm32f7xx_ll_usb.c ****       USBx_INEP(epnum)->DIEPTSIZ &= ~(USB_OTG_DIEPTSIZ_PKTCNT);
 764:Drivers/STM32F7xx_HAL_Driver/Src/stm32f7xx_ll_usb.c ****       USBx_INEP(epnum)->DIEPTSIZ |= (USB_OTG_DIEPTSIZ_PKTCNT & (((ep->xfer_len + ep->maxpacket - 1U
 765:Drivers/STM32F7xx_HAL_Driver/Src/stm32f7xx_ll_usb.c ****       USBx_INEP(epnum)->DIEPTSIZ |= (USB_OTG_DIEPTSIZ_XFRSIZ & ep->xfer_len);
 766:Drivers/STM32F7xx_HAL_Driver/Src/stm32f7xx_ll_usb.c **** 
 767:Drivers/STM32F7xx_HAL_Driver/Src/stm32f7xx_ll_usb.c ****       if (ep->type == EP_TYPE_ISOC)
 768:Drivers/STM32F7xx_HAL_Driver/Src/stm32f7xx_ll_usb.c ****       {
 769:Drivers/STM32F7xx_HAL_Driver/Src/stm32f7xx_ll_usb.c ****         USBx_INEP(epnum)->DIEPTSIZ &= ~(USB_OTG_DIEPTSIZ_MULCNT);
 770:Drivers/STM32F7xx_HAL_Driver/Src/stm32f7xx_ll_usb.c ****         USBx_INEP(epnum)->DIEPTSIZ |= (USB_OTG_DIEPTSIZ_MULCNT & (1U << 29));
 771:Drivers/STM32F7xx_HAL_Driver/Src/stm32f7xx_ll_usb.c ****       }
 772:Drivers/STM32F7xx_HAL_Driver/Src/stm32f7xx_ll_usb.c ****     }
ARM GAS  /tmp/cc8xco1Q.s 			page 15


 773:Drivers/STM32F7xx_HAL_Driver/Src/stm32f7xx_ll_usb.c **** 
 774:Drivers/STM32F7xx_HAL_Driver/Src/stm32f7xx_ll_usb.c ****     if (dma == 1U)
 775:Drivers/STM32F7xx_HAL_Driver/Src/stm32f7xx_ll_usb.c ****     {
 776:Drivers/STM32F7xx_HAL_Driver/Src/stm32f7xx_ll_usb.c ****       if ((uint32_t)ep->dma_addr != 0U)
 777:Drivers/STM32F7xx_HAL_Driver/Src/stm32f7xx_ll_usb.c ****       {
 778:Drivers/STM32F7xx_HAL_Driver/Src/stm32f7xx_ll_usb.c ****         USBx_INEP(epnum)->DIEPDMA = (uint32_t)(ep->dma_addr);
 779:Drivers/STM32F7xx_HAL_Driver/Src/stm32f7xx_ll_usb.c ****       }
 780:Drivers/STM32F7xx_HAL_Driver/Src/stm32f7xx_ll_usb.c **** 
 781:Drivers/STM32F7xx_HAL_Driver/Src/stm32f7xx_ll_usb.c ****       if (ep->type == EP_TYPE_ISOC)
 782:Drivers/STM32F7xx_HAL_Driver/Src/stm32f7xx_ll_usb.c ****       {
 783:Drivers/STM32F7xx_HAL_Driver/Src/stm32f7xx_ll_usb.c ****         if ((USBx_DEVICE->DSTS & (1U << 8)) == 0U)
 784:Drivers/STM32F7xx_HAL_Driver/Src/stm32f7xx_ll_usb.c ****         {
 785:Drivers/STM32F7xx_HAL_Driver/Src/stm32f7xx_ll_usb.c ****           USBx_INEP(epnum)->DIEPCTL |= USB_OTG_DIEPCTL_SODDFRM;
 786:Drivers/STM32F7xx_HAL_Driver/Src/stm32f7xx_ll_usb.c ****         }
 787:Drivers/STM32F7xx_HAL_Driver/Src/stm32f7xx_ll_usb.c ****         else
 788:Drivers/STM32F7xx_HAL_Driver/Src/stm32f7xx_ll_usb.c ****         {
 789:Drivers/STM32F7xx_HAL_Driver/Src/stm32f7xx_ll_usb.c ****           USBx_INEP(epnum)->DIEPCTL |= USB_OTG_DIEPCTL_SD0PID_SEVNFRM;
 790:Drivers/STM32F7xx_HAL_Driver/Src/stm32f7xx_ll_usb.c ****         }
 791:Drivers/STM32F7xx_HAL_Driver/Src/stm32f7xx_ll_usb.c ****       }
 792:Drivers/STM32F7xx_HAL_Driver/Src/stm32f7xx_ll_usb.c **** 
 793:Drivers/STM32F7xx_HAL_Driver/Src/stm32f7xx_ll_usb.c ****       /* EP enable, IN data in FIFO */
 794:Drivers/STM32F7xx_HAL_Driver/Src/stm32f7xx_ll_usb.c ****       USBx_INEP(epnum)->DIEPCTL |= (USB_OTG_DIEPCTL_CNAK | USB_OTG_DIEPCTL_EPENA);
 795:Drivers/STM32F7xx_HAL_Driver/Src/stm32f7xx_ll_usb.c ****     }
 796:Drivers/STM32F7xx_HAL_Driver/Src/stm32f7xx_ll_usb.c ****     else
 797:Drivers/STM32F7xx_HAL_Driver/Src/stm32f7xx_ll_usb.c ****     {
 798:Drivers/STM32F7xx_HAL_Driver/Src/stm32f7xx_ll_usb.c ****       /* EP enable, IN data in FIFO */
 799:Drivers/STM32F7xx_HAL_Driver/Src/stm32f7xx_ll_usb.c ****       USBx_INEP(epnum)->DIEPCTL |= (USB_OTG_DIEPCTL_CNAK | USB_OTG_DIEPCTL_EPENA);
 800:Drivers/STM32F7xx_HAL_Driver/Src/stm32f7xx_ll_usb.c **** 
 801:Drivers/STM32F7xx_HAL_Driver/Src/stm32f7xx_ll_usb.c ****       if (ep->type != EP_TYPE_ISOC)
 802:Drivers/STM32F7xx_HAL_Driver/Src/stm32f7xx_ll_usb.c ****       {
 803:Drivers/STM32F7xx_HAL_Driver/Src/stm32f7xx_ll_usb.c ****         /* Enable the Tx FIFO Empty Interrupt for this EP */
 804:Drivers/STM32F7xx_HAL_Driver/Src/stm32f7xx_ll_usb.c ****         if (ep->xfer_len > 0U)
 805:Drivers/STM32F7xx_HAL_Driver/Src/stm32f7xx_ll_usb.c ****         {
 806:Drivers/STM32F7xx_HAL_Driver/Src/stm32f7xx_ll_usb.c ****           USBx_DEVICE->DIEPEMPMSK |= 1UL << (ep->num & EP_ADDR_MSK);
 807:Drivers/STM32F7xx_HAL_Driver/Src/stm32f7xx_ll_usb.c ****         }
 808:Drivers/STM32F7xx_HAL_Driver/Src/stm32f7xx_ll_usb.c ****       }
 809:Drivers/STM32F7xx_HAL_Driver/Src/stm32f7xx_ll_usb.c ****       else
 810:Drivers/STM32F7xx_HAL_Driver/Src/stm32f7xx_ll_usb.c ****       {
 811:Drivers/STM32F7xx_HAL_Driver/Src/stm32f7xx_ll_usb.c ****         if ((USBx_DEVICE->DSTS & (1U << 8)) == 0U)
 812:Drivers/STM32F7xx_HAL_Driver/Src/stm32f7xx_ll_usb.c ****         {
 813:Drivers/STM32F7xx_HAL_Driver/Src/stm32f7xx_ll_usb.c ****           USBx_INEP(epnum)->DIEPCTL |= USB_OTG_DIEPCTL_SODDFRM;
 814:Drivers/STM32F7xx_HAL_Driver/Src/stm32f7xx_ll_usb.c ****         }
 815:Drivers/STM32F7xx_HAL_Driver/Src/stm32f7xx_ll_usb.c ****         else
 816:Drivers/STM32F7xx_HAL_Driver/Src/stm32f7xx_ll_usb.c ****         {
 817:Drivers/STM32F7xx_HAL_Driver/Src/stm32f7xx_ll_usb.c ****           USBx_INEP(epnum)->DIEPCTL |= USB_OTG_DIEPCTL_SD0PID_SEVNFRM;
 818:Drivers/STM32F7xx_HAL_Driver/Src/stm32f7xx_ll_usb.c ****         }
 819:Drivers/STM32F7xx_HAL_Driver/Src/stm32f7xx_ll_usb.c **** 
 820:Drivers/STM32F7xx_HAL_Driver/Src/stm32f7xx_ll_usb.c ****         (void)USB_WritePacket(USBx, ep->xfer_buff, ep->num, (uint16_t)ep->xfer_len, dma);
 821:Drivers/STM32F7xx_HAL_Driver/Src/stm32f7xx_ll_usb.c ****       }
 822:Drivers/STM32F7xx_HAL_Driver/Src/stm32f7xx_ll_usb.c ****     }
 823:Drivers/STM32F7xx_HAL_Driver/Src/stm32f7xx_ll_usb.c ****   }
 824:Drivers/STM32F7xx_HAL_Driver/Src/stm32f7xx_ll_usb.c ****   else /* OUT endpoint */
 825:Drivers/STM32F7xx_HAL_Driver/Src/stm32f7xx_ll_usb.c ****   {
 826:Drivers/STM32F7xx_HAL_Driver/Src/stm32f7xx_ll_usb.c ****     /* Program the transfer size and packet count as follows:
 827:Drivers/STM32F7xx_HAL_Driver/Src/stm32f7xx_ll_usb.c ****     * pktcnt = N
 828:Drivers/STM32F7xx_HAL_Driver/Src/stm32f7xx_ll_usb.c ****     * xfersize = N * maxpacket
 829:Drivers/STM32F7xx_HAL_Driver/Src/stm32f7xx_ll_usb.c ****     */
ARM GAS  /tmp/cc8xco1Q.s 			page 16


 830:Drivers/STM32F7xx_HAL_Driver/Src/stm32f7xx_ll_usb.c ****     USBx_OUTEP(epnum)->DOEPTSIZ &= ~(USB_OTG_DOEPTSIZ_XFRSIZ);
 831:Drivers/STM32F7xx_HAL_Driver/Src/stm32f7xx_ll_usb.c ****     USBx_OUTEP(epnum)->DOEPTSIZ &= ~(USB_OTG_DOEPTSIZ_PKTCNT);
 832:Drivers/STM32F7xx_HAL_Driver/Src/stm32f7xx_ll_usb.c **** 
 833:Drivers/STM32F7xx_HAL_Driver/Src/stm32f7xx_ll_usb.c ****     if (ep->xfer_len == 0U)
 834:Drivers/STM32F7xx_HAL_Driver/Src/stm32f7xx_ll_usb.c ****     {
 835:Drivers/STM32F7xx_HAL_Driver/Src/stm32f7xx_ll_usb.c ****       USBx_OUTEP(epnum)->DOEPTSIZ |= (USB_OTG_DOEPTSIZ_XFRSIZ & ep->maxpacket);
 836:Drivers/STM32F7xx_HAL_Driver/Src/stm32f7xx_ll_usb.c ****       USBx_OUTEP(epnum)->DOEPTSIZ |= (USB_OTG_DOEPTSIZ_PKTCNT & (1U << 19));
 837:Drivers/STM32F7xx_HAL_Driver/Src/stm32f7xx_ll_usb.c ****     }
 838:Drivers/STM32F7xx_HAL_Driver/Src/stm32f7xx_ll_usb.c ****     else
 839:Drivers/STM32F7xx_HAL_Driver/Src/stm32f7xx_ll_usb.c ****     {
 840:Drivers/STM32F7xx_HAL_Driver/Src/stm32f7xx_ll_usb.c ****       pktcnt = (uint16_t)((ep->xfer_len + ep->maxpacket - 1U) / ep->maxpacket);
 841:Drivers/STM32F7xx_HAL_Driver/Src/stm32f7xx_ll_usb.c ****       USBx_OUTEP(epnum)->DOEPTSIZ |= USB_OTG_DOEPTSIZ_PKTCNT & ((uint32_t)pktcnt << 19);
 842:Drivers/STM32F7xx_HAL_Driver/Src/stm32f7xx_ll_usb.c ****       USBx_OUTEP(epnum)->DOEPTSIZ |= USB_OTG_DOEPTSIZ_XFRSIZ & (ep->maxpacket * pktcnt);
 843:Drivers/STM32F7xx_HAL_Driver/Src/stm32f7xx_ll_usb.c ****     }
 844:Drivers/STM32F7xx_HAL_Driver/Src/stm32f7xx_ll_usb.c **** 
 845:Drivers/STM32F7xx_HAL_Driver/Src/stm32f7xx_ll_usb.c ****     if (dma == 1U)
 846:Drivers/STM32F7xx_HAL_Driver/Src/stm32f7xx_ll_usb.c ****     {
 847:Drivers/STM32F7xx_HAL_Driver/Src/stm32f7xx_ll_usb.c ****       if ((uint32_t)ep->xfer_buff != 0U)
 848:Drivers/STM32F7xx_HAL_Driver/Src/stm32f7xx_ll_usb.c ****       {
 849:Drivers/STM32F7xx_HAL_Driver/Src/stm32f7xx_ll_usb.c ****         USBx_OUTEP(epnum)->DOEPDMA = (uint32_t)(ep->xfer_buff);
 850:Drivers/STM32F7xx_HAL_Driver/Src/stm32f7xx_ll_usb.c ****       }
 851:Drivers/STM32F7xx_HAL_Driver/Src/stm32f7xx_ll_usb.c ****     }
 852:Drivers/STM32F7xx_HAL_Driver/Src/stm32f7xx_ll_usb.c **** 
 853:Drivers/STM32F7xx_HAL_Driver/Src/stm32f7xx_ll_usb.c ****     if (ep->type == EP_TYPE_ISOC)
 854:Drivers/STM32F7xx_HAL_Driver/Src/stm32f7xx_ll_usb.c ****     {
 855:Drivers/STM32F7xx_HAL_Driver/Src/stm32f7xx_ll_usb.c ****       if ((USBx_DEVICE->DSTS & (1U << 8)) == 0U)
 856:Drivers/STM32F7xx_HAL_Driver/Src/stm32f7xx_ll_usb.c ****       {
 857:Drivers/STM32F7xx_HAL_Driver/Src/stm32f7xx_ll_usb.c ****         USBx_OUTEP(epnum)->DOEPCTL |= USB_OTG_DOEPCTL_SODDFRM;
 858:Drivers/STM32F7xx_HAL_Driver/Src/stm32f7xx_ll_usb.c ****       }
 859:Drivers/STM32F7xx_HAL_Driver/Src/stm32f7xx_ll_usb.c ****       else
 860:Drivers/STM32F7xx_HAL_Driver/Src/stm32f7xx_ll_usb.c ****       {
 861:Drivers/STM32F7xx_HAL_Driver/Src/stm32f7xx_ll_usb.c ****         USBx_OUTEP(epnum)->DOEPCTL |= USB_OTG_DOEPCTL_SD0PID_SEVNFRM;
 862:Drivers/STM32F7xx_HAL_Driver/Src/stm32f7xx_ll_usb.c ****       }
 863:Drivers/STM32F7xx_HAL_Driver/Src/stm32f7xx_ll_usb.c ****     }
 864:Drivers/STM32F7xx_HAL_Driver/Src/stm32f7xx_ll_usb.c ****     /* EP enable */
 865:Drivers/STM32F7xx_HAL_Driver/Src/stm32f7xx_ll_usb.c ****     USBx_OUTEP(epnum)->DOEPCTL |= (USB_OTG_DOEPCTL_CNAK | USB_OTG_DOEPCTL_EPENA);
 866:Drivers/STM32F7xx_HAL_Driver/Src/stm32f7xx_ll_usb.c ****   }
 867:Drivers/STM32F7xx_HAL_Driver/Src/stm32f7xx_ll_usb.c **** 
 868:Drivers/STM32F7xx_HAL_Driver/Src/stm32f7xx_ll_usb.c ****   return HAL_OK;
 869:Drivers/STM32F7xx_HAL_Driver/Src/stm32f7xx_ll_usb.c **** }
 870:Drivers/STM32F7xx_HAL_Driver/Src/stm32f7xx_ll_usb.c **** 
 871:Drivers/STM32F7xx_HAL_Driver/Src/stm32f7xx_ll_usb.c **** /**
 872:Drivers/STM32F7xx_HAL_Driver/Src/stm32f7xx_ll_usb.c ****   * @brief  USB_EP0StartXfer : setup and starts a transfer over the EP  0
 873:Drivers/STM32F7xx_HAL_Driver/Src/stm32f7xx_ll_usb.c ****   * @param  USBx  Selected device
 874:Drivers/STM32F7xx_HAL_Driver/Src/stm32f7xx_ll_usb.c ****   * @param  ep pointer to endpoint structure
 875:Drivers/STM32F7xx_HAL_Driver/Src/stm32f7xx_ll_usb.c ****   * @param  dma USB dma enabled or disabled
 876:Drivers/STM32F7xx_HAL_Driver/Src/stm32f7xx_ll_usb.c ****   *          This parameter can be one of these values:
 877:Drivers/STM32F7xx_HAL_Driver/Src/stm32f7xx_ll_usb.c ****   *           0 : DMA feature not used
 878:Drivers/STM32F7xx_HAL_Driver/Src/stm32f7xx_ll_usb.c ****   *           1 : DMA feature used
 879:Drivers/STM32F7xx_HAL_Driver/Src/stm32f7xx_ll_usb.c ****   * @retval HAL status
 880:Drivers/STM32F7xx_HAL_Driver/Src/stm32f7xx_ll_usb.c ****   */
 881:Drivers/STM32F7xx_HAL_Driver/Src/stm32f7xx_ll_usb.c **** HAL_StatusTypeDef USB_EP0StartXfer(USB_OTG_GlobalTypeDef *USBx, USB_OTG_EPTypeDef *ep, uint8_t dma)
 882:Drivers/STM32F7xx_HAL_Driver/Src/stm32f7xx_ll_usb.c **** {
 883:Drivers/STM32F7xx_HAL_Driver/Src/stm32f7xx_ll_usb.c ****   uint32_t USBx_BASE = (uint32_t)USBx;
 884:Drivers/STM32F7xx_HAL_Driver/Src/stm32f7xx_ll_usb.c ****   uint32_t epnum = (uint32_t)ep->num;
 885:Drivers/STM32F7xx_HAL_Driver/Src/stm32f7xx_ll_usb.c **** 
 886:Drivers/STM32F7xx_HAL_Driver/Src/stm32f7xx_ll_usb.c ****   /* IN endpoint */
ARM GAS  /tmp/cc8xco1Q.s 			page 17


 887:Drivers/STM32F7xx_HAL_Driver/Src/stm32f7xx_ll_usb.c ****   if (ep->is_in == 1U)
 888:Drivers/STM32F7xx_HAL_Driver/Src/stm32f7xx_ll_usb.c ****   {
 889:Drivers/STM32F7xx_HAL_Driver/Src/stm32f7xx_ll_usb.c ****     /* Zero Length Packet? */
 890:Drivers/STM32F7xx_HAL_Driver/Src/stm32f7xx_ll_usb.c ****     if (ep->xfer_len == 0U)
 891:Drivers/STM32F7xx_HAL_Driver/Src/stm32f7xx_ll_usb.c ****     {
 892:Drivers/STM32F7xx_HAL_Driver/Src/stm32f7xx_ll_usb.c ****       USBx_INEP(epnum)->DIEPTSIZ &= ~(USB_OTG_DIEPTSIZ_PKTCNT);
 893:Drivers/STM32F7xx_HAL_Driver/Src/stm32f7xx_ll_usb.c ****       USBx_INEP(epnum)->DIEPTSIZ |= (USB_OTG_DIEPTSIZ_PKTCNT & (1U << 19));
 894:Drivers/STM32F7xx_HAL_Driver/Src/stm32f7xx_ll_usb.c ****       USBx_INEP(epnum)->DIEPTSIZ &= ~(USB_OTG_DIEPTSIZ_XFRSIZ);
 895:Drivers/STM32F7xx_HAL_Driver/Src/stm32f7xx_ll_usb.c ****     }
 896:Drivers/STM32F7xx_HAL_Driver/Src/stm32f7xx_ll_usb.c ****     else
 897:Drivers/STM32F7xx_HAL_Driver/Src/stm32f7xx_ll_usb.c ****     {
 898:Drivers/STM32F7xx_HAL_Driver/Src/stm32f7xx_ll_usb.c ****       /* Program the transfer size and packet count
 899:Drivers/STM32F7xx_HAL_Driver/Src/stm32f7xx_ll_usb.c ****       * as follows: xfersize = N * maxpacket +
 900:Drivers/STM32F7xx_HAL_Driver/Src/stm32f7xx_ll_usb.c ****       * short_packet pktcnt = N + (short_packet
 901:Drivers/STM32F7xx_HAL_Driver/Src/stm32f7xx_ll_usb.c ****       * exist ? 1 : 0)
 902:Drivers/STM32F7xx_HAL_Driver/Src/stm32f7xx_ll_usb.c ****       */
 903:Drivers/STM32F7xx_HAL_Driver/Src/stm32f7xx_ll_usb.c ****       USBx_INEP(epnum)->DIEPTSIZ &= ~(USB_OTG_DIEPTSIZ_XFRSIZ);
 904:Drivers/STM32F7xx_HAL_Driver/Src/stm32f7xx_ll_usb.c ****       USBx_INEP(epnum)->DIEPTSIZ &= ~(USB_OTG_DIEPTSIZ_PKTCNT);
 905:Drivers/STM32F7xx_HAL_Driver/Src/stm32f7xx_ll_usb.c **** 
 906:Drivers/STM32F7xx_HAL_Driver/Src/stm32f7xx_ll_usb.c ****       if (ep->xfer_len > ep->maxpacket)
 907:Drivers/STM32F7xx_HAL_Driver/Src/stm32f7xx_ll_usb.c ****       {
 908:Drivers/STM32F7xx_HAL_Driver/Src/stm32f7xx_ll_usb.c ****         ep->xfer_len = ep->maxpacket;
 909:Drivers/STM32F7xx_HAL_Driver/Src/stm32f7xx_ll_usb.c ****       }
 910:Drivers/STM32F7xx_HAL_Driver/Src/stm32f7xx_ll_usb.c ****       USBx_INEP(epnum)->DIEPTSIZ |= (USB_OTG_DIEPTSIZ_PKTCNT & (1U << 19));
 911:Drivers/STM32F7xx_HAL_Driver/Src/stm32f7xx_ll_usb.c ****       USBx_INEP(epnum)->DIEPTSIZ |= (USB_OTG_DIEPTSIZ_XFRSIZ & ep->xfer_len);
 912:Drivers/STM32F7xx_HAL_Driver/Src/stm32f7xx_ll_usb.c ****     }
 913:Drivers/STM32F7xx_HAL_Driver/Src/stm32f7xx_ll_usb.c **** 
 914:Drivers/STM32F7xx_HAL_Driver/Src/stm32f7xx_ll_usb.c ****     if (dma == 1U)
 915:Drivers/STM32F7xx_HAL_Driver/Src/stm32f7xx_ll_usb.c ****     {
 916:Drivers/STM32F7xx_HAL_Driver/Src/stm32f7xx_ll_usb.c ****       if ((uint32_t)ep->dma_addr != 0U)
 917:Drivers/STM32F7xx_HAL_Driver/Src/stm32f7xx_ll_usb.c ****       {
 918:Drivers/STM32F7xx_HAL_Driver/Src/stm32f7xx_ll_usb.c ****         USBx_INEP(epnum)->DIEPDMA = (uint32_t)(ep->dma_addr);
 919:Drivers/STM32F7xx_HAL_Driver/Src/stm32f7xx_ll_usb.c ****       }
 920:Drivers/STM32F7xx_HAL_Driver/Src/stm32f7xx_ll_usb.c **** 
 921:Drivers/STM32F7xx_HAL_Driver/Src/stm32f7xx_ll_usb.c ****       /* EP enable, IN data in FIFO */
 922:Drivers/STM32F7xx_HAL_Driver/Src/stm32f7xx_ll_usb.c ****       USBx_INEP(epnum)->DIEPCTL |= (USB_OTG_DIEPCTL_CNAK | USB_OTG_DIEPCTL_EPENA);
 923:Drivers/STM32F7xx_HAL_Driver/Src/stm32f7xx_ll_usb.c ****     }
 924:Drivers/STM32F7xx_HAL_Driver/Src/stm32f7xx_ll_usb.c ****     else
 925:Drivers/STM32F7xx_HAL_Driver/Src/stm32f7xx_ll_usb.c ****     {
 926:Drivers/STM32F7xx_HAL_Driver/Src/stm32f7xx_ll_usb.c ****       /* EP enable, IN data in FIFO */
 927:Drivers/STM32F7xx_HAL_Driver/Src/stm32f7xx_ll_usb.c ****       USBx_INEP(epnum)->DIEPCTL |= (USB_OTG_DIEPCTL_CNAK | USB_OTG_DIEPCTL_EPENA);
 928:Drivers/STM32F7xx_HAL_Driver/Src/stm32f7xx_ll_usb.c **** 
 929:Drivers/STM32F7xx_HAL_Driver/Src/stm32f7xx_ll_usb.c ****       /* Enable the Tx FIFO Empty Interrupt for this EP */
 930:Drivers/STM32F7xx_HAL_Driver/Src/stm32f7xx_ll_usb.c ****       if (ep->xfer_len > 0U)
 931:Drivers/STM32F7xx_HAL_Driver/Src/stm32f7xx_ll_usb.c ****       {
 932:Drivers/STM32F7xx_HAL_Driver/Src/stm32f7xx_ll_usb.c ****         USBx_DEVICE->DIEPEMPMSK |= 1UL << (ep->num & EP_ADDR_MSK);
 933:Drivers/STM32F7xx_HAL_Driver/Src/stm32f7xx_ll_usb.c ****       }
 934:Drivers/STM32F7xx_HAL_Driver/Src/stm32f7xx_ll_usb.c ****     }
 935:Drivers/STM32F7xx_HAL_Driver/Src/stm32f7xx_ll_usb.c ****   }
 936:Drivers/STM32F7xx_HAL_Driver/Src/stm32f7xx_ll_usb.c ****   else /* OUT endpoint */
 937:Drivers/STM32F7xx_HAL_Driver/Src/stm32f7xx_ll_usb.c ****   {
 938:Drivers/STM32F7xx_HAL_Driver/Src/stm32f7xx_ll_usb.c ****     /* Program the transfer size and packet count as follows:
 939:Drivers/STM32F7xx_HAL_Driver/Src/stm32f7xx_ll_usb.c ****     * pktcnt = N
 940:Drivers/STM32F7xx_HAL_Driver/Src/stm32f7xx_ll_usb.c ****     * xfersize = N * maxpacket
 941:Drivers/STM32F7xx_HAL_Driver/Src/stm32f7xx_ll_usb.c ****     */
 942:Drivers/STM32F7xx_HAL_Driver/Src/stm32f7xx_ll_usb.c ****     USBx_OUTEP(epnum)->DOEPTSIZ &= ~(USB_OTG_DOEPTSIZ_XFRSIZ);
 943:Drivers/STM32F7xx_HAL_Driver/Src/stm32f7xx_ll_usb.c ****     USBx_OUTEP(epnum)->DOEPTSIZ &= ~(USB_OTG_DOEPTSIZ_PKTCNT);
ARM GAS  /tmp/cc8xco1Q.s 			page 18


 944:Drivers/STM32F7xx_HAL_Driver/Src/stm32f7xx_ll_usb.c **** 
 945:Drivers/STM32F7xx_HAL_Driver/Src/stm32f7xx_ll_usb.c ****     if (ep->xfer_len > 0U)
 946:Drivers/STM32F7xx_HAL_Driver/Src/stm32f7xx_ll_usb.c ****     {
 947:Drivers/STM32F7xx_HAL_Driver/Src/stm32f7xx_ll_usb.c ****       ep->xfer_len = ep->maxpacket;
 948:Drivers/STM32F7xx_HAL_Driver/Src/stm32f7xx_ll_usb.c ****     }
 949:Drivers/STM32F7xx_HAL_Driver/Src/stm32f7xx_ll_usb.c **** 
 950:Drivers/STM32F7xx_HAL_Driver/Src/stm32f7xx_ll_usb.c ****     USBx_OUTEP(epnum)->DOEPTSIZ |= (USB_OTG_DOEPTSIZ_PKTCNT & (1U << 19));
 951:Drivers/STM32F7xx_HAL_Driver/Src/stm32f7xx_ll_usb.c ****     USBx_OUTEP(epnum)->DOEPTSIZ |= (USB_OTG_DOEPTSIZ_XFRSIZ & (ep->maxpacket));
 952:Drivers/STM32F7xx_HAL_Driver/Src/stm32f7xx_ll_usb.c **** 
 953:Drivers/STM32F7xx_HAL_Driver/Src/stm32f7xx_ll_usb.c ****     if (dma == 1U)
 954:Drivers/STM32F7xx_HAL_Driver/Src/stm32f7xx_ll_usb.c ****     {
 955:Drivers/STM32F7xx_HAL_Driver/Src/stm32f7xx_ll_usb.c ****       if ((uint32_t)ep->xfer_buff != 0U)
 956:Drivers/STM32F7xx_HAL_Driver/Src/stm32f7xx_ll_usb.c ****       {
 957:Drivers/STM32F7xx_HAL_Driver/Src/stm32f7xx_ll_usb.c ****         USBx_OUTEP(epnum)->DOEPDMA = (uint32_t)(ep->xfer_buff);
 958:Drivers/STM32F7xx_HAL_Driver/Src/stm32f7xx_ll_usb.c ****       }
 959:Drivers/STM32F7xx_HAL_Driver/Src/stm32f7xx_ll_usb.c ****     }
 960:Drivers/STM32F7xx_HAL_Driver/Src/stm32f7xx_ll_usb.c **** 
 961:Drivers/STM32F7xx_HAL_Driver/Src/stm32f7xx_ll_usb.c ****     /* EP enable */
 962:Drivers/STM32F7xx_HAL_Driver/Src/stm32f7xx_ll_usb.c ****     USBx_OUTEP(epnum)->DOEPCTL |= (USB_OTG_DOEPCTL_CNAK | USB_OTG_DOEPCTL_EPENA);
 963:Drivers/STM32F7xx_HAL_Driver/Src/stm32f7xx_ll_usb.c ****   }
 964:Drivers/STM32F7xx_HAL_Driver/Src/stm32f7xx_ll_usb.c **** 
 965:Drivers/STM32F7xx_HAL_Driver/Src/stm32f7xx_ll_usb.c ****   return HAL_OK;
 966:Drivers/STM32F7xx_HAL_Driver/Src/stm32f7xx_ll_usb.c **** }
 967:Drivers/STM32F7xx_HAL_Driver/Src/stm32f7xx_ll_usb.c **** 
 968:Drivers/STM32F7xx_HAL_Driver/Src/stm32f7xx_ll_usb.c **** /**
 969:Drivers/STM32F7xx_HAL_Driver/Src/stm32f7xx_ll_usb.c ****   * @brief  USB_WritePacket : Writes a packet into the Tx FIFO associated
 970:Drivers/STM32F7xx_HAL_Driver/Src/stm32f7xx_ll_usb.c ****   *         with the EP/channel
 971:Drivers/STM32F7xx_HAL_Driver/Src/stm32f7xx_ll_usb.c ****   * @param  USBx  Selected device
 972:Drivers/STM32F7xx_HAL_Driver/Src/stm32f7xx_ll_usb.c ****   * @param  src   pointer to source buffer
 973:Drivers/STM32F7xx_HAL_Driver/Src/stm32f7xx_ll_usb.c ****   * @param  ch_ep_num  endpoint or host channel number
 974:Drivers/STM32F7xx_HAL_Driver/Src/stm32f7xx_ll_usb.c ****   * @param  len  Number of bytes to write
 975:Drivers/STM32F7xx_HAL_Driver/Src/stm32f7xx_ll_usb.c ****   * @param  dma USB dma enabled or disabled
 976:Drivers/STM32F7xx_HAL_Driver/Src/stm32f7xx_ll_usb.c ****   *          This parameter can be one of these values:
 977:Drivers/STM32F7xx_HAL_Driver/Src/stm32f7xx_ll_usb.c ****   *           0 : DMA feature not used
 978:Drivers/STM32F7xx_HAL_Driver/Src/stm32f7xx_ll_usb.c ****   *           1 : DMA feature used
 979:Drivers/STM32F7xx_HAL_Driver/Src/stm32f7xx_ll_usb.c ****   * @retval HAL status
 980:Drivers/STM32F7xx_HAL_Driver/Src/stm32f7xx_ll_usb.c ****   */
 981:Drivers/STM32F7xx_HAL_Driver/Src/stm32f7xx_ll_usb.c **** HAL_StatusTypeDef USB_WritePacket(USB_OTG_GlobalTypeDef *USBx, uint8_t *src, uint8_t ch_ep_num, uin
 982:Drivers/STM32F7xx_HAL_Driver/Src/stm32f7xx_ll_usb.c **** {
 983:Drivers/STM32F7xx_HAL_Driver/Src/stm32f7xx_ll_usb.c ****   uint32_t USBx_BASE = (uint32_t)USBx;
 984:Drivers/STM32F7xx_HAL_Driver/Src/stm32f7xx_ll_usb.c ****   uint32_t *pSrc = (uint32_t *)src;
 985:Drivers/STM32F7xx_HAL_Driver/Src/stm32f7xx_ll_usb.c ****   uint32_t count32b, i;
 986:Drivers/STM32F7xx_HAL_Driver/Src/stm32f7xx_ll_usb.c **** 
 987:Drivers/STM32F7xx_HAL_Driver/Src/stm32f7xx_ll_usb.c ****   if (dma == 0U)
 988:Drivers/STM32F7xx_HAL_Driver/Src/stm32f7xx_ll_usb.c ****   {
 989:Drivers/STM32F7xx_HAL_Driver/Src/stm32f7xx_ll_usb.c ****     count32b = ((uint32_t)len + 3U) / 4U;
 990:Drivers/STM32F7xx_HAL_Driver/Src/stm32f7xx_ll_usb.c ****     for (i = 0U; i < count32b; i++)
 991:Drivers/STM32F7xx_HAL_Driver/Src/stm32f7xx_ll_usb.c ****     {
 992:Drivers/STM32F7xx_HAL_Driver/Src/stm32f7xx_ll_usb.c ****       USBx_DFIFO((uint32_t)ch_ep_num) = __UNALIGNED_UINT32_READ(pSrc);
 993:Drivers/STM32F7xx_HAL_Driver/Src/stm32f7xx_ll_usb.c ****       pSrc++;
 994:Drivers/STM32F7xx_HAL_Driver/Src/stm32f7xx_ll_usb.c ****     }
 995:Drivers/STM32F7xx_HAL_Driver/Src/stm32f7xx_ll_usb.c ****   }
 996:Drivers/STM32F7xx_HAL_Driver/Src/stm32f7xx_ll_usb.c **** 
 997:Drivers/STM32F7xx_HAL_Driver/Src/stm32f7xx_ll_usb.c ****   return HAL_OK;
 998:Drivers/STM32F7xx_HAL_Driver/Src/stm32f7xx_ll_usb.c **** }
 999:Drivers/STM32F7xx_HAL_Driver/Src/stm32f7xx_ll_usb.c **** 
1000:Drivers/STM32F7xx_HAL_Driver/Src/stm32f7xx_ll_usb.c **** /**
ARM GAS  /tmp/cc8xco1Q.s 			page 19


1001:Drivers/STM32F7xx_HAL_Driver/Src/stm32f7xx_ll_usb.c ****   * @brief  USB_ReadPacket : read a packet from the RX FIFO
1002:Drivers/STM32F7xx_HAL_Driver/Src/stm32f7xx_ll_usb.c ****   * @param  USBx  Selected device
1003:Drivers/STM32F7xx_HAL_Driver/Src/stm32f7xx_ll_usb.c ****   * @param  dest  source pointer
1004:Drivers/STM32F7xx_HAL_Driver/Src/stm32f7xx_ll_usb.c ****   * @param  len  Number of bytes to read
1005:Drivers/STM32F7xx_HAL_Driver/Src/stm32f7xx_ll_usb.c ****   * @retval pointer to destination buffer
1006:Drivers/STM32F7xx_HAL_Driver/Src/stm32f7xx_ll_usb.c ****   */
1007:Drivers/STM32F7xx_HAL_Driver/Src/stm32f7xx_ll_usb.c **** void *USB_ReadPacket(USB_OTG_GlobalTypeDef *USBx, uint8_t *dest, uint16_t len)
1008:Drivers/STM32F7xx_HAL_Driver/Src/stm32f7xx_ll_usb.c **** {
1009:Drivers/STM32F7xx_HAL_Driver/Src/stm32f7xx_ll_usb.c ****   uint32_t USBx_BASE = (uint32_t)USBx;
1010:Drivers/STM32F7xx_HAL_Driver/Src/stm32f7xx_ll_usb.c ****   uint32_t *pDest = (uint32_t *)dest;
1011:Drivers/STM32F7xx_HAL_Driver/Src/stm32f7xx_ll_usb.c ****   uint32_t i;
1012:Drivers/STM32F7xx_HAL_Driver/Src/stm32f7xx_ll_usb.c ****   uint32_t count32b = ((uint32_t)len + 3U) / 4U;
1013:Drivers/STM32F7xx_HAL_Driver/Src/stm32f7xx_ll_usb.c **** 
1014:Drivers/STM32F7xx_HAL_Driver/Src/stm32f7xx_ll_usb.c ****   for (i = 0U; i < count32b; i++)
1015:Drivers/STM32F7xx_HAL_Driver/Src/stm32f7xx_ll_usb.c ****   {
1016:Drivers/STM32F7xx_HAL_Driver/Src/stm32f7xx_ll_usb.c ****     __UNALIGNED_UINT32_WRITE(pDest, USBx_DFIFO(0U));
1017:Drivers/STM32F7xx_HAL_Driver/Src/stm32f7xx_ll_usb.c ****     pDest++;
1018:Drivers/STM32F7xx_HAL_Driver/Src/stm32f7xx_ll_usb.c ****   }
1019:Drivers/STM32F7xx_HAL_Driver/Src/stm32f7xx_ll_usb.c **** 
1020:Drivers/STM32F7xx_HAL_Driver/Src/stm32f7xx_ll_usb.c ****   return ((void *)pDest);
1021:Drivers/STM32F7xx_HAL_Driver/Src/stm32f7xx_ll_usb.c **** }
1022:Drivers/STM32F7xx_HAL_Driver/Src/stm32f7xx_ll_usb.c **** 
1023:Drivers/STM32F7xx_HAL_Driver/Src/stm32f7xx_ll_usb.c **** /**
1024:Drivers/STM32F7xx_HAL_Driver/Src/stm32f7xx_ll_usb.c ****   * @brief  USB_EPSetStall : set a stall condition over an EP
1025:Drivers/STM32F7xx_HAL_Driver/Src/stm32f7xx_ll_usb.c ****   * @param  USBx  Selected device
1026:Drivers/STM32F7xx_HAL_Driver/Src/stm32f7xx_ll_usb.c ****   * @param  ep pointer to endpoint structure
1027:Drivers/STM32F7xx_HAL_Driver/Src/stm32f7xx_ll_usb.c ****   * @retval HAL status
1028:Drivers/STM32F7xx_HAL_Driver/Src/stm32f7xx_ll_usb.c ****   */
1029:Drivers/STM32F7xx_HAL_Driver/Src/stm32f7xx_ll_usb.c **** HAL_StatusTypeDef USB_EPSetStall(USB_OTG_GlobalTypeDef *USBx, USB_OTG_EPTypeDef *ep)
1030:Drivers/STM32F7xx_HAL_Driver/Src/stm32f7xx_ll_usb.c **** {
1031:Drivers/STM32F7xx_HAL_Driver/Src/stm32f7xx_ll_usb.c ****   uint32_t USBx_BASE = (uint32_t)USBx;
1032:Drivers/STM32F7xx_HAL_Driver/Src/stm32f7xx_ll_usb.c ****   uint32_t epnum = (uint32_t)ep->num;
1033:Drivers/STM32F7xx_HAL_Driver/Src/stm32f7xx_ll_usb.c **** 
1034:Drivers/STM32F7xx_HAL_Driver/Src/stm32f7xx_ll_usb.c ****   if (ep->is_in == 1U)
1035:Drivers/STM32F7xx_HAL_Driver/Src/stm32f7xx_ll_usb.c ****   {
1036:Drivers/STM32F7xx_HAL_Driver/Src/stm32f7xx_ll_usb.c ****     if (((USBx_INEP(epnum)->DIEPCTL & USB_OTG_DIEPCTL_EPENA) == 0U) && (epnum != 0U))
1037:Drivers/STM32F7xx_HAL_Driver/Src/stm32f7xx_ll_usb.c ****     {
1038:Drivers/STM32F7xx_HAL_Driver/Src/stm32f7xx_ll_usb.c ****       USBx_INEP(epnum)->DIEPCTL &= ~(USB_OTG_DIEPCTL_EPDIS);
1039:Drivers/STM32F7xx_HAL_Driver/Src/stm32f7xx_ll_usb.c ****     }
1040:Drivers/STM32F7xx_HAL_Driver/Src/stm32f7xx_ll_usb.c ****     USBx_INEP(epnum)->DIEPCTL |= USB_OTG_DIEPCTL_STALL;
1041:Drivers/STM32F7xx_HAL_Driver/Src/stm32f7xx_ll_usb.c ****   }
1042:Drivers/STM32F7xx_HAL_Driver/Src/stm32f7xx_ll_usb.c ****   else
1043:Drivers/STM32F7xx_HAL_Driver/Src/stm32f7xx_ll_usb.c ****   {
1044:Drivers/STM32F7xx_HAL_Driver/Src/stm32f7xx_ll_usb.c ****     if (((USBx_OUTEP(epnum)->DOEPCTL & USB_OTG_DOEPCTL_EPENA) == 0U) && (epnum != 0U))
1045:Drivers/STM32F7xx_HAL_Driver/Src/stm32f7xx_ll_usb.c ****     {
1046:Drivers/STM32F7xx_HAL_Driver/Src/stm32f7xx_ll_usb.c ****       USBx_OUTEP(epnum)->DOEPCTL &= ~(USB_OTG_DOEPCTL_EPDIS);
1047:Drivers/STM32F7xx_HAL_Driver/Src/stm32f7xx_ll_usb.c ****     }
1048:Drivers/STM32F7xx_HAL_Driver/Src/stm32f7xx_ll_usb.c ****     USBx_OUTEP(epnum)->DOEPCTL |= USB_OTG_DOEPCTL_STALL;
1049:Drivers/STM32F7xx_HAL_Driver/Src/stm32f7xx_ll_usb.c ****   }
1050:Drivers/STM32F7xx_HAL_Driver/Src/stm32f7xx_ll_usb.c **** 
1051:Drivers/STM32F7xx_HAL_Driver/Src/stm32f7xx_ll_usb.c ****   return HAL_OK;
1052:Drivers/STM32F7xx_HAL_Driver/Src/stm32f7xx_ll_usb.c **** }
1053:Drivers/STM32F7xx_HAL_Driver/Src/stm32f7xx_ll_usb.c **** 
1054:Drivers/STM32F7xx_HAL_Driver/Src/stm32f7xx_ll_usb.c **** /**
1055:Drivers/STM32F7xx_HAL_Driver/Src/stm32f7xx_ll_usb.c ****   * @brief  USB_EPClearStall : Clear a stall condition over an EP
1056:Drivers/STM32F7xx_HAL_Driver/Src/stm32f7xx_ll_usb.c ****   * @param  USBx  Selected device
1057:Drivers/STM32F7xx_HAL_Driver/Src/stm32f7xx_ll_usb.c ****   * @param  ep pointer to endpoint structure
ARM GAS  /tmp/cc8xco1Q.s 			page 20


1058:Drivers/STM32F7xx_HAL_Driver/Src/stm32f7xx_ll_usb.c ****   * @retval HAL status
1059:Drivers/STM32F7xx_HAL_Driver/Src/stm32f7xx_ll_usb.c ****   */
1060:Drivers/STM32F7xx_HAL_Driver/Src/stm32f7xx_ll_usb.c **** HAL_StatusTypeDef USB_EPClearStall(USB_OTG_GlobalTypeDef *USBx, USB_OTG_EPTypeDef *ep)
1061:Drivers/STM32F7xx_HAL_Driver/Src/stm32f7xx_ll_usb.c **** {
1062:Drivers/STM32F7xx_HAL_Driver/Src/stm32f7xx_ll_usb.c ****   uint32_t USBx_BASE = (uint32_t)USBx;
1063:Drivers/STM32F7xx_HAL_Driver/Src/stm32f7xx_ll_usb.c ****   uint32_t epnum = (uint32_t)ep->num;
1064:Drivers/STM32F7xx_HAL_Driver/Src/stm32f7xx_ll_usb.c **** 
1065:Drivers/STM32F7xx_HAL_Driver/Src/stm32f7xx_ll_usb.c ****   if (ep->is_in == 1U)
1066:Drivers/STM32F7xx_HAL_Driver/Src/stm32f7xx_ll_usb.c ****   {
1067:Drivers/STM32F7xx_HAL_Driver/Src/stm32f7xx_ll_usb.c ****     USBx_INEP(epnum)->DIEPCTL &= ~USB_OTG_DIEPCTL_STALL;
1068:Drivers/STM32F7xx_HAL_Driver/Src/stm32f7xx_ll_usb.c ****     if ((ep->type == EP_TYPE_INTR) || (ep->type == EP_TYPE_BULK))
1069:Drivers/STM32F7xx_HAL_Driver/Src/stm32f7xx_ll_usb.c ****     {
1070:Drivers/STM32F7xx_HAL_Driver/Src/stm32f7xx_ll_usb.c ****       USBx_INEP(epnum)->DIEPCTL |= USB_OTG_DIEPCTL_SD0PID_SEVNFRM; /* DATA0 */
1071:Drivers/STM32F7xx_HAL_Driver/Src/stm32f7xx_ll_usb.c ****     }
1072:Drivers/STM32F7xx_HAL_Driver/Src/stm32f7xx_ll_usb.c ****   }
1073:Drivers/STM32F7xx_HAL_Driver/Src/stm32f7xx_ll_usb.c ****   else
1074:Drivers/STM32F7xx_HAL_Driver/Src/stm32f7xx_ll_usb.c ****   {
1075:Drivers/STM32F7xx_HAL_Driver/Src/stm32f7xx_ll_usb.c ****     USBx_OUTEP(epnum)->DOEPCTL &= ~USB_OTG_DOEPCTL_STALL;
1076:Drivers/STM32F7xx_HAL_Driver/Src/stm32f7xx_ll_usb.c ****     if ((ep->type == EP_TYPE_INTR) || (ep->type == EP_TYPE_BULK))
1077:Drivers/STM32F7xx_HAL_Driver/Src/stm32f7xx_ll_usb.c ****     {
1078:Drivers/STM32F7xx_HAL_Driver/Src/stm32f7xx_ll_usb.c ****       USBx_OUTEP(epnum)->DOEPCTL |= USB_OTG_DOEPCTL_SD0PID_SEVNFRM; /* DATA0 */
1079:Drivers/STM32F7xx_HAL_Driver/Src/stm32f7xx_ll_usb.c ****     }
1080:Drivers/STM32F7xx_HAL_Driver/Src/stm32f7xx_ll_usb.c ****   }
1081:Drivers/STM32F7xx_HAL_Driver/Src/stm32f7xx_ll_usb.c ****   return HAL_OK;
1082:Drivers/STM32F7xx_HAL_Driver/Src/stm32f7xx_ll_usb.c **** }
1083:Drivers/STM32F7xx_HAL_Driver/Src/stm32f7xx_ll_usb.c **** 
1084:Drivers/STM32F7xx_HAL_Driver/Src/stm32f7xx_ll_usb.c **** /**
1085:Drivers/STM32F7xx_HAL_Driver/Src/stm32f7xx_ll_usb.c ****   * @brief  USB_StopDevice : Stop the usb device mode
1086:Drivers/STM32F7xx_HAL_Driver/Src/stm32f7xx_ll_usb.c ****   * @param  USBx  Selected device
1087:Drivers/STM32F7xx_HAL_Driver/Src/stm32f7xx_ll_usb.c ****   * @retval HAL status
1088:Drivers/STM32F7xx_HAL_Driver/Src/stm32f7xx_ll_usb.c ****   */
1089:Drivers/STM32F7xx_HAL_Driver/Src/stm32f7xx_ll_usb.c **** HAL_StatusTypeDef USB_StopDevice(USB_OTG_GlobalTypeDef *USBx)
1090:Drivers/STM32F7xx_HAL_Driver/Src/stm32f7xx_ll_usb.c **** {
1091:Drivers/STM32F7xx_HAL_Driver/Src/stm32f7xx_ll_usb.c ****   HAL_StatusTypeDef ret;
1092:Drivers/STM32F7xx_HAL_Driver/Src/stm32f7xx_ll_usb.c ****   uint32_t USBx_BASE = (uint32_t)USBx;
1093:Drivers/STM32F7xx_HAL_Driver/Src/stm32f7xx_ll_usb.c ****   uint32_t i;
1094:Drivers/STM32F7xx_HAL_Driver/Src/stm32f7xx_ll_usb.c **** 
1095:Drivers/STM32F7xx_HAL_Driver/Src/stm32f7xx_ll_usb.c ****   /* Clear Pending interrupt */
1096:Drivers/STM32F7xx_HAL_Driver/Src/stm32f7xx_ll_usb.c ****   for (i = 0U; i < 15U; i++)
1097:Drivers/STM32F7xx_HAL_Driver/Src/stm32f7xx_ll_usb.c ****   {
1098:Drivers/STM32F7xx_HAL_Driver/Src/stm32f7xx_ll_usb.c ****     USBx_INEP(i)->DIEPINT = 0xFB7FU;
1099:Drivers/STM32F7xx_HAL_Driver/Src/stm32f7xx_ll_usb.c ****     USBx_OUTEP(i)->DOEPINT = 0xFB7FU;
1100:Drivers/STM32F7xx_HAL_Driver/Src/stm32f7xx_ll_usb.c ****   }
1101:Drivers/STM32F7xx_HAL_Driver/Src/stm32f7xx_ll_usb.c **** 
1102:Drivers/STM32F7xx_HAL_Driver/Src/stm32f7xx_ll_usb.c ****   /* Clear interrupt masks */
1103:Drivers/STM32F7xx_HAL_Driver/Src/stm32f7xx_ll_usb.c ****   USBx_DEVICE->DIEPMSK  = 0U;
1104:Drivers/STM32F7xx_HAL_Driver/Src/stm32f7xx_ll_usb.c ****   USBx_DEVICE->DOEPMSK  = 0U;
1105:Drivers/STM32F7xx_HAL_Driver/Src/stm32f7xx_ll_usb.c ****   USBx_DEVICE->DAINTMSK = 0U;
1106:Drivers/STM32F7xx_HAL_Driver/Src/stm32f7xx_ll_usb.c **** 
1107:Drivers/STM32F7xx_HAL_Driver/Src/stm32f7xx_ll_usb.c ****   /* Flush the FIFO */
1108:Drivers/STM32F7xx_HAL_Driver/Src/stm32f7xx_ll_usb.c ****   ret = USB_FlushRxFifo(USBx);
1109:Drivers/STM32F7xx_HAL_Driver/Src/stm32f7xx_ll_usb.c ****   if (ret != HAL_OK)
1110:Drivers/STM32F7xx_HAL_Driver/Src/stm32f7xx_ll_usb.c ****   {
1111:Drivers/STM32F7xx_HAL_Driver/Src/stm32f7xx_ll_usb.c ****     return ret;
1112:Drivers/STM32F7xx_HAL_Driver/Src/stm32f7xx_ll_usb.c ****   }
1113:Drivers/STM32F7xx_HAL_Driver/Src/stm32f7xx_ll_usb.c **** 
1114:Drivers/STM32F7xx_HAL_Driver/Src/stm32f7xx_ll_usb.c ****   ret = USB_FlushTxFifo(USBx,  0x10U);
ARM GAS  /tmp/cc8xco1Q.s 			page 21


1115:Drivers/STM32F7xx_HAL_Driver/Src/stm32f7xx_ll_usb.c ****   if (ret != HAL_OK)
1116:Drivers/STM32F7xx_HAL_Driver/Src/stm32f7xx_ll_usb.c ****   {
1117:Drivers/STM32F7xx_HAL_Driver/Src/stm32f7xx_ll_usb.c ****     return ret;
1118:Drivers/STM32F7xx_HAL_Driver/Src/stm32f7xx_ll_usb.c ****   }
1119:Drivers/STM32F7xx_HAL_Driver/Src/stm32f7xx_ll_usb.c **** 
1120:Drivers/STM32F7xx_HAL_Driver/Src/stm32f7xx_ll_usb.c ****   return ret;
1121:Drivers/STM32F7xx_HAL_Driver/Src/stm32f7xx_ll_usb.c **** }
1122:Drivers/STM32F7xx_HAL_Driver/Src/stm32f7xx_ll_usb.c **** 
1123:Drivers/STM32F7xx_HAL_Driver/Src/stm32f7xx_ll_usb.c **** /**
1124:Drivers/STM32F7xx_HAL_Driver/Src/stm32f7xx_ll_usb.c ****   * @brief  USB_SetDevAddress : Stop the usb device mode
1125:Drivers/STM32F7xx_HAL_Driver/Src/stm32f7xx_ll_usb.c ****   * @param  USBx  Selected device
1126:Drivers/STM32F7xx_HAL_Driver/Src/stm32f7xx_ll_usb.c ****   * @param  address  new device address to be assigned
1127:Drivers/STM32F7xx_HAL_Driver/Src/stm32f7xx_ll_usb.c ****   *          This parameter can be a value from 0 to 255
1128:Drivers/STM32F7xx_HAL_Driver/Src/stm32f7xx_ll_usb.c ****   * @retval HAL status
1129:Drivers/STM32F7xx_HAL_Driver/Src/stm32f7xx_ll_usb.c ****   */
1130:Drivers/STM32F7xx_HAL_Driver/Src/stm32f7xx_ll_usb.c **** HAL_StatusTypeDef  USB_SetDevAddress(USB_OTG_GlobalTypeDef *USBx, uint8_t address)
1131:Drivers/STM32F7xx_HAL_Driver/Src/stm32f7xx_ll_usb.c **** {
1132:Drivers/STM32F7xx_HAL_Driver/Src/stm32f7xx_ll_usb.c ****   uint32_t USBx_BASE = (uint32_t)USBx;
1133:Drivers/STM32F7xx_HAL_Driver/Src/stm32f7xx_ll_usb.c **** 
1134:Drivers/STM32F7xx_HAL_Driver/Src/stm32f7xx_ll_usb.c ****   USBx_DEVICE->DCFG &= ~(USB_OTG_DCFG_DAD);
1135:Drivers/STM32F7xx_HAL_Driver/Src/stm32f7xx_ll_usb.c ****   USBx_DEVICE->DCFG |= ((uint32_t)address << 4) & USB_OTG_DCFG_DAD;
1136:Drivers/STM32F7xx_HAL_Driver/Src/stm32f7xx_ll_usb.c **** 
1137:Drivers/STM32F7xx_HAL_Driver/Src/stm32f7xx_ll_usb.c ****   return HAL_OK;
1138:Drivers/STM32F7xx_HAL_Driver/Src/stm32f7xx_ll_usb.c **** }
1139:Drivers/STM32F7xx_HAL_Driver/Src/stm32f7xx_ll_usb.c **** 
1140:Drivers/STM32F7xx_HAL_Driver/Src/stm32f7xx_ll_usb.c **** /**
1141:Drivers/STM32F7xx_HAL_Driver/Src/stm32f7xx_ll_usb.c ****   * @brief  USB_DevConnect : Connect the USB device by enabling the pull-up/pull-down
1142:Drivers/STM32F7xx_HAL_Driver/Src/stm32f7xx_ll_usb.c ****   * @param  USBx  Selected device
1143:Drivers/STM32F7xx_HAL_Driver/Src/stm32f7xx_ll_usb.c ****   * @retval HAL status
1144:Drivers/STM32F7xx_HAL_Driver/Src/stm32f7xx_ll_usb.c ****   */
1145:Drivers/STM32F7xx_HAL_Driver/Src/stm32f7xx_ll_usb.c **** HAL_StatusTypeDef  USB_DevConnect(USB_OTG_GlobalTypeDef *USBx)
1146:Drivers/STM32F7xx_HAL_Driver/Src/stm32f7xx_ll_usb.c **** {
1147:Drivers/STM32F7xx_HAL_Driver/Src/stm32f7xx_ll_usb.c ****   uint32_t USBx_BASE = (uint32_t)USBx;
1148:Drivers/STM32F7xx_HAL_Driver/Src/stm32f7xx_ll_usb.c **** 
1149:Drivers/STM32F7xx_HAL_Driver/Src/stm32f7xx_ll_usb.c ****   USBx_DEVICE->DCTL &= ~USB_OTG_DCTL_SDIS;
1150:Drivers/STM32F7xx_HAL_Driver/Src/stm32f7xx_ll_usb.c ****   HAL_Delay(3U);
1151:Drivers/STM32F7xx_HAL_Driver/Src/stm32f7xx_ll_usb.c **** 
1152:Drivers/STM32F7xx_HAL_Driver/Src/stm32f7xx_ll_usb.c ****   return HAL_OK;
1153:Drivers/STM32F7xx_HAL_Driver/Src/stm32f7xx_ll_usb.c **** }
1154:Drivers/STM32F7xx_HAL_Driver/Src/stm32f7xx_ll_usb.c **** 
1155:Drivers/STM32F7xx_HAL_Driver/Src/stm32f7xx_ll_usb.c **** /**
1156:Drivers/STM32F7xx_HAL_Driver/Src/stm32f7xx_ll_usb.c ****   * @brief  USB_DevDisconnect : Disconnect the USB device by disabling the pull-up/pull-down
1157:Drivers/STM32F7xx_HAL_Driver/Src/stm32f7xx_ll_usb.c ****   * @param  USBx  Selected device
1158:Drivers/STM32F7xx_HAL_Driver/Src/stm32f7xx_ll_usb.c ****   * @retval HAL status
1159:Drivers/STM32F7xx_HAL_Driver/Src/stm32f7xx_ll_usb.c ****   */
1160:Drivers/STM32F7xx_HAL_Driver/Src/stm32f7xx_ll_usb.c **** HAL_StatusTypeDef  USB_DevDisconnect(USB_OTG_GlobalTypeDef *USBx)
1161:Drivers/STM32F7xx_HAL_Driver/Src/stm32f7xx_ll_usb.c **** {
1162:Drivers/STM32F7xx_HAL_Driver/Src/stm32f7xx_ll_usb.c ****   uint32_t USBx_BASE = (uint32_t)USBx;
1163:Drivers/STM32F7xx_HAL_Driver/Src/stm32f7xx_ll_usb.c **** 
1164:Drivers/STM32F7xx_HAL_Driver/Src/stm32f7xx_ll_usb.c ****   USBx_DEVICE->DCTL |= USB_OTG_DCTL_SDIS;
1165:Drivers/STM32F7xx_HAL_Driver/Src/stm32f7xx_ll_usb.c ****   HAL_Delay(3U);
1166:Drivers/STM32F7xx_HAL_Driver/Src/stm32f7xx_ll_usb.c **** 
1167:Drivers/STM32F7xx_HAL_Driver/Src/stm32f7xx_ll_usb.c ****   return HAL_OK;
1168:Drivers/STM32F7xx_HAL_Driver/Src/stm32f7xx_ll_usb.c **** }
1169:Drivers/STM32F7xx_HAL_Driver/Src/stm32f7xx_ll_usb.c **** 
1170:Drivers/STM32F7xx_HAL_Driver/Src/stm32f7xx_ll_usb.c **** /**
1171:Drivers/STM32F7xx_HAL_Driver/Src/stm32f7xx_ll_usb.c ****   * @brief  USB_ReadInterrupts: return the global USB interrupt status
ARM GAS  /tmp/cc8xco1Q.s 			page 22


1172:Drivers/STM32F7xx_HAL_Driver/Src/stm32f7xx_ll_usb.c ****   * @param  USBx  Selected device
1173:Drivers/STM32F7xx_HAL_Driver/Src/stm32f7xx_ll_usb.c ****   * @retval HAL status
1174:Drivers/STM32F7xx_HAL_Driver/Src/stm32f7xx_ll_usb.c ****   */
1175:Drivers/STM32F7xx_HAL_Driver/Src/stm32f7xx_ll_usb.c **** uint32_t  USB_ReadInterrupts(USB_OTG_GlobalTypeDef *USBx)
1176:Drivers/STM32F7xx_HAL_Driver/Src/stm32f7xx_ll_usb.c **** {
1177:Drivers/STM32F7xx_HAL_Driver/Src/stm32f7xx_ll_usb.c ****   uint32_t tmpreg;
1178:Drivers/STM32F7xx_HAL_Driver/Src/stm32f7xx_ll_usb.c **** 
1179:Drivers/STM32F7xx_HAL_Driver/Src/stm32f7xx_ll_usb.c ****   tmpreg = USBx->GINTSTS;
1180:Drivers/STM32F7xx_HAL_Driver/Src/stm32f7xx_ll_usb.c ****   tmpreg &= USBx->GINTMSK;
1181:Drivers/STM32F7xx_HAL_Driver/Src/stm32f7xx_ll_usb.c **** 
1182:Drivers/STM32F7xx_HAL_Driver/Src/stm32f7xx_ll_usb.c ****   return tmpreg;
1183:Drivers/STM32F7xx_HAL_Driver/Src/stm32f7xx_ll_usb.c **** }
1184:Drivers/STM32F7xx_HAL_Driver/Src/stm32f7xx_ll_usb.c **** 
1185:Drivers/STM32F7xx_HAL_Driver/Src/stm32f7xx_ll_usb.c **** /**
1186:Drivers/STM32F7xx_HAL_Driver/Src/stm32f7xx_ll_usb.c ****   * @brief  USB_ReadDevAllOutEpInterrupt: return the USB device OUT endpoints interrupt status
1187:Drivers/STM32F7xx_HAL_Driver/Src/stm32f7xx_ll_usb.c ****   * @param  USBx  Selected device
1188:Drivers/STM32F7xx_HAL_Driver/Src/stm32f7xx_ll_usb.c ****   * @retval HAL status
1189:Drivers/STM32F7xx_HAL_Driver/Src/stm32f7xx_ll_usb.c ****   */
1190:Drivers/STM32F7xx_HAL_Driver/Src/stm32f7xx_ll_usb.c **** uint32_t USB_ReadDevAllOutEpInterrupt(USB_OTG_GlobalTypeDef *USBx)
1191:Drivers/STM32F7xx_HAL_Driver/Src/stm32f7xx_ll_usb.c **** {
1192:Drivers/STM32F7xx_HAL_Driver/Src/stm32f7xx_ll_usb.c ****   uint32_t USBx_BASE = (uint32_t)USBx;
1193:Drivers/STM32F7xx_HAL_Driver/Src/stm32f7xx_ll_usb.c ****   uint32_t tmpreg;
1194:Drivers/STM32F7xx_HAL_Driver/Src/stm32f7xx_ll_usb.c **** 
1195:Drivers/STM32F7xx_HAL_Driver/Src/stm32f7xx_ll_usb.c ****   tmpreg  = USBx_DEVICE->DAINT;
1196:Drivers/STM32F7xx_HAL_Driver/Src/stm32f7xx_ll_usb.c ****   tmpreg &= USBx_DEVICE->DAINTMSK;
1197:Drivers/STM32F7xx_HAL_Driver/Src/stm32f7xx_ll_usb.c **** 
1198:Drivers/STM32F7xx_HAL_Driver/Src/stm32f7xx_ll_usb.c ****   return ((tmpreg & 0xffff0000U) >> 16);
1199:Drivers/STM32F7xx_HAL_Driver/Src/stm32f7xx_ll_usb.c **** }
1200:Drivers/STM32F7xx_HAL_Driver/Src/stm32f7xx_ll_usb.c **** 
1201:Drivers/STM32F7xx_HAL_Driver/Src/stm32f7xx_ll_usb.c **** /**
1202:Drivers/STM32F7xx_HAL_Driver/Src/stm32f7xx_ll_usb.c ****   * @brief  USB_ReadDevAllInEpInterrupt: return the USB device IN endpoints interrupt status
1203:Drivers/STM32F7xx_HAL_Driver/Src/stm32f7xx_ll_usb.c ****   * @param  USBx  Selected device
1204:Drivers/STM32F7xx_HAL_Driver/Src/stm32f7xx_ll_usb.c ****   * @retval HAL status
1205:Drivers/STM32F7xx_HAL_Driver/Src/stm32f7xx_ll_usb.c ****   */
1206:Drivers/STM32F7xx_HAL_Driver/Src/stm32f7xx_ll_usb.c **** uint32_t USB_ReadDevAllInEpInterrupt(USB_OTG_GlobalTypeDef *USBx)
1207:Drivers/STM32F7xx_HAL_Driver/Src/stm32f7xx_ll_usb.c **** {
1208:Drivers/STM32F7xx_HAL_Driver/Src/stm32f7xx_ll_usb.c ****   uint32_t USBx_BASE = (uint32_t)USBx;
1209:Drivers/STM32F7xx_HAL_Driver/Src/stm32f7xx_ll_usb.c ****   uint32_t tmpreg;
1210:Drivers/STM32F7xx_HAL_Driver/Src/stm32f7xx_ll_usb.c **** 
1211:Drivers/STM32F7xx_HAL_Driver/Src/stm32f7xx_ll_usb.c ****   tmpreg  = USBx_DEVICE->DAINT;
1212:Drivers/STM32F7xx_HAL_Driver/Src/stm32f7xx_ll_usb.c ****   tmpreg &= USBx_DEVICE->DAINTMSK;
1213:Drivers/STM32F7xx_HAL_Driver/Src/stm32f7xx_ll_usb.c **** 
1214:Drivers/STM32F7xx_HAL_Driver/Src/stm32f7xx_ll_usb.c ****   return ((tmpreg & 0xFFFFU));
1215:Drivers/STM32F7xx_HAL_Driver/Src/stm32f7xx_ll_usb.c **** }
1216:Drivers/STM32F7xx_HAL_Driver/Src/stm32f7xx_ll_usb.c **** 
1217:Drivers/STM32F7xx_HAL_Driver/Src/stm32f7xx_ll_usb.c **** /**
1218:Drivers/STM32F7xx_HAL_Driver/Src/stm32f7xx_ll_usb.c ****   * @brief  Returns Device OUT EP Interrupt register
1219:Drivers/STM32F7xx_HAL_Driver/Src/stm32f7xx_ll_usb.c ****   * @param  USBx  Selected device
1220:Drivers/STM32F7xx_HAL_Driver/Src/stm32f7xx_ll_usb.c ****   * @param  epnum  endpoint number
1221:Drivers/STM32F7xx_HAL_Driver/Src/stm32f7xx_ll_usb.c ****   *          This parameter can be a value from 0 to 15
1222:Drivers/STM32F7xx_HAL_Driver/Src/stm32f7xx_ll_usb.c ****   * @retval Device OUT EP Interrupt register
1223:Drivers/STM32F7xx_HAL_Driver/Src/stm32f7xx_ll_usb.c ****   */
1224:Drivers/STM32F7xx_HAL_Driver/Src/stm32f7xx_ll_usb.c **** uint32_t USB_ReadDevOutEPInterrupt(USB_OTG_GlobalTypeDef *USBx, uint8_t epnum)
1225:Drivers/STM32F7xx_HAL_Driver/Src/stm32f7xx_ll_usb.c **** {
1226:Drivers/STM32F7xx_HAL_Driver/Src/stm32f7xx_ll_usb.c ****   uint32_t USBx_BASE = (uint32_t)USBx;
1227:Drivers/STM32F7xx_HAL_Driver/Src/stm32f7xx_ll_usb.c ****   uint32_t tmpreg;
1228:Drivers/STM32F7xx_HAL_Driver/Src/stm32f7xx_ll_usb.c **** 
ARM GAS  /tmp/cc8xco1Q.s 			page 23


1229:Drivers/STM32F7xx_HAL_Driver/Src/stm32f7xx_ll_usb.c ****   tmpreg  = USBx_OUTEP((uint32_t)epnum)->DOEPINT;
1230:Drivers/STM32F7xx_HAL_Driver/Src/stm32f7xx_ll_usb.c ****   tmpreg &= USBx_DEVICE->DOEPMSK;
1231:Drivers/STM32F7xx_HAL_Driver/Src/stm32f7xx_ll_usb.c **** 
1232:Drivers/STM32F7xx_HAL_Driver/Src/stm32f7xx_ll_usb.c ****   return tmpreg;
1233:Drivers/STM32F7xx_HAL_Driver/Src/stm32f7xx_ll_usb.c **** }
1234:Drivers/STM32F7xx_HAL_Driver/Src/stm32f7xx_ll_usb.c **** 
1235:Drivers/STM32F7xx_HAL_Driver/Src/stm32f7xx_ll_usb.c **** /**
1236:Drivers/STM32F7xx_HAL_Driver/Src/stm32f7xx_ll_usb.c ****   * @brief  Returns Device IN EP Interrupt register
1237:Drivers/STM32F7xx_HAL_Driver/Src/stm32f7xx_ll_usb.c ****   * @param  USBx  Selected device
1238:Drivers/STM32F7xx_HAL_Driver/Src/stm32f7xx_ll_usb.c ****   * @param  epnum  endpoint number
1239:Drivers/STM32F7xx_HAL_Driver/Src/stm32f7xx_ll_usb.c ****   *          This parameter can be a value from 0 to 15
1240:Drivers/STM32F7xx_HAL_Driver/Src/stm32f7xx_ll_usb.c ****   * @retval Device IN EP Interrupt register
1241:Drivers/STM32F7xx_HAL_Driver/Src/stm32f7xx_ll_usb.c ****   */
1242:Drivers/STM32F7xx_HAL_Driver/Src/stm32f7xx_ll_usb.c **** uint32_t USB_ReadDevInEPInterrupt(USB_OTG_GlobalTypeDef *USBx, uint8_t epnum)
1243:Drivers/STM32F7xx_HAL_Driver/Src/stm32f7xx_ll_usb.c **** {
1244:Drivers/STM32F7xx_HAL_Driver/Src/stm32f7xx_ll_usb.c ****   uint32_t USBx_BASE = (uint32_t)USBx;
1245:Drivers/STM32F7xx_HAL_Driver/Src/stm32f7xx_ll_usb.c ****   uint32_t tmpreg, msk, emp;
1246:Drivers/STM32F7xx_HAL_Driver/Src/stm32f7xx_ll_usb.c **** 
1247:Drivers/STM32F7xx_HAL_Driver/Src/stm32f7xx_ll_usb.c ****   msk = USBx_DEVICE->DIEPMSK;
1248:Drivers/STM32F7xx_HAL_Driver/Src/stm32f7xx_ll_usb.c ****   emp = USBx_DEVICE->DIEPEMPMSK;
1249:Drivers/STM32F7xx_HAL_Driver/Src/stm32f7xx_ll_usb.c ****   msk |= ((emp >> (epnum & EP_ADDR_MSK)) & 0x1U) << 7;
1250:Drivers/STM32F7xx_HAL_Driver/Src/stm32f7xx_ll_usb.c ****   tmpreg = USBx_INEP((uint32_t)epnum)->DIEPINT & msk;
1251:Drivers/STM32F7xx_HAL_Driver/Src/stm32f7xx_ll_usb.c **** 
1252:Drivers/STM32F7xx_HAL_Driver/Src/stm32f7xx_ll_usb.c ****   return tmpreg;
1253:Drivers/STM32F7xx_HAL_Driver/Src/stm32f7xx_ll_usb.c **** }
1254:Drivers/STM32F7xx_HAL_Driver/Src/stm32f7xx_ll_usb.c **** 
1255:Drivers/STM32F7xx_HAL_Driver/Src/stm32f7xx_ll_usb.c **** /**
1256:Drivers/STM32F7xx_HAL_Driver/Src/stm32f7xx_ll_usb.c ****   * @brief  USB_ClearInterrupts: clear a USB interrupt
1257:Drivers/STM32F7xx_HAL_Driver/Src/stm32f7xx_ll_usb.c ****   * @param  USBx  Selected device
1258:Drivers/STM32F7xx_HAL_Driver/Src/stm32f7xx_ll_usb.c ****   * @param  interrupt  interrupt flag
1259:Drivers/STM32F7xx_HAL_Driver/Src/stm32f7xx_ll_usb.c ****   * @retval None
1260:Drivers/STM32F7xx_HAL_Driver/Src/stm32f7xx_ll_usb.c ****   */
1261:Drivers/STM32F7xx_HAL_Driver/Src/stm32f7xx_ll_usb.c **** void  USB_ClearInterrupts(USB_OTG_GlobalTypeDef *USBx, uint32_t interrupt)
1262:Drivers/STM32F7xx_HAL_Driver/Src/stm32f7xx_ll_usb.c **** {
1263:Drivers/STM32F7xx_HAL_Driver/Src/stm32f7xx_ll_usb.c ****   USBx->GINTSTS |= interrupt;
1264:Drivers/STM32F7xx_HAL_Driver/Src/stm32f7xx_ll_usb.c **** }
1265:Drivers/STM32F7xx_HAL_Driver/Src/stm32f7xx_ll_usb.c **** 
1266:Drivers/STM32F7xx_HAL_Driver/Src/stm32f7xx_ll_usb.c **** /**
1267:Drivers/STM32F7xx_HAL_Driver/Src/stm32f7xx_ll_usb.c ****   * @brief  Returns USB core mode
1268:Drivers/STM32F7xx_HAL_Driver/Src/stm32f7xx_ll_usb.c ****   * @param  USBx  Selected device
1269:Drivers/STM32F7xx_HAL_Driver/Src/stm32f7xx_ll_usb.c ****   * @retval return core mode : Host or Device
1270:Drivers/STM32F7xx_HAL_Driver/Src/stm32f7xx_ll_usb.c ****   *          This parameter can be one of these values:
1271:Drivers/STM32F7xx_HAL_Driver/Src/stm32f7xx_ll_usb.c ****   *           0 : Host
1272:Drivers/STM32F7xx_HAL_Driver/Src/stm32f7xx_ll_usb.c ****   *           1 : Device
1273:Drivers/STM32F7xx_HAL_Driver/Src/stm32f7xx_ll_usb.c ****   */
1274:Drivers/STM32F7xx_HAL_Driver/Src/stm32f7xx_ll_usb.c **** uint32_t USB_GetMode(USB_OTG_GlobalTypeDef *USBx)
1275:Drivers/STM32F7xx_HAL_Driver/Src/stm32f7xx_ll_usb.c **** {
1276:Drivers/STM32F7xx_HAL_Driver/Src/stm32f7xx_ll_usb.c ****   return ((USBx->GINTSTS) & 0x1U);
1277:Drivers/STM32F7xx_HAL_Driver/Src/stm32f7xx_ll_usb.c **** }
1278:Drivers/STM32F7xx_HAL_Driver/Src/stm32f7xx_ll_usb.c **** 
1279:Drivers/STM32F7xx_HAL_Driver/Src/stm32f7xx_ll_usb.c **** /**
1280:Drivers/STM32F7xx_HAL_Driver/Src/stm32f7xx_ll_usb.c ****   * @brief  Activate EP0 for Setup transactions
1281:Drivers/STM32F7xx_HAL_Driver/Src/stm32f7xx_ll_usb.c ****   * @param  USBx  Selected device
1282:Drivers/STM32F7xx_HAL_Driver/Src/stm32f7xx_ll_usb.c ****   * @retval HAL status
1283:Drivers/STM32F7xx_HAL_Driver/Src/stm32f7xx_ll_usb.c ****   */
1284:Drivers/STM32F7xx_HAL_Driver/Src/stm32f7xx_ll_usb.c **** HAL_StatusTypeDef  USB_ActivateSetup(USB_OTG_GlobalTypeDef *USBx)
1285:Drivers/STM32F7xx_HAL_Driver/Src/stm32f7xx_ll_usb.c **** {
ARM GAS  /tmp/cc8xco1Q.s 			page 24


1286:Drivers/STM32F7xx_HAL_Driver/Src/stm32f7xx_ll_usb.c ****   uint32_t USBx_BASE = (uint32_t)USBx;
1287:Drivers/STM32F7xx_HAL_Driver/Src/stm32f7xx_ll_usb.c **** 
1288:Drivers/STM32F7xx_HAL_Driver/Src/stm32f7xx_ll_usb.c ****   /* Set the MPS of the IN EP0 to 64 bytes */
1289:Drivers/STM32F7xx_HAL_Driver/Src/stm32f7xx_ll_usb.c ****   USBx_INEP(0U)->DIEPCTL &= ~USB_OTG_DIEPCTL_MPSIZ;
1290:Drivers/STM32F7xx_HAL_Driver/Src/stm32f7xx_ll_usb.c **** 
1291:Drivers/STM32F7xx_HAL_Driver/Src/stm32f7xx_ll_usb.c ****   USBx_DEVICE->DCTL |= USB_OTG_DCTL_CGINAK;
1292:Drivers/STM32F7xx_HAL_Driver/Src/stm32f7xx_ll_usb.c **** 
1293:Drivers/STM32F7xx_HAL_Driver/Src/stm32f7xx_ll_usb.c ****   return HAL_OK;
1294:Drivers/STM32F7xx_HAL_Driver/Src/stm32f7xx_ll_usb.c **** }
1295:Drivers/STM32F7xx_HAL_Driver/Src/stm32f7xx_ll_usb.c **** 
1296:Drivers/STM32F7xx_HAL_Driver/Src/stm32f7xx_ll_usb.c **** /**
1297:Drivers/STM32F7xx_HAL_Driver/Src/stm32f7xx_ll_usb.c ****   * @brief  Prepare the EP0 to start the first control setup
1298:Drivers/STM32F7xx_HAL_Driver/Src/stm32f7xx_ll_usb.c ****   * @param  USBx  Selected device
1299:Drivers/STM32F7xx_HAL_Driver/Src/stm32f7xx_ll_usb.c ****   * @param  dma USB dma enabled or disabled
1300:Drivers/STM32F7xx_HAL_Driver/Src/stm32f7xx_ll_usb.c ****   *          This parameter can be one of these values:
1301:Drivers/STM32F7xx_HAL_Driver/Src/stm32f7xx_ll_usb.c ****   *           0 : DMA feature not used
1302:Drivers/STM32F7xx_HAL_Driver/Src/stm32f7xx_ll_usb.c ****   *           1 : DMA feature used
1303:Drivers/STM32F7xx_HAL_Driver/Src/stm32f7xx_ll_usb.c ****   * @param  psetup  pointer to setup packet
1304:Drivers/STM32F7xx_HAL_Driver/Src/stm32f7xx_ll_usb.c ****   * @retval HAL status
1305:Drivers/STM32F7xx_HAL_Driver/Src/stm32f7xx_ll_usb.c ****   */
1306:Drivers/STM32F7xx_HAL_Driver/Src/stm32f7xx_ll_usb.c **** HAL_StatusTypeDef USB_EP0_OutStart(USB_OTG_GlobalTypeDef *USBx, uint8_t dma, uint8_t *psetup)
1307:Drivers/STM32F7xx_HAL_Driver/Src/stm32f7xx_ll_usb.c **** {
1308:Drivers/STM32F7xx_HAL_Driver/Src/stm32f7xx_ll_usb.c ****   uint32_t USBx_BASE = (uint32_t)USBx;
1309:Drivers/STM32F7xx_HAL_Driver/Src/stm32f7xx_ll_usb.c ****   uint32_t gSNPSiD = *(__IO uint32_t *)(&USBx->CID + 0x1U);
1310:Drivers/STM32F7xx_HAL_Driver/Src/stm32f7xx_ll_usb.c **** 
1311:Drivers/STM32F7xx_HAL_Driver/Src/stm32f7xx_ll_usb.c ****   if (gSNPSiD > USB_OTG_CORE_ID_300A)
1312:Drivers/STM32F7xx_HAL_Driver/Src/stm32f7xx_ll_usb.c ****   {
1313:Drivers/STM32F7xx_HAL_Driver/Src/stm32f7xx_ll_usb.c ****     if ((USBx_OUTEP(0U)->DOEPCTL & USB_OTG_DOEPCTL_EPENA) == USB_OTG_DOEPCTL_EPENA)
1314:Drivers/STM32F7xx_HAL_Driver/Src/stm32f7xx_ll_usb.c ****     {
1315:Drivers/STM32F7xx_HAL_Driver/Src/stm32f7xx_ll_usb.c ****       return HAL_OK;
1316:Drivers/STM32F7xx_HAL_Driver/Src/stm32f7xx_ll_usb.c ****     }
1317:Drivers/STM32F7xx_HAL_Driver/Src/stm32f7xx_ll_usb.c ****   }
1318:Drivers/STM32F7xx_HAL_Driver/Src/stm32f7xx_ll_usb.c **** 
1319:Drivers/STM32F7xx_HAL_Driver/Src/stm32f7xx_ll_usb.c ****   USBx_OUTEP(0U)->DOEPTSIZ = 0U;
1320:Drivers/STM32F7xx_HAL_Driver/Src/stm32f7xx_ll_usb.c ****   USBx_OUTEP(0U)->DOEPTSIZ |= (USB_OTG_DOEPTSIZ_PKTCNT & (1U << 19));
1321:Drivers/STM32F7xx_HAL_Driver/Src/stm32f7xx_ll_usb.c ****   USBx_OUTEP(0U)->DOEPTSIZ |= (3U * 8U);
1322:Drivers/STM32F7xx_HAL_Driver/Src/stm32f7xx_ll_usb.c ****   USBx_OUTEP(0U)->DOEPTSIZ |=  USB_OTG_DOEPTSIZ_STUPCNT;
1323:Drivers/STM32F7xx_HAL_Driver/Src/stm32f7xx_ll_usb.c **** 
1324:Drivers/STM32F7xx_HAL_Driver/Src/stm32f7xx_ll_usb.c ****   if (dma == 1U)
1325:Drivers/STM32F7xx_HAL_Driver/Src/stm32f7xx_ll_usb.c ****   {
1326:Drivers/STM32F7xx_HAL_Driver/Src/stm32f7xx_ll_usb.c ****     USBx_OUTEP(0U)->DOEPDMA = (uint32_t)psetup;
1327:Drivers/STM32F7xx_HAL_Driver/Src/stm32f7xx_ll_usb.c ****     /* EP enable */
1328:Drivers/STM32F7xx_HAL_Driver/Src/stm32f7xx_ll_usb.c ****     USBx_OUTEP(0U)->DOEPCTL |= USB_OTG_DOEPCTL_EPENA | USB_OTG_DOEPCTL_USBAEP;
1329:Drivers/STM32F7xx_HAL_Driver/Src/stm32f7xx_ll_usb.c ****   }
1330:Drivers/STM32F7xx_HAL_Driver/Src/stm32f7xx_ll_usb.c **** 
1331:Drivers/STM32F7xx_HAL_Driver/Src/stm32f7xx_ll_usb.c ****   return HAL_OK;
1332:Drivers/STM32F7xx_HAL_Driver/Src/stm32f7xx_ll_usb.c **** }
1333:Drivers/STM32F7xx_HAL_Driver/Src/stm32f7xx_ll_usb.c **** 
1334:Drivers/STM32F7xx_HAL_Driver/Src/stm32f7xx_ll_usb.c **** /**
1335:Drivers/STM32F7xx_HAL_Driver/Src/stm32f7xx_ll_usb.c ****   * @brief  Reset the USB Core (needed after USB clock settings change)
1336:Drivers/STM32F7xx_HAL_Driver/Src/stm32f7xx_ll_usb.c ****   * @param  USBx  Selected device
1337:Drivers/STM32F7xx_HAL_Driver/Src/stm32f7xx_ll_usb.c ****   * @retval HAL status
1338:Drivers/STM32F7xx_HAL_Driver/Src/stm32f7xx_ll_usb.c ****   */
1339:Drivers/STM32F7xx_HAL_Driver/Src/stm32f7xx_ll_usb.c **** static HAL_StatusTypeDef USB_CoreReset(USB_OTG_GlobalTypeDef *USBx)
1340:Drivers/STM32F7xx_HAL_Driver/Src/stm32f7xx_ll_usb.c **** {
  28              		.loc 1 1340 1 view -0
  29              		.cfi_startproc
ARM GAS  /tmp/cc8xco1Q.s 			page 25


  30              		@ args = 0, pretend = 0, frame = 0
  31              		@ frame_needed = 0, uses_anonymous_args = 0
  32              		@ link register save eliminated.
1341:Drivers/STM32F7xx_HAL_Driver/Src/stm32f7xx_ll_usb.c ****   uint32_t count = 0U;
  33              		.loc 1 1341 3 view .LVU1
  34              		.loc 1 1341 12 is_stmt 0 view .LVU2
  35 0000 0023     		movs	r3, #0
  36              	.LVL1:
  37              	.L3:
1342:Drivers/STM32F7xx_HAL_Driver/Src/stm32f7xx_ll_usb.c **** 
1343:Drivers/STM32F7xx_HAL_Driver/Src/stm32f7xx_ll_usb.c ****   /* Wait for AHB master IDLE state. */
1344:Drivers/STM32F7xx_HAL_Driver/Src/stm32f7xx_ll_usb.c ****   do
  38              		.loc 1 1344 3 is_stmt 1 view .LVU3
1345:Drivers/STM32F7xx_HAL_Driver/Src/stm32f7xx_ll_usb.c ****   {
1346:Drivers/STM32F7xx_HAL_Driver/Src/stm32f7xx_ll_usb.c ****     if (++count > 200000U)
  39              		.loc 1 1346 5 view .LVU4
  40              		.loc 1 1346 8 is_stmt 0 view .LVU5
  41 0002 0133     		adds	r3, r3, #1
  42              	.LVL2:
  43              		.loc 1 1346 8 view .LVU6
  44 0004 0C4A     		ldr	r2, .L7
  45 0006 9342     		cmp	r3, r2
  46 0008 11D8     		bhi	.L5
1347:Drivers/STM32F7xx_HAL_Driver/Src/stm32f7xx_ll_usb.c ****     {
1348:Drivers/STM32F7xx_HAL_Driver/Src/stm32f7xx_ll_usb.c ****       return HAL_TIMEOUT;
1349:Drivers/STM32F7xx_HAL_Driver/Src/stm32f7xx_ll_usb.c ****     }
1350:Drivers/STM32F7xx_HAL_Driver/Src/stm32f7xx_ll_usb.c ****   }
1351:Drivers/STM32F7xx_HAL_Driver/Src/stm32f7xx_ll_usb.c ****   while ((USBx->GRSTCTL & USB_OTG_GRSTCTL_AHBIDL) == 0U);
  47              		.loc 1 1351 9 is_stmt 1 view .LVU7
  48              		.loc 1 1351 15 is_stmt 0 view .LVU8
  49 000a 0269     		ldr	r2, [r0, #16]
  50              		.loc 1 1351 3 view .LVU9
  51 000c 002A     		cmp	r2, #0
  52 000e F8DA     		bge	.L3
1352:Drivers/STM32F7xx_HAL_Driver/Src/stm32f7xx_ll_usb.c **** 
1353:Drivers/STM32F7xx_HAL_Driver/Src/stm32f7xx_ll_usb.c ****   /* Core Soft Reset */
1354:Drivers/STM32F7xx_HAL_Driver/Src/stm32f7xx_ll_usb.c ****   count = 0U;
  53              		.loc 1 1354 3 is_stmt 1 view .LVU10
  54              	.LVL3:
1355:Drivers/STM32F7xx_HAL_Driver/Src/stm32f7xx_ll_usb.c ****   USBx->GRSTCTL |= USB_OTG_GRSTCTL_CSRST;
  55              		.loc 1 1355 3 view .LVU11
  56              		.loc 1 1355 17 is_stmt 0 view .LVU12
  57 0010 0369     		ldr	r3, [r0, #16]
  58 0012 43F00103 		orr	r3, r3, #1
  59 0016 0361     		str	r3, [r0, #16]
1354:Drivers/STM32F7xx_HAL_Driver/Src/stm32f7xx_ll_usb.c ****   USBx->GRSTCTL |= USB_OTG_GRSTCTL_CSRST;
  60              		.loc 1 1354 9 view .LVU13
  61 0018 0023     		movs	r3, #0
  62              	.LVL4:
  63              	.L4:
1356:Drivers/STM32F7xx_HAL_Driver/Src/stm32f7xx_ll_usb.c **** 
1357:Drivers/STM32F7xx_HAL_Driver/Src/stm32f7xx_ll_usb.c ****   do
  64              		.loc 1 1357 3 is_stmt 1 view .LVU14
1358:Drivers/STM32F7xx_HAL_Driver/Src/stm32f7xx_ll_usb.c ****   {
1359:Drivers/STM32F7xx_HAL_Driver/Src/stm32f7xx_ll_usb.c ****     if (++count > 200000U)
  65              		.loc 1 1359 5 view .LVU15
  66              		.loc 1 1359 8 is_stmt 0 view .LVU16
ARM GAS  /tmp/cc8xco1Q.s 			page 26


  67 001a 0133     		adds	r3, r3, #1
  68              	.LVL5:
  69              		.loc 1 1359 8 view .LVU17
  70 001c 064A     		ldr	r2, .L7
  71 001e 9342     		cmp	r3, r2
  72 0020 07D8     		bhi	.L6
1360:Drivers/STM32F7xx_HAL_Driver/Src/stm32f7xx_ll_usb.c ****     {
1361:Drivers/STM32F7xx_HAL_Driver/Src/stm32f7xx_ll_usb.c ****       return HAL_TIMEOUT;
1362:Drivers/STM32F7xx_HAL_Driver/Src/stm32f7xx_ll_usb.c ****     }
1363:Drivers/STM32F7xx_HAL_Driver/Src/stm32f7xx_ll_usb.c ****   }
1364:Drivers/STM32F7xx_HAL_Driver/Src/stm32f7xx_ll_usb.c ****   while ((USBx->GRSTCTL & USB_OTG_GRSTCTL_CSRST) == USB_OTG_GRSTCTL_CSRST);
  73              		.loc 1 1364 9 is_stmt 1 view .LVU18
  74              		.loc 1 1364 15 is_stmt 0 view .LVU19
  75 0022 0269     		ldr	r2, [r0, #16]
  76              		.loc 1 1364 3 view .LVU20
  77 0024 12F0010F 		tst	r2, #1
  78 0028 F7D1     		bne	.L4
1365:Drivers/STM32F7xx_HAL_Driver/Src/stm32f7xx_ll_usb.c **** 
1366:Drivers/STM32F7xx_HAL_Driver/Src/stm32f7xx_ll_usb.c ****   return HAL_OK;
  79              		.loc 1 1366 10 view .LVU21
  80 002a 0020     		movs	r0, #0
  81              	.LVL6:
  82              		.loc 1 1366 10 view .LVU22
  83 002c 7047     		bx	lr
  84              	.LVL7:
  85              	.L5:
1348:Drivers/STM32F7xx_HAL_Driver/Src/stm32f7xx_ll_usb.c ****     }
  86              		.loc 1 1348 14 view .LVU23
  87 002e 0320     		movs	r0, #3
  88              	.LVL8:
1348:Drivers/STM32F7xx_HAL_Driver/Src/stm32f7xx_ll_usb.c ****     }
  89              		.loc 1 1348 14 view .LVU24
  90 0030 7047     		bx	lr
  91              	.LVL9:
  92              	.L6:
1361:Drivers/STM32F7xx_HAL_Driver/Src/stm32f7xx_ll_usb.c ****     }
  93              		.loc 1 1361 14 view .LVU25
  94 0032 0320     		movs	r0, #3
  95              	.LVL10:
1367:Drivers/STM32F7xx_HAL_Driver/Src/stm32f7xx_ll_usb.c **** }
  96              		.loc 1 1367 1 view .LVU26
  97 0034 7047     		bx	lr
  98              	.L8:
  99 0036 00BF     		.align	2
 100              	.L7:
 101 0038 400D0300 		.word	200000
 102              		.cfi_endproc
 103              	.LFE174:
 105              		.section	.text.USB_CoreInit,"ax",%progbits
 106              		.align	1
 107              		.global	USB_CoreInit
 108              		.syntax unified
 109              		.thumb
 110              		.thumb_func
 111              		.fpu fpv5-d16
 113              	USB_CoreInit:
 114              	.LVL11:
ARM GAS  /tmp/cc8xco1Q.s 			page 27


 115              	.LFB141:
  87:Drivers/STM32F7xx_HAL_Driver/Src/stm32f7xx_ll_usb.c ****   HAL_StatusTypeDef ret;
 116              		.loc 1 87 1 is_stmt 1 view -0
 117              		.cfi_startproc
 118              		@ args = 56, pretend = 16, frame = 0
 119              		@ frame_needed = 0, uses_anonymous_args = 0
  87:Drivers/STM32F7xx_HAL_Driver/Src/stm32f7xx_ll_usb.c ****   HAL_StatusTypeDef ret;
 120              		.loc 1 87 1 is_stmt 0 view .LVU28
 121 0000 84B0     		sub	sp, sp, #16
 122              	.LCFI0:
 123              		.cfi_def_cfa_offset 16
 124 0002 10B5     		push	{r4, lr}
 125              	.LCFI1:
 126              		.cfi_def_cfa_offset 24
 127              		.cfi_offset 4, -24
 128              		.cfi_offset 14, -20
 129 0004 0446     		mov	r4, r0
 130 0006 03A8     		add	r0, sp, #12
 131 0008 80E80E00 		stm	r0, {r1, r2, r3}
  88:Drivers/STM32F7xx_HAL_Driver/Src/stm32f7xx_ll_usb.c **** 
 132              		.loc 1 88 3 is_stmt 1 view .LVU29
  90:Drivers/STM32F7xx_HAL_Driver/Src/stm32f7xx_ll_usb.c ****   {
 133              		.loc 1 90 3 view .LVU30
  90:Drivers/STM32F7xx_HAL_Driver/Src/stm32f7xx_ll_usb.c ****   {
 134              		.loc 1 90 10 is_stmt 0 view .LVU31
 135 000c 089B     		ldr	r3, [sp, #32]
  90:Drivers/STM32F7xx_HAL_Driver/Src/stm32f7xx_ll_usb.c ****   {
 136              		.loc 1 90 6 view .LVU32
 137 000e 012B     		cmp	r3, #1
 138 0010 1DD1     		bne	.L10
  92:Drivers/STM32F7xx_HAL_Driver/Src/stm32f7xx_ll_usb.c **** 
 139              		.loc 1 92 5 is_stmt 1 view .LVU33
  92:Drivers/STM32F7xx_HAL_Driver/Src/stm32f7xx_ll_usb.c **** 
 140              		.loc 1 92 17 is_stmt 0 view .LVU34
 141 0012 A36B     		ldr	r3, [r4, #56]
 142 0014 23F48033 		bic	r3, r3, #65536
 143 0018 A363     		str	r3, [r4, #56]
  95:Drivers/STM32F7xx_HAL_Driver/Src/stm32f7xx_ll_usb.c **** 
 144              		.loc 1 95 5 is_stmt 1 view .LVU35
  95:Drivers/STM32F7xx_HAL_Driver/Src/stm32f7xx_ll_usb.c **** 
 145              		.loc 1 95 19 is_stmt 0 view .LVU36
 146 001a E268     		ldr	r2, [r4, #12]
 147 001c 164B     		ldr	r3, .L17
 148 001e 1340     		ands	r3, r3, r2
 149 0020 E360     		str	r3, [r4, #12]
 103:Drivers/STM32F7xx_HAL_Driver/Src/stm32f7xx_ll_usb.c ****     if (cfg.use_external_vbus == 1U)
 150              		.loc 1 103 5 is_stmt 1 view .LVU37
 103:Drivers/STM32F7xx_HAL_Driver/Src/stm32f7xx_ll_usb.c ****     if (cfg.use_external_vbus == 1U)
 151              		.loc 1 103 19 is_stmt 0 view .LVU38
 152 0022 E368     		ldr	r3, [r4, #12]
 153 0024 23F44013 		bic	r3, r3, #3145728
 154 0028 E360     		str	r3, [r4, #12]
 104:Drivers/STM32F7xx_HAL_Driver/Src/stm32f7xx_ll_usb.c ****     {
 155              		.loc 1 104 5 is_stmt 1 view .LVU39
 104:Drivers/STM32F7xx_HAL_Driver/Src/stm32f7xx_ll_usb.c ****     {
 156              		.loc 1 104 12 is_stmt 0 view .LVU40
 157 002a 0F9B     		ldr	r3, [sp, #60]
ARM GAS  /tmp/cc8xco1Q.s 			page 28


 104:Drivers/STM32F7xx_HAL_Driver/Src/stm32f7xx_ll_usb.c ****     {
 158              		.loc 1 104 8 view .LVU41
 159 002c 012B     		cmp	r3, #1
 160 002e 09D0     		beq	.L15
 161              	.L11:
 109:Drivers/STM32F7xx_HAL_Driver/Src/stm32f7xx_ll_usb.c ****   }
 162              		.loc 1 109 5 is_stmt 1 view .LVU42
 109:Drivers/STM32F7xx_HAL_Driver/Src/stm32f7xx_ll_usb.c ****   }
 163              		.loc 1 109 11 is_stmt 0 view .LVU43
 164 0030 2046     		mov	r0, r4
 165              	.LVL12:
 109:Drivers/STM32F7xx_HAL_Driver/Src/stm32f7xx_ll_usb.c ****   }
 166              		.loc 1 109 11 view .LVU44
 167 0032 FFF7FEFF 		bl	USB_CoreReset
 168              	.LVL13:
 169              	.L12:
 152:Drivers/STM32F7xx_HAL_Driver/Src/stm32f7xx_ll_usb.c ****   {
 170              		.loc 1 152 3 is_stmt 1 view .LVU45
 152:Drivers/STM32F7xx_HAL_Driver/Src/stm32f7xx_ll_usb.c ****   {
 171              		.loc 1 152 10 is_stmt 0 view .LVU46
 172 0036 069B     		ldr	r3, [sp, #24]
 152:Drivers/STM32F7xx_HAL_Driver/Src/stm32f7xx_ll_usb.c ****   {
 173              		.loc 1 152 6 view .LVU47
 174 0038 012B     		cmp	r3, #1
 175 003a 14D0     		beq	.L16
 176              	.L13:
 158:Drivers/STM32F7xx_HAL_Driver/Src/stm32f7xx_ll_usb.c **** }
 177              		.loc 1 158 3 is_stmt 1 view .LVU48
 159:Drivers/STM32F7xx_HAL_Driver/Src/stm32f7xx_ll_usb.c **** 
 178              		.loc 1 159 1 is_stmt 0 view .LVU49
 179 003c BDE81040 		pop	{r4, lr}
 180              	.LCFI2:
 181              		.cfi_remember_state
 182              		.cfi_restore 14
 183              		.cfi_restore 4
 184              		.cfi_def_cfa_offset 16
 185              	.LVL14:
 159:Drivers/STM32F7xx_HAL_Driver/Src/stm32f7xx_ll_usb.c **** 
 186              		.loc 1 159 1 view .LVU50
 187 0040 04B0     		add	sp, sp, #16
 188              	.LCFI3:
 189              		.cfi_def_cfa_offset 0
 190 0042 7047     		bx	lr
 191              	.LVL15:
 192              	.L15:
 193              	.LCFI4:
 194              		.cfi_restore_state
 106:Drivers/STM32F7xx_HAL_Driver/Src/stm32f7xx_ll_usb.c ****     }
 195              		.loc 1 106 7 is_stmt 1 view .LVU51
 106:Drivers/STM32F7xx_HAL_Driver/Src/stm32f7xx_ll_usb.c ****     }
 196              		.loc 1 106 21 is_stmt 0 view .LVU52
 197 0044 E368     		ldr	r3, [r4, #12]
 198 0046 43F48013 		orr	r3, r3, #1048576
 199 004a E360     		str	r3, [r4, #12]
 200 004c F0E7     		b	.L11
 201              	.L10:
 143:Drivers/STM32F7xx_HAL_Driver/Src/stm32f7xx_ll_usb.c **** 
ARM GAS  /tmp/cc8xco1Q.s 			page 29


 202              		.loc 1 143 5 is_stmt 1 view .LVU53
 143:Drivers/STM32F7xx_HAL_Driver/Src/stm32f7xx_ll_usb.c **** 
 203              		.loc 1 143 19 is_stmt 0 view .LVU54
 204 004e E368     		ldr	r3, [r4, #12]
 205 0050 43F04003 		orr	r3, r3, #64
 206 0054 E360     		str	r3, [r4, #12]
 146:Drivers/STM32F7xx_HAL_Driver/Src/stm32f7xx_ll_usb.c **** 
 207              		.loc 1 146 5 is_stmt 1 view .LVU55
 146:Drivers/STM32F7xx_HAL_Driver/Src/stm32f7xx_ll_usb.c **** 
 208              		.loc 1 146 11 is_stmt 0 view .LVU56
 209 0056 2046     		mov	r0, r4
 210              	.LVL16:
 146:Drivers/STM32F7xx_HAL_Driver/Src/stm32f7xx_ll_usb.c **** 
 211              		.loc 1 146 11 view .LVU57
 212 0058 FFF7FEFF 		bl	USB_CoreReset
 213              	.LVL17:
 149:Drivers/STM32F7xx_HAL_Driver/Src/stm32f7xx_ll_usb.c ****   }
 214              		.loc 1 149 5 is_stmt 1 view .LVU58
 149:Drivers/STM32F7xx_HAL_Driver/Src/stm32f7xx_ll_usb.c ****   }
 215              		.loc 1 149 17 is_stmt 0 view .LVU59
 216 005c A36B     		ldr	r3, [r4, #56]
 217 005e 43F48033 		orr	r3, r3, #65536
 218 0062 A363     		str	r3, [r4, #56]
 219 0064 E7E7     		b	.L12
 220              	.L16:
 154:Drivers/STM32F7xx_HAL_Driver/Src/stm32f7xx_ll_usb.c ****     USBx->GAHBCFG |= USB_OTG_GAHBCFG_DMAEN;
 221              		.loc 1 154 5 is_stmt 1 view .LVU60
 154:Drivers/STM32F7xx_HAL_Driver/Src/stm32f7xx_ll_usb.c ****     USBx->GAHBCFG |= USB_OTG_GAHBCFG_DMAEN;
 222              		.loc 1 154 19 is_stmt 0 view .LVU61
 223 0066 A368     		ldr	r3, [r4, #8]
 224 0068 43F00603 		orr	r3, r3, #6
 225 006c A360     		str	r3, [r4, #8]
 155:Drivers/STM32F7xx_HAL_Driver/Src/stm32f7xx_ll_usb.c ****   }
 226              		.loc 1 155 5 is_stmt 1 view .LVU62
 155:Drivers/STM32F7xx_HAL_Driver/Src/stm32f7xx_ll_usb.c ****   }
 227              		.loc 1 155 19 is_stmt 0 view .LVU63
 228 006e A368     		ldr	r3, [r4, #8]
 229 0070 43F02003 		orr	r3, r3, #32
 230 0074 A360     		str	r3, [r4, #8]
 231 0076 E1E7     		b	.L13
 232              	.L18:
 233              		.align	2
 234              	.L17:
 235 0078 BFFFBDFF 		.word	-4325441
 236              		.cfi_endproc
 237              	.LFE141:
 239              		.section	.text.USB_SetTurnaroundTime,"ax",%progbits
 240              		.align	1
 241              		.global	USB_SetTurnaroundTime
 242              		.syntax unified
 243              		.thumb
 244              		.thumb_func
 245              		.fpu fpv5-d16
 247              	USB_SetTurnaroundTime:
 248              	.LVL18:
 249              	.LFB142:
 170:Drivers/STM32F7xx_HAL_Driver/Src/stm32f7xx_ll_usb.c ****   uint32_t UsbTrd;
ARM GAS  /tmp/cc8xco1Q.s 			page 30


 250              		.loc 1 170 1 is_stmt 1 view -0
 251              		.cfi_startproc
 252              		@ args = 0, pretend = 0, frame = 0
 253              		@ frame_needed = 0, uses_anonymous_args = 0
 254              		@ link register save eliminated.
 171:Drivers/STM32F7xx_HAL_Driver/Src/stm32f7xx_ll_usb.c **** 
 255              		.loc 1 171 3 view .LVU65
 177:Drivers/STM32F7xx_HAL_Driver/Src/stm32f7xx_ll_usb.c ****   {
 256              		.loc 1 177 3 view .LVU66
 177:Drivers/STM32F7xx_HAL_Driver/Src/stm32f7xx_ll_usb.c ****   {
 257              		.loc 1 177 6 is_stmt 0 view .LVU67
 258 0000 022A     		cmp	r2, #2
 259 0002 0AD0     		beq	.L31
 232:Drivers/STM32F7xx_HAL_Driver/Src/stm32f7xx_ll_usb.c ****   }
 260              		.loc 1 232 12 view .LVU68
 261 0004 0921     		movs	r1, #9
 262              	.LVL19:
 263              	.L20:
 239:Drivers/STM32F7xx_HAL_Driver/Src/stm32f7xx_ll_usb.c ****   USBx->GUSBCFG |= (uint32_t)((UsbTrd << 10) & USB_OTG_GUSBCFG_TRDT);
 264              		.loc 1 239 3 is_stmt 1 view .LVU69
 239:Drivers/STM32F7xx_HAL_Driver/Src/stm32f7xx_ll_usb.c ****   USBx->GUSBCFG |= (uint32_t)((UsbTrd << 10) & USB_OTG_GUSBCFG_TRDT);
 265              		.loc 1 239 17 is_stmt 0 view .LVU70
 266 0006 C268     		ldr	r2, [r0, #12]
 267 0008 22F47052 		bic	r2, r2, #15360
 268 000c C260     		str	r2, [r0, #12]
 240:Drivers/STM32F7xx_HAL_Driver/Src/stm32f7xx_ll_usb.c **** 
 269              		.loc 1 240 3 is_stmt 1 view .LVU71
 240:Drivers/STM32F7xx_HAL_Driver/Src/stm32f7xx_ll_usb.c **** 
 270              		.loc 1 240 17 is_stmt 0 view .LVU72
 271 000e C368     		ldr	r3, [r0, #12]
 272 0010 43EA8123 		orr	r3, r3, r1, lsl #10
 273 0014 C360     		str	r3, [r0, #12]
 242:Drivers/STM32F7xx_HAL_Driver/Src/stm32f7xx_ll_usb.c **** }
 274              		.loc 1 242 3 is_stmt 1 view .LVU73
 243:Drivers/STM32F7xx_HAL_Driver/Src/stm32f7xx_ll_usb.c **** 
 275              		.loc 1 243 1 is_stmt 0 view .LVU74
 276 0016 0020     		movs	r0, #0
 277              	.LVL20:
 243:Drivers/STM32F7xx_HAL_Driver/Src/stm32f7xx_ll_usb.c **** 
 278              		.loc 1 243 1 view .LVU75
 279 0018 7047     		bx	lr
 280              	.LVL21:
 281              	.L31:
 179:Drivers/STM32F7xx_HAL_Driver/Src/stm32f7xx_ll_usb.c ****     {
 282              		.loc 1 179 5 is_stmt 1 view .LVU76
 179:Drivers/STM32F7xx_HAL_Driver/Src/stm32f7xx_ll_usb.c ****     {
 283              		.loc 1 179 29 is_stmt 0 view .LVU77
 284 001a 204B     		ldr	r3, .L32
 285 001c 0B44     		add	r3, r3, r1
 179:Drivers/STM32F7xx_HAL_Driver/Src/stm32f7xx_ll_usb.c ****     {
 286              		.loc 1 179 8 view .LVU78
 287 001e 204A     		ldr	r2, .L32+4
 288              	.LVL22:
 179:Drivers/STM32F7xx_HAL_Driver/Src/stm32f7xx_ll_usb.c ****     {
 289              		.loc 1 179 8 view .LVU79
 290 0020 9342     		cmp	r3, r2
 291 0022 29D9     		bls	.L22
ARM GAS  /tmp/cc8xco1Q.s 			page 31


 184:Drivers/STM32F7xx_HAL_Driver/Src/stm32f7xx_ll_usb.c ****     {
 292              		.loc 1 184 10 is_stmt 1 view .LVU80
 184:Drivers/STM32F7xx_HAL_Driver/Src/stm32f7xx_ll_usb.c ****     {
 293              		.loc 1 184 34 is_stmt 0 view .LVU81
 294 0024 1F4B     		ldr	r3, .L32+8
 295 0026 0B44     		add	r3, r3, r1
 184:Drivers/STM32F7xx_HAL_Driver/Src/stm32f7xx_ll_usb.c ****     {
 296              		.loc 1 184 13 view .LVU82
 297 0028 1F4A     		ldr	r2, .L32+12
 298 002a 9342     		cmp	r3, r2
 299 002c 26D9     		bls	.L23
 189:Drivers/STM32F7xx_HAL_Driver/Src/stm32f7xx_ll_usb.c ****     {
 300              		.loc 1 189 10 is_stmt 1 view .LVU83
 189:Drivers/STM32F7xx_HAL_Driver/Src/stm32f7xx_ll_usb.c ****     {
 301              		.loc 1 189 34 is_stmt 0 view .LVU84
 302 002e 1F4B     		ldr	r3, .L32+16
 303 0030 0B44     		add	r3, r3, r1
 189:Drivers/STM32F7xx_HAL_Driver/Src/stm32f7xx_ll_usb.c ****     {
 304              		.loc 1 189 13 view .LVU85
 305 0032 1F4A     		ldr	r2, .L32+20
 306 0034 9342     		cmp	r3, r2
 307 0036 23D9     		bls	.L24
 194:Drivers/STM32F7xx_HAL_Driver/Src/stm32f7xx_ll_usb.c ****     {
 308              		.loc 1 194 10 is_stmt 1 view .LVU86
 194:Drivers/STM32F7xx_HAL_Driver/Src/stm32f7xx_ll_usb.c ****     {
 309              		.loc 1 194 34 is_stmt 0 view .LVU87
 310 0038 1E4B     		ldr	r3, .L32+24
 311 003a 0B44     		add	r3, r3, r1
 194:Drivers/STM32F7xx_HAL_Driver/Src/stm32f7xx_ll_usb.c ****     {
 312              		.loc 1 194 13 view .LVU88
 313 003c 1E4A     		ldr	r2, .L32+28
 314 003e 9342     		cmp	r3, r2
 315 0040 20D3     		bcc	.L25
 199:Drivers/STM32F7xx_HAL_Driver/Src/stm32f7xx_ll_usb.c ****     {
 316              		.loc 1 199 10 is_stmt 1 view .LVU89
 199:Drivers/STM32F7xx_HAL_Driver/Src/stm32f7xx_ll_usb.c ****     {
 317              		.loc 1 199 34 is_stmt 0 view .LVU90
 318 0042 1E4B     		ldr	r3, .L32+32
 319 0044 0B44     		add	r3, r3, r1
 199:Drivers/STM32F7xx_HAL_Driver/Src/stm32f7xx_ll_usb.c ****     {
 320              		.loc 1 199 13 view .LVU91
 321 0046 1E4A     		ldr	r2, .L32+36
 322 0048 9342     		cmp	r3, r2
 323 004a 1DD9     		bls	.L26
 204:Drivers/STM32F7xx_HAL_Driver/Src/stm32f7xx_ll_usb.c ****     {
 324              		.loc 1 204 10 is_stmt 1 view .LVU92
 204:Drivers/STM32F7xx_HAL_Driver/Src/stm32f7xx_ll_usb.c ****     {
 325              		.loc 1 204 34 is_stmt 0 view .LVU93
 326 004c 1D4B     		ldr	r3, .L32+40
 327 004e 0B44     		add	r3, r3, r1
 204:Drivers/STM32F7xx_HAL_Driver/Src/stm32f7xx_ll_usb.c ****     {
 328              		.loc 1 204 13 view .LVU94
 329 0050 1D4A     		ldr	r2, .L32+44
 330 0052 9342     		cmp	r3, r2
 331 0054 1AD3     		bcc	.L27
 209:Drivers/STM32F7xx_HAL_Driver/Src/stm32f7xx_ll_usb.c ****     {
 332              		.loc 1 209 10 is_stmt 1 view .LVU95
ARM GAS  /tmp/cc8xco1Q.s 			page 32


 209:Drivers/STM32F7xx_HAL_Driver/Src/stm32f7xx_ll_usb.c ****     {
 333              		.loc 1 209 34 is_stmt 0 view .LVU96
 334 0056 1D4B     		ldr	r3, .L32+48
 335 0058 0B44     		add	r3, r3, r1
 209:Drivers/STM32F7xx_HAL_Driver/Src/stm32f7xx_ll_usb.c ****     {
 336              		.loc 1 209 13 view .LVU97
 337 005a 1D4A     		ldr	r2, .L32+52
 338 005c 9342     		cmp	r3, r2
 339 005e 17D3     		bcc	.L28
 214:Drivers/STM32F7xx_HAL_Driver/Src/stm32f7xx_ll_usb.c ****     {
 340              		.loc 1 214 10 is_stmt 1 view .LVU98
 214:Drivers/STM32F7xx_HAL_Driver/Src/stm32f7xx_ll_usb.c ****     {
 341              		.loc 1 214 34 is_stmt 0 view .LVU99
 342 0060 1C4B     		ldr	r3, .L32+56
 343 0062 0B44     		add	r3, r3, r1
 214:Drivers/STM32F7xx_HAL_Driver/Src/stm32f7xx_ll_usb.c ****     {
 344              		.loc 1 214 13 view .LVU100
 345 0064 1C4A     		ldr	r2, .L32+60
 346 0066 9342     		cmp	r3, r2
 347 0068 14D3     		bcc	.L29
 219:Drivers/STM32F7xx_HAL_Driver/Src/stm32f7xx_ll_usb.c ****     {
 348              		.loc 1 219 10 is_stmt 1 view .LVU101
 219:Drivers/STM32F7xx_HAL_Driver/Src/stm32f7xx_ll_usb.c ****     {
 349              		.loc 1 219 34 is_stmt 0 view .LVU102
 350 006a 1C4B     		ldr	r3, .L32+64
 351 006c 0B44     		add	r3, r3, r1
 219:Drivers/STM32F7xx_HAL_Driver/Src/stm32f7xx_ll_usb.c ****     {
 352              		.loc 1 219 13 view .LVU103
 353 006e 1C4A     		ldr	r2, .L32+68
 354 0070 9342     		cmp	r3, r2
 355 0072 11D2     		bcs	.L30
 222:Drivers/STM32F7xx_HAL_Driver/Src/stm32f7xx_ll_usb.c ****     }
 356              		.loc 1 222 14 view .LVU104
 357 0074 0721     		movs	r1, #7
 358              	.LVL23:
 222:Drivers/STM32F7xx_HAL_Driver/Src/stm32f7xx_ll_usb.c ****     }
 359              		.loc 1 222 14 view .LVU105
 360 0076 C6E7     		b	.L20
 361              	.LVL24:
 362              	.L22:
 182:Drivers/STM32F7xx_HAL_Driver/Src/stm32f7xx_ll_usb.c ****     }
 363              		.loc 1 182 14 view .LVU106
 364 0078 0F21     		movs	r1, #15
 365              	.LVL25:
 182:Drivers/STM32F7xx_HAL_Driver/Src/stm32f7xx_ll_usb.c ****     }
 366              		.loc 1 182 14 view .LVU107
 367 007a C4E7     		b	.L20
 368              	.LVL26:
 369              	.L23:
 187:Drivers/STM32F7xx_HAL_Driver/Src/stm32f7xx_ll_usb.c ****     }
 370              		.loc 1 187 14 view .LVU108
 371 007c 0E21     		movs	r1, #14
 372              	.LVL27:
 187:Drivers/STM32F7xx_HAL_Driver/Src/stm32f7xx_ll_usb.c ****     }
 373              		.loc 1 187 14 view .LVU109
 374 007e C2E7     		b	.L20
 375              	.LVL28:
ARM GAS  /tmp/cc8xco1Q.s 			page 33


 376              	.L24:
 192:Drivers/STM32F7xx_HAL_Driver/Src/stm32f7xx_ll_usb.c ****     }
 377              		.loc 1 192 14 view .LVU110
 378 0080 0D21     		movs	r1, #13
 379              	.LVL29:
 192:Drivers/STM32F7xx_HAL_Driver/Src/stm32f7xx_ll_usb.c ****     }
 380              		.loc 1 192 14 view .LVU111
 381 0082 C0E7     		b	.L20
 382              	.LVL30:
 383              	.L25:
 197:Drivers/STM32F7xx_HAL_Driver/Src/stm32f7xx_ll_usb.c ****     }
 384              		.loc 1 197 14 view .LVU112
 385 0084 0C21     		movs	r1, #12
 386              	.LVL31:
 197:Drivers/STM32F7xx_HAL_Driver/Src/stm32f7xx_ll_usb.c ****     }
 387              		.loc 1 197 14 view .LVU113
 388 0086 BEE7     		b	.L20
 389              	.LVL32:
 390              	.L26:
 202:Drivers/STM32F7xx_HAL_Driver/Src/stm32f7xx_ll_usb.c ****     }
 391              		.loc 1 202 14 view .LVU114
 392 0088 0B21     		movs	r1, #11
 393              	.LVL33:
 202:Drivers/STM32F7xx_HAL_Driver/Src/stm32f7xx_ll_usb.c ****     }
 394              		.loc 1 202 14 view .LVU115
 395 008a BCE7     		b	.L20
 396              	.LVL34:
 397              	.L27:
 207:Drivers/STM32F7xx_HAL_Driver/Src/stm32f7xx_ll_usb.c ****     }
 398              		.loc 1 207 14 view .LVU116
 399 008c 0A21     		movs	r1, #10
 400              	.LVL35:
 207:Drivers/STM32F7xx_HAL_Driver/Src/stm32f7xx_ll_usb.c ****     }
 401              		.loc 1 207 14 view .LVU117
 402 008e BAE7     		b	.L20
 403              	.LVL36:
 404              	.L28:
 212:Drivers/STM32F7xx_HAL_Driver/Src/stm32f7xx_ll_usb.c ****     }
 405              		.loc 1 212 14 view .LVU118
 406 0090 0921     		movs	r1, #9
 407              	.LVL37:
 212:Drivers/STM32F7xx_HAL_Driver/Src/stm32f7xx_ll_usb.c ****     }
 408              		.loc 1 212 14 view .LVU119
 409 0092 B8E7     		b	.L20
 410              	.LVL38:
 411              	.L29:
 217:Drivers/STM32F7xx_HAL_Driver/Src/stm32f7xx_ll_usb.c ****     }
 412              		.loc 1 217 14 view .LVU120
 413 0094 0821     		movs	r1, #8
 414              	.LVL39:
 217:Drivers/STM32F7xx_HAL_Driver/Src/stm32f7xx_ll_usb.c ****     }
 415              		.loc 1 217 14 view .LVU121
 416 0096 B6E7     		b	.L20
 417              	.LVL40:
 418              	.L30:
 227:Drivers/STM32F7xx_HAL_Driver/Src/stm32f7xx_ll_usb.c ****     }
 419              		.loc 1 227 14 view .LVU122
ARM GAS  /tmp/cc8xco1Q.s 			page 34


 420 0098 0621     		movs	r1, #6
 421              	.LVL41:
 227:Drivers/STM32F7xx_HAL_Driver/Src/stm32f7xx_ll_usb.c ****     }
 422              		.loc 1 227 14 view .LVU123
 423 009a B4E7     		b	.L20
 424              	.L33:
 425              		.align	2
 426              	.L32:
 427 009c 405327FF 		.word	-14200000
 428 00a0 FF340C00 		.word	799999
 429 00a4 401E1BFF 		.word	-15000000
 430 00a8 3F420F00 		.word	999999
 431 00ac 00DC0BFF 		.word	-16000000
 432 00b0 7F4F1200 		.word	1199999
 433 00b4 808CF9FE 		.word	-17200000
 434 00b8 20D61300 		.word	1300000
 435 00bc 60B6E5FE 		.word	-18500000
 436 00c0 5FE31600 		.word	1499999
 437 00c4 00D3CEFE 		.word	-20000000
 438 00c8 40771B00 		.word	1800000
 439 00cc C05BB3FE 		.word	-21800000
 440 00d0 C0912100 		.word	2200000
 441 00d4 00CA91FE 		.word	-24000000
 442 00d8 20753800 		.word	3700000
 443 00dc E05459FE 		.word	-27700000
 444 00e0 E09C4100 		.word	4300000
 445              		.cfi_endproc
 446              	.LFE142:
 448              		.section	.text.USB_EnableGlobalInt,"ax",%progbits
 449              		.align	1
 450              		.global	USB_EnableGlobalInt
 451              		.syntax unified
 452              		.thumb
 453              		.thumb_func
 454              		.fpu fpv5-d16
 456              	USB_EnableGlobalInt:
 457              	.LVL42:
 458              	.LFB143:
 252:Drivers/STM32F7xx_HAL_Driver/Src/stm32f7xx_ll_usb.c ****   USBx->GAHBCFG |= USB_OTG_GAHBCFG_GINT;
 459              		.loc 1 252 1 is_stmt 1 view -0
 460              		.cfi_startproc
 461              		@ args = 0, pretend = 0, frame = 0
 462              		@ frame_needed = 0, uses_anonymous_args = 0
 463              		@ link register save eliminated.
 253:Drivers/STM32F7xx_HAL_Driver/Src/stm32f7xx_ll_usb.c ****   return HAL_OK;
 464              		.loc 1 253 3 view .LVU125
 253:Drivers/STM32F7xx_HAL_Driver/Src/stm32f7xx_ll_usb.c ****   return HAL_OK;
 465              		.loc 1 253 17 is_stmt 0 view .LVU126
 466 0000 8368     		ldr	r3, [r0, #8]
 467 0002 43F00103 		orr	r3, r3, #1
 468 0006 8360     		str	r3, [r0, #8]
 254:Drivers/STM32F7xx_HAL_Driver/Src/stm32f7xx_ll_usb.c **** }
 469              		.loc 1 254 3 is_stmt 1 view .LVU127
 255:Drivers/STM32F7xx_HAL_Driver/Src/stm32f7xx_ll_usb.c **** 
 470              		.loc 1 255 1 is_stmt 0 view .LVU128
 471 0008 0020     		movs	r0, #0
 472              	.LVL43:
ARM GAS  /tmp/cc8xco1Q.s 			page 35


 255:Drivers/STM32F7xx_HAL_Driver/Src/stm32f7xx_ll_usb.c **** 
 473              		.loc 1 255 1 view .LVU129
 474 000a 7047     		bx	lr
 475              		.cfi_endproc
 476              	.LFE143:
 478              		.section	.text.USB_DisableGlobalInt,"ax",%progbits
 479              		.align	1
 480              		.global	USB_DisableGlobalInt
 481              		.syntax unified
 482              		.thumb
 483              		.thumb_func
 484              		.fpu fpv5-d16
 486              	USB_DisableGlobalInt:
 487              	.LVL44:
 488              	.LFB144:
 264:Drivers/STM32F7xx_HAL_Driver/Src/stm32f7xx_ll_usb.c ****   USBx->GAHBCFG &= ~USB_OTG_GAHBCFG_GINT;
 489              		.loc 1 264 1 is_stmt 1 view -0
 490              		.cfi_startproc
 491              		@ args = 0, pretend = 0, frame = 0
 492              		@ frame_needed = 0, uses_anonymous_args = 0
 493              		@ link register save eliminated.
 265:Drivers/STM32F7xx_HAL_Driver/Src/stm32f7xx_ll_usb.c ****   return HAL_OK;
 494              		.loc 1 265 3 view .LVU131
 265:Drivers/STM32F7xx_HAL_Driver/Src/stm32f7xx_ll_usb.c ****   return HAL_OK;
 495              		.loc 1 265 17 is_stmt 0 view .LVU132
 496 0000 8368     		ldr	r3, [r0, #8]
 497 0002 23F00103 		bic	r3, r3, #1
 498 0006 8360     		str	r3, [r0, #8]
 266:Drivers/STM32F7xx_HAL_Driver/Src/stm32f7xx_ll_usb.c **** }
 499              		.loc 1 266 3 is_stmt 1 view .LVU133
 267:Drivers/STM32F7xx_HAL_Driver/Src/stm32f7xx_ll_usb.c **** 
 500              		.loc 1 267 1 is_stmt 0 view .LVU134
 501 0008 0020     		movs	r0, #0
 502              	.LVL45:
 267:Drivers/STM32F7xx_HAL_Driver/Src/stm32f7xx_ll_usb.c **** 
 503              		.loc 1 267 1 view .LVU135
 504 000a 7047     		bx	lr
 505              		.cfi_endproc
 506              	.LFE144:
 508              		.section	.text.USB_SetCurrentMode,"ax",%progbits
 509              		.align	1
 510              		.global	USB_SetCurrentMode
 511              		.syntax unified
 512              		.thumb
 513              		.thumb_func
 514              		.fpu fpv5-d16
 516              	USB_SetCurrentMode:
 517              	.LVL46:
 518              	.LFB145:
 280:Drivers/STM32F7xx_HAL_Driver/Src/stm32f7xx_ll_usb.c ****   USBx->GUSBCFG &= ~(USB_OTG_GUSBCFG_FHMOD | USB_OTG_GUSBCFG_FDMOD);
 519              		.loc 1 280 1 is_stmt 1 view -0
 520              		.cfi_startproc
 521              		@ args = 0, pretend = 0, frame = 0
 522              		@ frame_needed = 0, uses_anonymous_args = 0
 280:Drivers/STM32F7xx_HAL_Driver/Src/stm32f7xx_ll_usb.c ****   USBx->GUSBCFG &= ~(USB_OTG_GUSBCFG_FHMOD | USB_OTG_GUSBCFG_FDMOD);
 523              		.loc 1 280 1 is_stmt 0 view .LVU137
 524 0000 08B5     		push	{r3, lr}
ARM GAS  /tmp/cc8xco1Q.s 			page 36


 525              	.LCFI5:
 526              		.cfi_def_cfa_offset 8
 527              		.cfi_offset 3, -8
 528              		.cfi_offset 14, -4
 281:Drivers/STM32F7xx_HAL_Driver/Src/stm32f7xx_ll_usb.c **** 
 529              		.loc 1 281 3 is_stmt 1 view .LVU138
 281:Drivers/STM32F7xx_HAL_Driver/Src/stm32f7xx_ll_usb.c **** 
 530              		.loc 1 281 17 is_stmt 0 view .LVU139
 531 0002 C368     		ldr	r3, [r0, #12]
 532 0004 23F0C043 		bic	r3, r3, #1610612736
 533 0008 C360     		str	r3, [r0, #12]
 283:Drivers/STM32F7xx_HAL_Driver/Src/stm32f7xx_ll_usb.c ****   {
 534              		.loc 1 283 3 is_stmt 1 view .LVU140
 283:Drivers/STM32F7xx_HAL_Driver/Src/stm32f7xx_ll_usb.c ****   {
 535              		.loc 1 283 6 is_stmt 0 view .LVU141
 536 000a 0129     		cmp	r1, #1
 537 000c 09D0     		beq	.L42
 287:Drivers/STM32F7xx_HAL_Driver/Src/stm32f7xx_ll_usb.c ****   {
 538              		.loc 1 287 8 is_stmt 1 view .LVU142
 287:Drivers/STM32F7xx_HAL_Driver/Src/stm32f7xx_ll_usb.c ****   {
 539              		.loc 1 287 11 is_stmt 0 view .LVU143
 540 000e 69B9     		cbnz	r1, .L40
 289:Drivers/STM32F7xx_HAL_Driver/Src/stm32f7xx_ll_usb.c ****   }
 541              		.loc 1 289 5 is_stmt 1 view .LVU144
 289:Drivers/STM32F7xx_HAL_Driver/Src/stm32f7xx_ll_usb.c ****   }
 542              		.loc 1 289 19 is_stmt 0 view .LVU145
 543 0010 C368     		ldr	r3, [r0, #12]
 544 0012 43F08043 		orr	r3, r3, #1073741824
 545 0016 C360     		str	r3, [r0, #12]
 546              	.L38:
 295:Drivers/STM32F7xx_HAL_Driver/Src/stm32f7xx_ll_usb.c **** 
 547              		.loc 1 295 3 is_stmt 1 view .LVU146
 548 0018 3220     		movs	r0, #50
 549              	.LVL47:
 295:Drivers/STM32F7xx_HAL_Driver/Src/stm32f7xx_ll_usb.c **** 
 550              		.loc 1 295 3 is_stmt 0 view .LVU147
 551 001a FFF7FEFF 		bl	HAL_Delay
 552              	.LVL48:
 297:Drivers/STM32F7xx_HAL_Driver/Src/stm32f7xx_ll_usb.c **** }
 553              		.loc 1 297 3 is_stmt 1 view .LVU148
 297:Drivers/STM32F7xx_HAL_Driver/Src/stm32f7xx_ll_usb.c **** }
 554              		.loc 1 297 10 is_stmt 0 view .LVU149
 555 001e 0020     		movs	r0, #0
 556              	.L39:
 298:Drivers/STM32F7xx_HAL_Driver/Src/stm32f7xx_ll_usb.c **** 
 557              		.loc 1 298 1 view .LVU150
 558 0020 08BD     		pop	{r3, pc}
 559              	.LVL49:
 560              	.L42:
 285:Drivers/STM32F7xx_HAL_Driver/Src/stm32f7xx_ll_usb.c ****   }
 561              		.loc 1 285 5 is_stmt 1 view .LVU151
 285:Drivers/STM32F7xx_HAL_Driver/Src/stm32f7xx_ll_usb.c ****   }
 562              		.loc 1 285 19 is_stmt 0 view .LVU152
 563 0022 C368     		ldr	r3, [r0, #12]
 564 0024 43F00053 		orr	r3, r3, #536870912
 565 0028 C360     		str	r3, [r0, #12]
 566 002a F5E7     		b	.L38
ARM GAS  /tmp/cc8xco1Q.s 			page 37


 567              	.L40:
 293:Drivers/STM32F7xx_HAL_Driver/Src/stm32f7xx_ll_usb.c ****   }
 568              		.loc 1 293 12 view .LVU153
 569 002c 0120     		movs	r0, #1
 570              	.LVL50:
 293:Drivers/STM32F7xx_HAL_Driver/Src/stm32f7xx_ll_usb.c ****   }
 571              		.loc 1 293 12 view .LVU154
 572 002e F7E7     		b	.L39
 573              		.cfi_endproc
 574              	.LFE145:
 576              		.section	.text.USB_FlushTxFifo,"ax",%progbits
 577              		.align	1
 578              		.global	USB_FlushTxFifo
 579              		.syntax unified
 580              		.thumb
 581              		.thumb_func
 582              		.fpu fpv5-d16
 584              	USB_FlushTxFifo:
 585              	.LVL51:
 586              	.LFB147:
 477:Drivers/STM32F7xx_HAL_Driver/Src/stm32f7xx_ll_usb.c ****   uint32_t count = 0U;
 587              		.loc 1 477 1 is_stmt 1 view -0
 588              		.cfi_startproc
 589              		@ args = 0, pretend = 0, frame = 0
 590              		@ frame_needed = 0, uses_anonymous_args = 0
 591              		@ link register save eliminated.
 478:Drivers/STM32F7xx_HAL_Driver/Src/stm32f7xx_ll_usb.c **** 
 592              		.loc 1 478 3 view .LVU156
 480:Drivers/STM32F7xx_HAL_Driver/Src/stm32f7xx_ll_usb.c **** 
 593              		.loc 1 480 3 view .LVU157
 480:Drivers/STM32F7xx_HAL_Driver/Src/stm32f7xx_ll_usb.c **** 
 594              		.loc 1 480 51 is_stmt 0 view .LVU158
 595 0000 8901     		lsls	r1, r1, #6
 596              	.LVL52:
 480:Drivers/STM32F7xx_HAL_Driver/Src/stm32f7xx_ll_usb.c **** 
 597              		.loc 1 480 44 view .LVU159
 598 0002 41F02001 		orr	r1, r1, #32
 480:Drivers/STM32F7xx_HAL_Driver/Src/stm32f7xx_ll_usb.c **** 
 599              		.loc 1 480 17 view .LVU160
 600 0006 0161     		str	r1, [r0, #16]
 478:Drivers/STM32F7xx_HAL_Driver/Src/stm32f7xx_ll_usb.c **** 
 601              		.loc 1 478 12 view .LVU161
 602 0008 0023     		movs	r3, #0
 603              	.LVL53:
 604              	.L45:
 482:Drivers/STM32F7xx_HAL_Driver/Src/stm32f7xx_ll_usb.c ****   {
 605              		.loc 1 482 3 is_stmt 1 view .LVU162
 484:Drivers/STM32F7xx_HAL_Driver/Src/stm32f7xx_ll_usb.c ****     {
 606              		.loc 1 484 5 view .LVU163
 484:Drivers/STM32F7xx_HAL_Driver/Src/stm32f7xx_ll_usb.c ****     {
 607              		.loc 1 484 8 is_stmt 0 view .LVU164
 608 000a 0133     		adds	r3, r3, #1
 609              	.LVL54:
 484:Drivers/STM32F7xx_HAL_Driver/Src/stm32f7xx_ll_usb.c ****     {
 610              		.loc 1 484 8 view .LVU165
 611 000c 054A     		ldr	r2, .L47
 612 000e 9342     		cmp	r3, r2
ARM GAS  /tmp/cc8xco1Q.s 			page 38


 613 0010 05D8     		bhi	.L46
 489:Drivers/STM32F7xx_HAL_Driver/Src/stm32f7xx_ll_usb.c **** 
 614              		.loc 1 489 9 is_stmt 1 view .LVU166
 489:Drivers/STM32F7xx_HAL_Driver/Src/stm32f7xx_ll_usb.c **** 
 615              		.loc 1 489 15 is_stmt 0 view .LVU167
 616 0012 0269     		ldr	r2, [r0, #16]
 489:Drivers/STM32F7xx_HAL_Driver/Src/stm32f7xx_ll_usb.c **** 
 617              		.loc 1 489 3 view .LVU168
 618 0014 12F0200F 		tst	r2, #32
 619 0018 F7D1     		bne	.L45
 491:Drivers/STM32F7xx_HAL_Driver/Src/stm32f7xx_ll_usb.c **** }
 620              		.loc 1 491 10 view .LVU169
 621 001a 0020     		movs	r0, #0
 622              	.LVL55:
 491:Drivers/STM32F7xx_HAL_Driver/Src/stm32f7xx_ll_usb.c **** }
 623              		.loc 1 491 10 view .LVU170
 624 001c 7047     		bx	lr
 625              	.LVL56:
 626              	.L46:
 486:Drivers/STM32F7xx_HAL_Driver/Src/stm32f7xx_ll_usb.c ****     }
 627              		.loc 1 486 14 view .LVU171
 628 001e 0320     		movs	r0, #3
 629              	.LVL57:
 492:Drivers/STM32F7xx_HAL_Driver/Src/stm32f7xx_ll_usb.c **** 
 630              		.loc 1 492 1 view .LVU172
 631 0020 7047     		bx	lr
 632              	.L48:
 633 0022 00BF     		.align	2
 634              	.L47:
 635 0024 400D0300 		.word	200000
 636              		.cfi_endproc
 637              	.LFE147:
 639              		.section	.text.USB_FlushRxFifo,"ax",%progbits
 640              		.align	1
 641              		.global	USB_FlushRxFifo
 642              		.syntax unified
 643              		.thumb
 644              		.thumb_func
 645              		.fpu fpv5-d16
 647              	USB_FlushRxFifo:
 648              	.LVL58:
 649              	.LFB148:
 500:Drivers/STM32F7xx_HAL_Driver/Src/stm32f7xx_ll_usb.c ****   uint32_t count = 0;
 650              		.loc 1 500 1 is_stmt 1 view -0
 651              		.cfi_startproc
 652              		@ args = 0, pretend = 0, frame = 0
 653              		@ frame_needed = 0, uses_anonymous_args = 0
 654              		@ link register save eliminated.
 501:Drivers/STM32F7xx_HAL_Driver/Src/stm32f7xx_ll_usb.c **** 
 655              		.loc 1 501 3 view .LVU174
 503:Drivers/STM32F7xx_HAL_Driver/Src/stm32f7xx_ll_usb.c **** 
 656              		.loc 1 503 3 view .LVU175
 503:Drivers/STM32F7xx_HAL_Driver/Src/stm32f7xx_ll_usb.c **** 
 657              		.loc 1 503 17 is_stmt 0 view .LVU176
 658 0000 1023     		movs	r3, #16
 659 0002 0361     		str	r3, [r0, #16]
 501:Drivers/STM32F7xx_HAL_Driver/Src/stm32f7xx_ll_usb.c **** 
ARM GAS  /tmp/cc8xco1Q.s 			page 39


 660              		.loc 1 501 12 view .LVU177
 661 0004 0023     		movs	r3, #0
 662              	.LVL59:
 663              	.L51:
 505:Drivers/STM32F7xx_HAL_Driver/Src/stm32f7xx_ll_usb.c ****   {
 664              		.loc 1 505 3 is_stmt 1 view .LVU178
 507:Drivers/STM32F7xx_HAL_Driver/Src/stm32f7xx_ll_usb.c ****     {
 665              		.loc 1 507 5 view .LVU179
 507:Drivers/STM32F7xx_HAL_Driver/Src/stm32f7xx_ll_usb.c ****     {
 666              		.loc 1 507 8 is_stmt 0 view .LVU180
 667 0006 0133     		adds	r3, r3, #1
 668              	.LVL60:
 507:Drivers/STM32F7xx_HAL_Driver/Src/stm32f7xx_ll_usb.c ****     {
 669              		.loc 1 507 8 view .LVU181
 670 0008 054A     		ldr	r2, .L53
 671 000a 9342     		cmp	r3, r2
 672 000c 05D8     		bhi	.L52
 512:Drivers/STM32F7xx_HAL_Driver/Src/stm32f7xx_ll_usb.c **** 
 673              		.loc 1 512 9 is_stmt 1 view .LVU182
 512:Drivers/STM32F7xx_HAL_Driver/Src/stm32f7xx_ll_usb.c **** 
 674              		.loc 1 512 15 is_stmt 0 view .LVU183
 675 000e 0269     		ldr	r2, [r0, #16]
 512:Drivers/STM32F7xx_HAL_Driver/Src/stm32f7xx_ll_usb.c **** 
 676              		.loc 1 512 3 view .LVU184
 677 0010 12F0100F 		tst	r2, #16
 678 0014 F7D1     		bne	.L51
 514:Drivers/STM32F7xx_HAL_Driver/Src/stm32f7xx_ll_usb.c **** }
 679              		.loc 1 514 10 view .LVU185
 680 0016 0020     		movs	r0, #0
 681              	.LVL61:
 514:Drivers/STM32F7xx_HAL_Driver/Src/stm32f7xx_ll_usb.c **** }
 682              		.loc 1 514 10 view .LVU186
 683 0018 7047     		bx	lr
 684              	.LVL62:
 685              	.L52:
 509:Drivers/STM32F7xx_HAL_Driver/Src/stm32f7xx_ll_usb.c ****     }
 686              		.loc 1 509 14 view .LVU187
 687 001a 0320     		movs	r0, #3
 688              	.LVL63:
 515:Drivers/STM32F7xx_HAL_Driver/Src/stm32f7xx_ll_usb.c **** 
 689              		.loc 1 515 1 view .LVU188
 690 001c 7047     		bx	lr
 691              	.L54:
 692 001e 00BF     		.align	2
 693              	.L53:
 694 0020 400D0300 		.word	200000
 695              		.cfi_endproc
 696              	.LFE148:
 698              		.section	.text.USB_SetDevSpeed,"ax",%progbits
 699              		.align	1
 700              		.global	USB_SetDevSpeed
 701              		.syntax unified
 702              		.thumb
 703              		.thumb_func
 704              		.fpu fpv5-d16
 706              	USB_SetDevSpeed:
 707              	.LVL64:
ARM GAS  /tmp/cc8xco1Q.s 			page 40


 708              	.LFB149:
 529:Drivers/STM32F7xx_HAL_Driver/Src/stm32f7xx_ll_usb.c ****   uint32_t USBx_BASE = (uint32_t)USBx;
 709              		.loc 1 529 1 is_stmt 1 view -0
 710              		.cfi_startproc
 711              		@ args = 0, pretend = 0, frame = 0
 712              		@ frame_needed = 0, uses_anonymous_args = 0
 713              		@ link register save eliminated.
 530:Drivers/STM32F7xx_HAL_Driver/Src/stm32f7xx_ll_usb.c **** 
 714              		.loc 1 530 3 view .LVU190
 532:Drivers/STM32F7xx_HAL_Driver/Src/stm32f7xx_ll_usb.c ****   return HAL_OK;
 715              		.loc 1 532 3 view .LVU191
 532:Drivers/STM32F7xx_HAL_Driver/Src/stm32f7xx_ll_usb.c ****   return HAL_OK;
 716              		.loc 1 532 21 is_stmt 0 view .LVU192
 717 0000 D0F80038 		ldr	r3, [r0, #2048]
 718 0004 1943     		orrs	r1, r1, r3
 719              	.LVL65:
 532:Drivers/STM32F7xx_HAL_Driver/Src/stm32f7xx_ll_usb.c ****   return HAL_OK;
 720              		.loc 1 532 21 view .LVU193
 721 0006 C0F80018 		str	r1, [r0, #2048]
 533:Drivers/STM32F7xx_HAL_Driver/Src/stm32f7xx_ll_usb.c **** }
 722              		.loc 1 533 3 is_stmt 1 view .LVU194
 534:Drivers/STM32F7xx_HAL_Driver/Src/stm32f7xx_ll_usb.c **** 
 723              		.loc 1 534 1 is_stmt 0 view .LVU195
 724 000a 0020     		movs	r0, #0
 725              	.LVL66:
 534:Drivers/STM32F7xx_HAL_Driver/Src/stm32f7xx_ll_usb.c **** 
 726              		.loc 1 534 1 view .LVU196
 727 000c 7047     		bx	lr
 728              		.cfi_endproc
 729              	.LFE149:
 731              		.section	.text.USB_DevInit,"ax",%progbits
 732              		.align	1
 733              		.global	USB_DevInit
 734              		.syntax unified
 735              		.thumb
 736              		.thumb_func
 737              		.fpu fpv5-d16
 739              	USB_DevInit:
 740              	.LVL67:
 741              	.LFB146:
 309:Drivers/STM32F7xx_HAL_Driver/Src/stm32f7xx_ll_usb.c ****   HAL_StatusTypeDef ret = HAL_OK;
 742              		.loc 1 309 1 is_stmt 1 view -0
 743              		.cfi_startproc
 744              		@ args = 56, pretend = 16, frame = 0
 745              		@ frame_needed = 0, uses_anonymous_args = 0
 309:Drivers/STM32F7xx_HAL_Driver/Src/stm32f7xx_ll_usb.c ****   HAL_StatusTypeDef ret = HAL_OK;
 746              		.loc 1 309 1 is_stmt 0 view .LVU198
 747 0000 84B0     		sub	sp, sp, #16
 748              	.LCFI6:
 749              		.cfi_def_cfa_offset 16
 750 0002 2DE9F041 		push	{r4, r5, r6, r7, r8, lr}
 751              	.LCFI7:
 752              		.cfi_def_cfa_offset 40
 753              		.cfi_offset 4, -40
 754              		.cfi_offset 5, -36
 755              		.cfi_offset 6, -32
 756              		.cfi_offset 7, -28
ARM GAS  /tmp/cc8xco1Q.s 			page 41


 757              		.cfi_offset 8, -24
 758              		.cfi_offset 14, -20
 759 0006 0446     		mov	r4, r0
 760 0008 07A8     		add	r0, sp, #28
 761 000a 80E80E00 		stm	r0, {r1, r2, r3}
 310:Drivers/STM32F7xx_HAL_Driver/Src/stm32f7xx_ll_usb.c ****   uint32_t USBx_BASE = (uint32_t)USBx;
 762              		.loc 1 310 3 is_stmt 1 view .LVU199
 763              	.LVL68:
 311:Drivers/STM32F7xx_HAL_Driver/Src/stm32f7xx_ll_usb.c ****   uint32_t i;
 764              		.loc 1 311 3 view .LVU200
 312:Drivers/STM32F7xx_HAL_Driver/Src/stm32f7xx_ll_usb.c **** 
 765              		.loc 1 312 3 view .LVU201
 314:Drivers/STM32F7xx_HAL_Driver/Src/stm32f7xx_ll_usb.c ****   {
 766              		.loc 1 314 3 view .LVU202
 314:Drivers/STM32F7xx_HAL_Driver/Src/stm32f7xx_ll_usb.c ****   {
 767              		.loc 1 314 10 is_stmt 0 view .LVU203
 768 000e 0023     		movs	r3, #0
 314:Drivers/STM32F7xx_HAL_Driver/Src/stm32f7xx_ll_usb.c ****   {
 769              		.loc 1 314 3 view .LVU204
 770 0010 06E0     		b	.L57
 771              	.LVL69:
 772              	.L58:
 316:Drivers/STM32F7xx_HAL_Driver/Src/stm32f7xx_ll_usb.c ****   }
 773              		.loc 1 316 5 is_stmt 1 discriminator 3 view .LVU205
 316:Drivers/STM32F7xx_HAL_Driver/Src/stm32f7xx_ll_usb.c ****   }
 774              		.loc 1 316 22 is_stmt 0 discriminator 3 view .LVU206
 775 0012 03F14002 		add	r2, r3, #64
 776 0016 04EB8202 		add	r2, r4, r2, lsl #2
 777 001a 0021     		movs	r1, #0
 778 001c 5160     		str	r1, [r2, #4]
 314:Drivers/STM32F7xx_HAL_Driver/Src/stm32f7xx_ll_usb.c ****   {
 779              		.loc 1 314 25 is_stmt 1 discriminator 3 view .LVU207
 314:Drivers/STM32F7xx_HAL_Driver/Src/stm32f7xx_ll_usb.c ****   {
 780              		.loc 1 314 26 is_stmt 0 discriminator 3 view .LVU208
 781 001e 0133     		adds	r3, r3, #1
 782              	.LVL70:
 783              	.L57:
 314:Drivers/STM32F7xx_HAL_Driver/Src/stm32f7xx_ll_usb.c ****   {
 784              		.loc 1 314 16 is_stmt 1 discriminator 1 view .LVU209
 314:Drivers/STM32F7xx_HAL_Driver/Src/stm32f7xx_ll_usb.c ****   {
 785              		.loc 1 314 3 is_stmt 0 discriminator 1 view .LVU210
 786 0020 0E2B     		cmp	r3, #14
 787 0022 F6D9     		bls	.L58
 320:Drivers/STM32F7xx_HAL_Driver/Src/stm32f7xx_ll_usb.c ****   {
 788              		.loc 1 320 3 is_stmt 1 view .LVU211
 320:Drivers/STM32F7xx_HAL_Driver/Src/stm32f7xx_ll_usb.c ****   {
 789              		.loc 1 320 10 is_stmt 0 view .LVU212
 790 0024 119F     		ldr	r7, [sp, #68]
 320:Drivers/STM32F7xx_HAL_Driver/Src/stm32f7xx_ll_usb.c ****   {
 791              		.loc 1 320 6 view .LVU213
 792 0026 37BB     		cbnz	r7, .L59
 322:Drivers/STM32F7xx_HAL_Driver/Src/stm32f7xx_ll_usb.c **** 
 793              		.loc 1 322 5 is_stmt 1 view .LVU214
 322:Drivers/STM32F7xx_HAL_Driver/Src/stm32f7xx_ll_usb.c **** 
 794              		.loc 1 322 23 is_stmt 0 view .LVU215
 795 0028 D4F80438 		ldr	r3, [r4, #2052]
 796              	.LVL71:
ARM GAS  /tmp/cc8xco1Q.s 			page 42


 322:Drivers/STM32F7xx_HAL_Driver/Src/stm32f7xx_ll_usb.c **** 
 797              		.loc 1 322 23 view .LVU216
 798 002c 43F00203 		orr	r3, r3, #2
 799 0030 C4F80438 		str	r3, [r4, #2052]
 325:Drivers/STM32F7xx_HAL_Driver/Src/stm32f7xx_ll_usb.c **** 
 800              		.loc 1 325 5 is_stmt 1 view .LVU217
 325:Drivers/STM32F7xx_HAL_Driver/Src/stm32f7xx_ll_usb.c **** 
 801              		.loc 1 325 17 is_stmt 0 view .LVU218
 802 0034 A36B     		ldr	r3, [r4, #56]
 803 0036 23F40013 		bic	r3, r3, #2097152
 804 003a A363     		str	r3, [r4, #56]
 328:Drivers/STM32F7xx_HAL_Driver/Src/stm32f7xx_ll_usb.c ****     USBx->GOTGCTL |= USB_OTG_GOTGCTL_BVALOVAL;
 805              		.loc 1 328 5 is_stmt 1 view .LVU219
 328:Drivers/STM32F7xx_HAL_Driver/Src/stm32f7xx_ll_usb.c ****     USBx->GOTGCTL |= USB_OTG_GOTGCTL_BVALOVAL;
 806              		.loc 1 328 19 is_stmt 0 view .LVU220
 807 003c 2368     		ldr	r3, [r4]
 808 003e 43F04003 		orr	r3, r3, #64
 809 0042 2360     		str	r3, [r4]
 329:Drivers/STM32F7xx_HAL_Driver/Src/stm32f7xx_ll_usb.c ****   }
 810              		.loc 1 329 5 is_stmt 1 view .LVU221
 329:Drivers/STM32F7xx_HAL_Driver/Src/stm32f7xx_ll_usb.c ****   }
 811              		.loc 1 329 19 is_stmt 0 view .LVU222
 812 0044 2368     		ldr	r3, [r4]
 813 0046 43F08003 		orr	r3, r3, #128
 814 004a 2360     		str	r3, [r4]
 815              	.L60:
 338:Drivers/STM32F7xx_HAL_Driver/Src/stm32f7xx_ll_usb.c **** 
 816              		.loc 1 338 3 is_stmt 1 view .LVU223
 338:Drivers/STM32F7xx_HAL_Driver/Src/stm32f7xx_ll_usb.c **** 
 817              		.loc 1 338 16 is_stmt 0 view .LVU224
 818 004c 0023     		movs	r3, #0
 819 004e C4F8003E 		str	r3, [r4, #3584]
 341:Drivers/STM32F7xx_HAL_Driver/Src/stm32f7xx_ll_usb.c **** 
 820              		.loc 1 341 3 is_stmt 1 view .LVU225
 341:Drivers/STM32F7xx_HAL_Driver/Src/stm32f7xx_ll_usb.c **** 
 821              		.loc 1 341 21 is_stmt 0 view .LVU226
 822 0052 04F50065 		add	r5, r4, #2048
 823 0056 D4F80038 		ldr	r3, [r4, #2048]
 824 005a C4F80038 		str	r3, [r4, #2048]
 343:Drivers/STM32F7xx_HAL_Driver/Src/stm32f7xx_ll_usb.c ****   {
 825              		.loc 1 343 3 is_stmt 1 view .LVU227
 343:Drivers/STM32F7xx_HAL_Driver/Src/stm32f7xx_ll_usb.c ****   {
 826              		.loc 1 343 10 is_stmt 0 view .LVU228
 827 005e 0C9B     		ldr	r3, [sp, #48]
 343:Drivers/STM32F7xx_HAL_Driver/Src/stm32f7xx_ll_usb.c ****   {
 828              		.loc 1 343 6 view .LVU229
 829 0060 012B     		cmp	r3, #1
 830 0062 0DD0     		beq	.L84
 356:Drivers/STM32F7xx_HAL_Driver/Src/stm32f7xx_ll_usb.c ****   {
 831              		.loc 1 356 8 is_stmt 1 view .LVU230
 356:Drivers/STM32F7xx_HAL_Driver/Src/stm32f7xx_ll_usb.c ****   {
 832              		.loc 1 356 11 is_stmt 0 view .LVU231
 833 0064 032B     		cmp	r3, #3
 834 0066 1CD1     		bne	.L64
 358:Drivers/STM32F7xx_HAL_Driver/Src/stm32f7xx_ll_usb.c ****     {
 835              		.loc 1 358 5 is_stmt 1 view .LVU232
 358:Drivers/STM32F7xx_HAL_Driver/Src/stm32f7xx_ll_usb.c ****     {
ARM GAS  /tmp/cc8xco1Q.s 			page 43


 836              		.loc 1 358 12 is_stmt 0 view .LVU233
 837 0068 099B     		ldr	r3, [sp, #36]
 358:Drivers/STM32F7xx_HAL_Driver/Src/stm32f7xx_ll_usb.c ****     {
 838              		.loc 1 358 8 view .LVU234
 839 006a ABB9     		cbnz	r3, .L65
 361:Drivers/STM32F7xx_HAL_Driver/Src/stm32f7xx_ll_usb.c ****     }
 840              		.loc 1 361 7 is_stmt 1 view .LVU235
 361:Drivers/STM32F7xx_HAL_Driver/Src/stm32f7xx_ll_usb.c ****     }
 841              		.loc 1 361 13 is_stmt 0 view .LVU236
 842 006c 0021     		movs	r1, #0
 843 006e 2046     		mov	r0, r4
 844              	.LVL72:
 361:Drivers/STM32F7xx_HAL_Driver/Src/stm32f7xx_ll_usb.c ****     }
 845              		.loc 1 361 13 view .LVU237
 846 0070 FFF7FEFF 		bl	USB_SetDevSpeed
 847              	.LVL73:
 848 0074 19E0     		b	.L63
 849              	.LVL74:
 850              	.L59:
 334:Drivers/STM32F7xx_HAL_Driver/Src/stm32f7xx_ll_usb.c ****   }
 851              		.loc 1 334 5 is_stmt 1 view .LVU238
 334:Drivers/STM32F7xx_HAL_Driver/Src/stm32f7xx_ll_usb.c ****   }
 852              		.loc 1 334 17 is_stmt 0 view .LVU239
 853 0076 A36B     		ldr	r3, [r4, #56]
 854              	.LVL75:
 334:Drivers/STM32F7xx_HAL_Driver/Src/stm32f7xx_ll_usb.c ****   }
 855              		.loc 1 334 17 view .LVU240
 856 0078 43F40013 		orr	r3, r3, #2097152
 857 007c A363     		str	r3, [r4, #56]
 858 007e E5E7     		b	.L60
 859              	.L84:
 345:Drivers/STM32F7xx_HAL_Driver/Src/stm32f7xx_ll_usb.c ****     {
 860              		.loc 1 345 5 is_stmt 1 view .LVU241
 345:Drivers/STM32F7xx_HAL_Driver/Src/stm32f7xx_ll_usb.c ****     {
 861              		.loc 1 345 12 is_stmt 0 view .LVU242
 862 0080 099B     		ldr	r3, [sp, #36]
 345:Drivers/STM32F7xx_HAL_Driver/Src/stm32f7xx_ll_usb.c ****     {
 863              		.loc 1 345 8 view .LVU243
 864 0082 23B9     		cbnz	r3, .L62
 348:Drivers/STM32F7xx_HAL_Driver/Src/stm32f7xx_ll_usb.c ****     }
 865              		.loc 1 348 7 is_stmt 1 view .LVU244
 348:Drivers/STM32F7xx_HAL_Driver/Src/stm32f7xx_ll_usb.c ****     }
 866              		.loc 1 348 13 is_stmt 0 view .LVU245
 867 0084 0021     		movs	r1, #0
 868 0086 2046     		mov	r0, r4
 869              	.LVL76:
 348:Drivers/STM32F7xx_HAL_Driver/Src/stm32f7xx_ll_usb.c ****     }
 870              		.loc 1 348 13 view .LVU246
 871 0088 FFF7FEFF 		bl	USB_SetDevSpeed
 872              	.LVL77:
 873 008c 0DE0     		b	.L63
 874              	.LVL78:
 875              	.L62:
 353:Drivers/STM32F7xx_HAL_Driver/Src/stm32f7xx_ll_usb.c ****     }
 876              		.loc 1 353 7 is_stmt 1 view .LVU247
 353:Drivers/STM32F7xx_HAL_Driver/Src/stm32f7xx_ll_usb.c ****     }
 877              		.loc 1 353 13 is_stmt 0 view .LVU248
ARM GAS  /tmp/cc8xco1Q.s 			page 44


 878 008e 0121     		movs	r1, #1
 879 0090 2046     		mov	r0, r4
 880              	.LVL79:
 353:Drivers/STM32F7xx_HAL_Driver/Src/stm32f7xx_ll_usb.c ****     }
 881              		.loc 1 353 13 view .LVU249
 882 0092 FFF7FEFF 		bl	USB_SetDevSpeed
 883              	.LVL80:
 884 0096 08E0     		b	.L63
 885              	.LVL81:
 886              	.L65:
 366:Drivers/STM32F7xx_HAL_Driver/Src/stm32f7xx_ll_usb.c ****     }
 887              		.loc 1 366 7 is_stmt 1 view .LVU250
 366:Drivers/STM32F7xx_HAL_Driver/Src/stm32f7xx_ll_usb.c ****     }
 888              		.loc 1 366 13 is_stmt 0 view .LVU251
 889 0098 0121     		movs	r1, #1
 890 009a 2046     		mov	r0, r4
 891              	.LVL82:
 366:Drivers/STM32F7xx_HAL_Driver/Src/stm32f7xx_ll_usb.c ****     }
 892              		.loc 1 366 13 view .LVU252
 893 009c FFF7FEFF 		bl	USB_SetDevSpeed
 894              	.LVL83:
 895 00a0 03E0     		b	.L63
 896              	.LVL84:
 897              	.L64:
 372:Drivers/STM32F7xx_HAL_Driver/Src/stm32f7xx_ll_usb.c ****   }
 898              		.loc 1 372 5 is_stmt 1 view .LVU253
 372:Drivers/STM32F7xx_HAL_Driver/Src/stm32f7xx_ll_usb.c ****   }
 899              		.loc 1 372 11 is_stmt 0 view .LVU254
 900 00a2 0321     		movs	r1, #3
 901 00a4 2046     		mov	r0, r4
 902              	.LVL85:
 372:Drivers/STM32F7xx_HAL_Driver/Src/stm32f7xx_ll_usb.c ****   }
 903              		.loc 1 372 11 view .LVU255
 904 00a6 FFF7FEFF 		bl	USB_SetDevSpeed
 905              	.LVL86:
 906              	.L63:
 376:Drivers/STM32F7xx_HAL_Driver/Src/stm32f7xx_ll_usb.c ****   {
 907              		.loc 1 376 3 is_stmt 1 view .LVU256
 376:Drivers/STM32F7xx_HAL_Driver/Src/stm32f7xx_ll_usb.c ****   {
 908              		.loc 1 376 7 is_stmt 0 view .LVU257
 909 00aa 1021     		movs	r1, #16
 910 00ac 2046     		mov	r0, r4
 911 00ae FFF7FEFF 		bl	USB_FlushTxFifo
 912              	.LVL87:
 376:Drivers/STM32F7xx_HAL_Driver/Src/stm32f7xx_ll_usb.c ****   {
 913              		.loc 1 376 6 view .LVU258
 914 00b2 8046     		mov	r8, r0
 915 00b4 08B1     		cbz	r0, .L66
 378:Drivers/STM32F7xx_HAL_Driver/Src/stm32f7xx_ll_usb.c ****   }
 916              		.loc 1 378 9 view .LVU259
 917 00b6 4FF00108 		mov	r8, #1
 918              	.L66:
 919              	.LVL88:
 381:Drivers/STM32F7xx_HAL_Driver/Src/stm32f7xx_ll_usb.c ****   {
 920              		.loc 1 381 3 is_stmt 1 view .LVU260
 381:Drivers/STM32F7xx_HAL_Driver/Src/stm32f7xx_ll_usb.c ****   {
 921              		.loc 1 381 7 is_stmt 0 view .LVU261
ARM GAS  /tmp/cc8xco1Q.s 			page 45


 922 00ba 2046     		mov	r0, r4
 923 00bc FFF7FEFF 		bl	USB_FlushRxFifo
 924              	.LVL89:
 381:Drivers/STM32F7xx_HAL_Driver/Src/stm32f7xx_ll_usb.c ****   {
 925              		.loc 1 381 6 view .LVU262
 926 00c0 08B1     		cbz	r0, .L67
 383:Drivers/STM32F7xx_HAL_Driver/Src/stm32f7xx_ll_usb.c ****   }
 927              		.loc 1 383 9 view .LVU263
 928 00c2 4FF00108 		mov	r8, #1
 929              	.LVL90:
 930              	.L67:
 387:Drivers/STM32F7xx_HAL_Driver/Src/stm32f7xx_ll_usb.c ****   USBx_DEVICE->DOEPMSK = 0U;
 931              		.loc 1 387 3 is_stmt 1 view .LVU264
 387:Drivers/STM32F7xx_HAL_Driver/Src/stm32f7xx_ll_usb.c ****   USBx_DEVICE->DOEPMSK = 0U;
 932              		.loc 1 387 24 is_stmt 0 view .LVU265
 933 00c6 0023     		movs	r3, #0
 934 00c8 2B61     		str	r3, [r5, #16]
 388:Drivers/STM32F7xx_HAL_Driver/Src/stm32f7xx_ll_usb.c ****   USBx_DEVICE->DAINTMSK = 0U;
 935              		.loc 1 388 3 is_stmt 1 view .LVU266
 388:Drivers/STM32F7xx_HAL_Driver/Src/stm32f7xx_ll_usb.c ****   USBx_DEVICE->DAINTMSK = 0U;
 936              		.loc 1 388 24 is_stmt 0 view .LVU267
 937 00ca 6B61     		str	r3, [r5, #20]
 389:Drivers/STM32F7xx_HAL_Driver/Src/stm32f7xx_ll_usb.c **** 
 938              		.loc 1 389 3 is_stmt 1 view .LVU268
 389:Drivers/STM32F7xx_HAL_Driver/Src/stm32f7xx_ll_usb.c **** 
 939              		.loc 1 389 25 is_stmt 0 view .LVU269
 940 00cc EB61     		str	r3, [r5, #28]
 391:Drivers/STM32F7xx_HAL_Driver/Src/stm32f7xx_ll_usb.c ****   {
 941              		.loc 1 391 3 is_stmt 1 view .LVU270
 942              	.LVL91:
 391:Drivers/STM32F7xx_HAL_Driver/Src/stm32f7xx_ll_usb.c ****   {
 943              		.loc 1 391 3 is_stmt 0 view .LVU271
 944 00ce 0AE0     		b	.L68
 945              	.LVL92:
 946              	.L86:
 395:Drivers/STM32F7xx_HAL_Driver/Src/stm32f7xx_ll_usb.c ****       {
 947              		.loc 1 395 7 is_stmt 1 view .LVU272
 395:Drivers/STM32F7xx_HAL_Driver/Src/stm32f7xx_ll_usb.c ****       {
 948              		.loc 1 395 10 is_stmt 0 view .LVU273
 949 00d0 C3B9     		cbnz	r3, .L70
 397:Drivers/STM32F7xx_HAL_Driver/Src/stm32f7xx_ll_usb.c ****       }
 950              		.loc 1 397 9 is_stmt 1 view .LVU274
 397:Drivers/STM32F7xx_HAL_Driver/Src/stm32f7xx_ll_usb.c ****       }
 951              		.loc 1 397 31 is_stmt 0 view .LVU275
 952 00d2 4FF00060 		mov	r0, #134217728
 953 00d6 C2F80009 		str	r0, [r2, #2304]
 954              	.L71:
 409:Drivers/STM32F7xx_HAL_Driver/Src/stm32f7xx_ll_usb.c ****     USBx_INEP(i)->DIEPINT  = 0xFB7FU;
 955              		.loc 1 409 5 is_stmt 1 discriminator 2 view .LVU276
 409:Drivers/STM32F7xx_HAL_Driver/Src/stm32f7xx_ll_usb.c ****     USBx_INEP(i)->DIEPINT  = 0xFB7FU;
 956              		.loc 1 409 28 is_stmt 0 discriminator 2 view .LVU277
 957 00da 0022     		movs	r2, #0
 958 00dc 0A61     		str	r2, [r1, #16]
 410:Drivers/STM32F7xx_HAL_Driver/Src/stm32f7xx_ll_usb.c ****   }
 959              		.loc 1 410 5 is_stmt 1 discriminator 2 view .LVU278
 410:Drivers/STM32F7xx_HAL_Driver/Src/stm32f7xx_ll_usb.c ****   }
 960              		.loc 1 410 28 is_stmt 0 discriminator 2 view .LVU279
ARM GAS  /tmp/cc8xco1Q.s 			page 46


 961 00de 4FF67F32 		movw	r2, #64383
 962 00e2 8A60     		str	r2, [r1, #8]
 391:Drivers/STM32F7xx_HAL_Driver/Src/stm32f7xx_ll_usb.c ****   {
 963              		.loc 1 391 39 is_stmt 1 discriminator 2 view .LVU280
 391:Drivers/STM32F7xx_HAL_Driver/Src/stm32f7xx_ll_usb.c ****   {
 964              		.loc 1 391 40 is_stmt 0 discriminator 2 view .LVU281
 965 00e4 0133     		adds	r3, r3, #1
 966              	.LVL93:
 967              	.L68:
 391:Drivers/STM32F7xx_HAL_Driver/Src/stm32f7xx_ll_usb.c ****   {
 968              		.loc 1 391 16 is_stmt 1 discriminator 1 view .LVU282
 391:Drivers/STM32F7xx_HAL_Driver/Src/stm32f7xx_ll_usb.c ****   {
 969              		.loc 1 391 23 is_stmt 0 discriminator 1 view .LVU283
 970 00e6 0799     		ldr	r1, [sp, #28]
 391:Drivers/STM32F7xx_HAL_Driver/Src/stm32f7xx_ll_usb.c ****   {
 971              		.loc 1 391 3 discriminator 1 view .LVU284
 972 00e8 9942     		cmp	r1, r3
 973 00ea 10D9     		bls	.L85
 393:Drivers/STM32F7xx_HAL_Driver/Src/stm32f7xx_ll_usb.c ****     {
 974              		.loc 1 393 5 is_stmt 1 view .LVU285
 393:Drivers/STM32F7xx_HAL_Driver/Src/stm32f7xx_ll_usb.c ****     {
 975              		.loc 1 393 10 is_stmt 0 view .LVU286
 976 00ec 04EB4312 		add	r2, r4, r3, lsl #5
 977 00f0 02F51061 		add	r1, r2, #2304
 393:Drivers/STM32F7xx_HAL_Driver/Src/stm32f7xx_ll_usb.c ****     {
 978              		.loc 1 393 22 view .LVU287
 979 00f4 D2F80009 		ldr	r0, [r2, #2304]
 393:Drivers/STM32F7xx_HAL_Driver/Src/stm32f7xx_ll_usb.c ****     {
 980              		.loc 1 393 8 view .LVU288
 981 00f8 0028     		cmp	r0, #0
 982 00fa E9DB     		blt	.L86
 406:Drivers/STM32F7xx_HAL_Driver/Src/stm32f7xx_ll_usb.c ****     }
 983              		.loc 1 406 7 is_stmt 1 view .LVU289
 406:Drivers/STM32F7xx_HAL_Driver/Src/stm32f7xx_ll_usb.c ****     }
 984              		.loc 1 406 29 is_stmt 0 view .LVU290
 985 00fc 0020     		movs	r0, #0
 986 00fe C2F80009 		str	r0, [r2, #2304]
 987 0102 EAE7     		b	.L71
 988              	.L70:
 401:Drivers/STM32F7xx_HAL_Driver/Src/stm32f7xx_ll_usb.c ****       }
 989              		.loc 1 401 9 is_stmt 1 view .LVU291
 401:Drivers/STM32F7xx_HAL_Driver/Src/stm32f7xx_ll_usb.c ****       }
 990              		.loc 1 401 31 is_stmt 0 view .LVU292
 991 0104 4FF09040 		mov	r0, #1207959552
 992 0108 C2F80009 		str	r0, [r2, #2304]
 993 010c E5E7     		b	.L71
 994              	.L85:
 413:Drivers/STM32F7xx_HAL_Driver/Src/stm32f7xx_ll_usb.c ****   {
 995              		.loc 1 413 10 view .LVU293
 996 010e 0023     		movs	r3, #0
 997              	.LVL94:
 413:Drivers/STM32F7xx_HAL_Driver/Src/stm32f7xx_ll_usb.c ****   {
 998              		.loc 1 413 10 view .LVU294
 999 0110 0AE0     		b	.L73
 1000              	.LVL95:
 1001              	.L89:
 417:Drivers/STM32F7xx_HAL_Driver/Src/stm32f7xx_ll_usb.c ****       {
ARM GAS  /tmp/cc8xco1Q.s 			page 47


 1002              		.loc 1 417 7 is_stmt 1 view .LVU295
 417:Drivers/STM32F7xx_HAL_Driver/Src/stm32f7xx_ll_usb.c ****       {
 1003              		.loc 1 417 10 is_stmt 0 view .LVU296
 1004 0112 C3B1     		cbz	r3, .L87
 423:Drivers/STM32F7xx_HAL_Driver/Src/stm32f7xx_ll_usb.c ****       }
 1005              		.loc 1 423 9 is_stmt 1 view .LVU297
 423:Drivers/STM32F7xx_HAL_Driver/Src/stm32f7xx_ll_usb.c ****       }
 1006              		.loc 1 423 32 is_stmt 0 view .LVU298
 1007 0114 4FF0904C 		mov	ip, #1207959552
 1008 0118 C2F800CB 		str	ip, [r2, #2816]
 1009              	.L76:
 431:Drivers/STM32F7xx_HAL_Driver/Src/stm32f7xx_ll_usb.c ****     USBx_OUTEP(i)->DOEPINT  = 0xFB7FU;
 1010              		.loc 1 431 5 is_stmt 1 discriminator 2 view .LVU299
 431:Drivers/STM32F7xx_HAL_Driver/Src/stm32f7xx_ll_usb.c ****     USBx_OUTEP(i)->DOEPINT  = 0xFB7FU;
 1011              		.loc 1 431 29 is_stmt 0 discriminator 2 view .LVU300
 1012 011c 0022     		movs	r2, #0
 1013 011e 0261     		str	r2, [r0, #16]
 432:Drivers/STM32F7xx_HAL_Driver/Src/stm32f7xx_ll_usb.c ****   }
 1014              		.loc 1 432 5 is_stmt 1 discriminator 2 view .LVU301
 432:Drivers/STM32F7xx_HAL_Driver/Src/stm32f7xx_ll_usb.c ****   }
 1015              		.loc 1 432 29 is_stmt 0 discriminator 2 view .LVU302
 1016 0120 4FF67F32 		movw	r2, #64383
 1017 0124 8260     		str	r2, [r0, #8]
 413:Drivers/STM32F7xx_HAL_Driver/Src/stm32f7xx_ll_usb.c ****   {
 1018              		.loc 1 413 39 is_stmt 1 discriminator 2 view .LVU303
 413:Drivers/STM32F7xx_HAL_Driver/Src/stm32f7xx_ll_usb.c ****   {
 1019              		.loc 1 413 40 is_stmt 0 discriminator 2 view .LVU304
 1020 0126 0133     		adds	r3, r3, #1
 1021              	.LVL96:
 1022              	.L73:
 413:Drivers/STM32F7xx_HAL_Driver/Src/stm32f7xx_ll_usb.c ****   {
 1023              		.loc 1 413 16 is_stmt 1 discriminator 1 view .LVU305
 413:Drivers/STM32F7xx_HAL_Driver/Src/stm32f7xx_ll_usb.c ****   {
 1024              		.loc 1 413 3 is_stmt 0 discriminator 1 view .LVU306
 1025 0128 9942     		cmp	r1, r3
 1026 012a 11D9     		bls	.L88
 415:Drivers/STM32F7xx_HAL_Driver/Src/stm32f7xx_ll_usb.c ****     {
 1027              		.loc 1 415 5 is_stmt 1 view .LVU307
 415:Drivers/STM32F7xx_HAL_Driver/Src/stm32f7xx_ll_usb.c ****     {
 1028              		.loc 1 415 10 is_stmt 0 view .LVU308
 1029 012c 04EB4312 		add	r2, r4, r3, lsl #5
 1030 0130 02F53060 		add	r0, r2, #2816
 415:Drivers/STM32F7xx_HAL_Driver/Src/stm32f7xx_ll_usb.c ****     {
 1031              		.loc 1 415 23 view .LVU309
 1032 0134 D2F8006B 		ldr	r6, [r2, #2816]
 415:Drivers/STM32F7xx_HAL_Driver/Src/stm32f7xx_ll_usb.c ****     {
 1033              		.loc 1 415 8 view .LVU310
 1034 0138 002E     		cmp	r6, #0
 1035 013a EADB     		blt	.L89
 428:Drivers/STM32F7xx_HAL_Driver/Src/stm32f7xx_ll_usb.c ****     }
 1036              		.loc 1 428 7 is_stmt 1 view .LVU311
 428:Drivers/STM32F7xx_HAL_Driver/Src/stm32f7xx_ll_usb.c ****     }
 1037              		.loc 1 428 30 is_stmt 0 view .LVU312
 1038 013c 4FF0000C 		mov	ip, #0
 1039 0140 C2F800CB 		str	ip, [r2, #2816]
 1040 0144 EAE7     		b	.L76
 1041              	.L87:
ARM GAS  /tmp/cc8xco1Q.s 			page 48


 419:Drivers/STM32F7xx_HAL_Driver/Src/stm32f7xx_ll_usb.c ****       }
 1042              		.loc 1 419 9 is_stmt 1 view .LVU313
 419:Drivers/STM32F7xx_HAL_Driver/Src/stm32f7xx_ll_usb.c ****       }
 1043              		.loc 1 419 32 is_stmt 0 view .LVU314
 1044 0146 4FF0006C 		mov	ip, #134217728
 1045 014a C2F800CB 		str	ip, [r2, #2816]
 1046 014e E5E7     		b	.L76
 1047              	.L88:
 435:Drivers/STM32F7xx_HAL_Driver/Src/stm32f7xx_ll_usb.c **** 
 1048              		.loc 1 435 3 is_stmt 1 view .LVU315
 435:Drivers/STM32F7xx_HAL_Driver/Src/stm32f7xx_ll_usb.c **** 
 1049              		.loc 1 435 24 is_stmt 0 view .LVU316
 1050 0150 2B69     		ldr	r3, [r5, #16]
 1051              	.LVL97:
 435:Drivers/STM32F7xx_HAL_Driver/Src/stm32f7xx_ll_usb.c **** 
 1052              		.loc 1 435 24 view .LVU317
 1053 0152 23F48073 		bic	r3, r3, #256
 1054 0156 2B61     		str	r3, [r5, #16]
 438:Drivers/STM32F7xx_HAL_Driver/Src/stm32f7xx_ll_usb.c **** 
 1055              		.loc 1 438 3 is_stmt 1 view .LVU318
 438:Drivers/STM32F7xx_HAL_Driver/Src/stm32f7xx_ll_usb.c **** 
 1056              		.loc 1 438 17 is_stmt 0 view .LVU319
 1057 0158 0023     		movs	r3, #0
 1058 015a A361     		str	r3, [r4, #24]
 441:Drivers/STM32F7xx_HAL_Driver/Src/stm32f7xx_ll_usb.c **** 
 1059              		.loc 1 441 3 is_stmt 1 view .LVU320
 441:Drivers/STM32F7xx_HAL_Driver/Src/stm32f7xx_ll_usb.c **** 
 1060              		.loc 1 441 17 is_stmt 0 view .LVU321
 1061 015c 6FF08043 		mvn	r3, #1073741824
 1062 0160 6361     		str	r3, [r4, #20]
 444:Drivers/STM32F7xx_HAL_Driver/Src/stm32f7xx_ll_usb.c ****   {
 1063              		.loc 1 444 3 is_stmt 1 view .LVU322
 444:Drivers/STM32F7xx_HAL_Driver/Src/stm32f7xx_ll_usb.c ****   {
 1064              		.loc 1 444 10 is_stmt 0 view .LVU323
 1065 0162 0A9B     		ldr	r3, [sp, #40]
 444:Drivers/STM32F7xx_HAL_Driver/Src/stm32f7xx_ll_usb.c ****   {
 1066              		.loc 1 444 6 view .LVU324
 1067 0164 1BB9     		cbnz	r3, .L78
 446:Drivers/STM32F7xx_HAL_Driver/Src/stm32f7xx_ll_usb.c ****   }
 1068              		.loc 1 446 5 is_stmt 1 view .LVU325
 446:Drivers/STM32F7xx_HAL_Driver/Src/stm32f7xx_ll_usb.c ****   }
 1069              		.loc 1 446 19 is_stmt 0 view .LVU326
 1070 0166 A369     		ldr	r3, [r4, #24]
 1071 0168 43F01003 		orr	r3, r3, #16
 1072 016c A361     		str	r3, [r4, #24]
 1073              	.L78:
 450:Drivers/STM32F7xx_HAL_Driver/Src/stm32f7xx_ll_usb.c ****                    USB_OTG_GINTMSK_ENUMDNEM | USB_OTG_GINTMSK_IEPINT |
 1074              		.loc 1 450 3 is_stmt 1 view .LVU327
 450:Drivers/STM32F7xx_HAL_Driver/Src/stm32f7xx_ll_usb.c ****                    USB_OTG_GINTMSK_ENUMDNEM | USB_OTG_GINTMSK_IEPINT |
 1075              		.loc 1 450 17 is_stmt 0 view .LVU328
 1076 016e A269     		ldr	r2, [r4, #24]
 1077 0170 0A4B     		ldr	r3, .L91
 1078 0172 1343     		orrs	r3, r3, r2
 1079 0174 A361     		str	r3, [r4, #24]
 455:Drivers/STM32F7xx_HAL_Driver/Src/stm32f7xx_ll_usb.c ****   {
 1080              		.loc 1 455 3 is_stmt 1 view .LVU329
 455:Drivers/STM32F7xx_HAL_Driver/Src/stm32f7xx_ll_usb.c ****   {
ARM GAS  /tmp/cc8xco1Q.s 			page 49


 1081              		.loc 1 455 10 is_stmt 0 view .LVU330
 1082 0176 0D9B     		ldr	r3, [sp, #52]
 455:Drivers/STM32F7xx_HAL_Driver/Src/stm32f7xx_ll_usb.c ****   {
 1083              		.loc 1 455 6 view .LVU331
 1084 0178 1BB1     		cbz	r3, .L79
 457:Drivers/STM32F7xx_HAL_Driver/Src/stm32f7xx_ll_usb.c ****   }
 1085              		.loc 1 457 5 is_stmt 1 view .LVU332
 457:Drivers/STM32F7xx_HAL_Driver/Src/stm32f7xx_ll_usb.c ****   }
 1086              		.loc 1 457 19 is_stmt 0 view .LVU333
 1087 017a A369     		ldr	r3, [r4, #24]
 1088 017c 43F00803 		orr	r3, r3, #8
 1089 0180 A361     		str	r3, [r4, #24]
 1090              	.L79:
 460:Drivers/STM32F7xx_HAL_Driver/Src/stm32f7xx_ll_usb.c ****   {
 1091              		.loc 1 460 3 is_stmt 1 view .LVU334
 460:Drivers/STM32F7xx_HAL_Driver/Src/stm32f7xx_ll_usb.c ****   {
 1092              		.loc 1 460 6 is_stmt 0 view .LVU335
 1093 0182 012F     		cmp	r7, #1
 1094 0184 04D0     		beq	.L90
 1095              	.L80:
 465:Drivers/STM32F7xx_HAL_Driver/Src/stm32f7xx_ll_usb.c **** }
 1096              		.loc 1 465 3 is_stmt 1 view .LVU336
 466:Drivers/STM32F7xx_HAL_Driver/Src/stm32f7xx_ll_usb.c **** 
 1097              		.loc 1 466 1 is_stmt 0 view .LVU337
 1098 0186 4046     		mov	r0, r8
 1099 0188 BDE8F041 		pop	{r4, r5, r6, r7, r8, lr}
 1100              	.LCFI8:
 1101              		.cfi_remember_state
 1102              		.cfi_restore 14
 1103              		.cfi_restore 8
 1104              		.cfi_restore 7
 1105              		.cfi_restore 6
 1106              		.cfi_restore 5
 1107              		.cfi_restore 4
 1108              		.cfi_def_cfa_offset 16
 1109              	.LVL98:
 466:Drivers/STM32F7xx_HAL_Driver/Src/stm32f7xx_ll_usb.c **** 
 1110              		.loc 1 466 1 view .LVU338
 1111 018c 04B0     		add	sp, sp, #16
 1112              	.LCFI9:
 1113              		.cfi_def_cfa_offset 0
 1114 018e 7047     		bx	lr
 1115              	.LVL99:
 1116              	.L90:
 1117              	.LCFI10:
 1118              		.cfi_restore_state
 462:Drivers/STM32F7xx_HAL_Driver/Src/stm32f7xx_ll_usb.c ****   }
 1119              		.loc 1 462 5 is_stmt 1 view .LVU339
 462:Drivers/STM32F7xx_HAL_Driver/Src/stm32f7xx_ll_usb.c ****   }
 1120              		.loc 1 462 19 is_stmt 0 view .LVU340
 1121 0190 A269     		ldr	r2, [r4, #24]
 1122 0192 034B     		ldr	r3, .L91+4
 1123 0194 1343     		orrs	r3, r3, r2
 1124 0196 A361     		str	r3, [r4, #24]
 1125 0198 F5E7     		b	.L80
 1126              	.L92:
 1127 019a 00BF     		.align	2
ARM GAS  /tmp/cc8xco1Q.s 			page 50


 1128              	.L91:
 1129 019c 00383C80 		.word	-2143537152
 1130 01a0 04000040 		.word	1073741828
 1131              		.cfi_endproc
 1132              	.LFE146:
 1134              		.section	.text.USB_GetDevSpeed,"ax",%progbits
 1135              		.align	1
 1136              		.global	USB_GetDevSpeed
 1137              		.syntax unified
 1138              		.thumb
 1139              		.thumb_func
 1140              		.fpu fpv5-d16
 1142              	USB_GetDevSpeed:
 1143              	.LVL100:
 1144              	.LFB150:
 545:Drivers/STM32F7xx_HAL_Driver/Src/stm32f7xx_ll_usb.c ****   uint32_t USBx_BASE = (uint32_t)USBx;
 1145              		.loc 1 545 1 is_stmt 1 view -0
 1146              		.cfi_startproc
 1147              		@ args = 0, pretend = 0, frame = 0
 1148              		@ frame_needed = 0, uses_anonymous_args = 0
 1149              		@ link register save eliminated.
 546:Drivers/STM32F7xx_HAL_Driver/Src/stm32f7xx_ll_usb.c ****   uint8_t speed;
 1150              		.loc 1 546 3 view .LVU342
 547:Drivers/STM32F7xx_HAL_Driver/Src/stm32f7xx_ll_usb.c ****   uint32_t DevEnumSpeed = USBx_DEVICE->DSTS & USB_OTG_DSTS_ENUMSPD;
 1151              		.loc 1 547 3 view .LVU343
 548:Drivers/STM32F7xx_HAL_Driver/Src/stm32f7xx_ll_usb.c **** 
 1152              		.loc 1 548 3 view .LVU344
 548:Drivers/STM32F7xx_HAL_Driver/Src/stm32f7xx_ll_usb.c **** 
 1153              		.loc 1 548 38 is_stmt 0 view .LVU345
 1154 0000 D0F80838 		ldr	r3, [r0, #2056]
 1155              	.LVL101:
 550:Drivers/STM32F7xx_HAL_Driver/Src/stm32f7xx_ll_usb.c ****   {
 1156              		.loc 1 550 3 is_stmt 1 view .LVU346
 550:Drivers/STM32F7xx_HAL_Driver/Src/stm32f7xx_ll_usb.c ****   {
 1157              		.loc 1 550 6 is_stmt 0 view .LVU347
 1158 0004 13F00603 		ands	r3, r3, #6
 1159              	.LVL102:
 550:Drivers/STM32F7xx_HAL_Driver/Src/stm32f7xx_ll_usb.c ****   {
 1160              		.loc 1 550 6 view .LVU348
 1161 0008 05D0     		beq	.L95
 554:Drivers/STM32F7xx_HAL_Driver/Src/stm32f7xx_ll_usb.c ****            (DevEnumSpeed == DSTS_ENUMSPD_FS_PHY_48MHZ))
 1162              		.loc 1 554 8 is_stmt 1 view .LVU349
 554:Drivers/STM32F7xx_HAL_Driver/Src/stm32f7xx_ll_usb.c ****            (DevEnumSpeed == DSTS_ENUMSPD_FS_PHY_48MHZ))
 1163              		.loc 1 554 11 is_stmt 0 view .LVU350
 1164 000a 062B     		cmp	r3, #6
 1165 000c 18BF     		it	ne
 1166 000e 022B     		cmpne	r3, #2
 1167 0010 03D1     		bne	.L96
 557:Drivers/STM32F7xx_HAL_Driver/Src/stm32f7xx_ll_usb.c ****   }
 1168              		.loc 1 557 11 view .LVU351
 1169 0012 0220     		movs	r0, #2
 1170              	.LVL103:
 557:Drivers/STM32F7xx_HAL_Driver/Src/stm32f7xx_ll_usb.c ****   }
 1171              		.loc 1 557 11 view .LVU352
 1172 0014 7047     		bx	lr
 1173              	.LVL104:
 1174              	.L95:
ARM GAS  /tmp/cc8xco1Q.s 			page 51


 552:Drivers/STM32F7xx_HAL_Driver/Src/stm32f7xx_ll_usb.c ****   }
 1175              		.loc 1 552 11 view .LVU353
 1176 0016 0020     		movs	r0, #0
 1177              	.LVL105:
 552:Drivers/STM32F7xx_HAL_Driver/Src/stm32f7xx_ll_usb.c ****   }
 1178              		.loc 1 552 11 view .LVU354
 1179 0018 7047     		bx	lr
 1180              	.LVL106:
 1181              	.L96:
 561:Drivers/STM32F7xx_HAL_Driver/Src/stm32f7xx_ll_usb.c ****   }
 1182              		.loc 1 561 11 view .LVU355
 1183 001a 0F20     		movs	r0, #15
 1184              	.LVL107:
 564:Drivers/STM32F7xx_HAL_Driver/Src/stm32f7xx_ll_usb.c **** }
 1185              		.loc 1 564 3 is_stmt 1 view .LVU356
 565:Drivers/STM32F7xx_HAL_Driver/Src/stm32f7xx_ll_usb.c **** 
 1186              		.loc 1 565 1 is_stmt 0 view .LVU357
 1187 001c 7047     		bx	lr
 1188              		.cfi_endproc
 1189              	.LFE150:
 1191              		.section	.text.USB_ActivateEndpoint,"ax",%progbits
 1192              		.align	1
 1193              		.global	USB_ActivateEndpoint
 1194              		.syntax unified
 1195              		.thumb
 1196              		.thumb_func
 1197              		.fpu fpv5-d16
 1199              	USB_ActivateEndpoint:
 1200              	.LVL108:
 1201              	.LFB151:
 574:Drivers/STM32F7xx_HAL_Driver/Src/stm32f7xx_ll_usb.c ****   uint32_t USBx_BASE = (uint32_t)USBx;
 1202              		.loc 1 574 1 is_stmt 1 view -0
 1203              		.cfi_startproc
 1204              		@ args = 0, pretend = 0, frame = 0
 1205              		@ frame_needed = 0, uses_anonymous_args = 0
 574:Drivers/STM32F7xx_HAL_Driver/Src/stm32f7xx_ll_usb.c ****   uint32_t USBx_BASE = (uint32_t)USBx;
 1206              		.loc 1 574 1 is_stmt 0 view .LVU359
 1207 0000 10B5     		push	{r4, lr}
 1208              	.LCFI11:
 1209              		.cfi_def_cfa_offset 8
 1210              		.cfi_offset 4, -8
 1211              		.cfi_offset 14, -4
 575:Drivers/STM32F7xx_HAL_Driver/Src/stm32f7xx_ll_usb.c ****   uint32_t epnum = (uint32_t)ep->num;
 1212              		.loc 1 575 3 is_stmt 1 view .LVU360
 1213              	.LVL109:
 576:Drivers/STM32F7xx_HAL_Driver/Src/stm32f7xx_ll_usb.c **** 
 1214              		.loc 1 576 3 view .LVU361
 576:Drivers/STM32F7xx_HAL_Driver/Src/stm32f7xx_ll_usb.c **** 
 1215              		.loc 1 576 32 is_stmt 0 view .LVU362
 1216 0002 91F800C0 		ldrb	ip, [r1]	@ zero_extendqisi2
 1217              	.LVL110:
 578:Drivers/STM32F7xx_HAL_Driver/Src/stm32f7xx_ll_usb.c ****   {
 1218              		.loc 1 578 3 is_stmt 1 view .LVU363
 578:Drivers/STM32F7xx_HAL_Driver/Src/stm32f7xx_ll_usb.c ****   {
 1219              		.loc 1 578 9 is_stmt 0 view .LVU364
 1220 0006 4B78     		ldrb	r3, [r1, #1]	@ zero_extendqisi2
 578:Drivers/STM32F7xx_HAL_Driver/Src/stm32f7xx_ll_usb.c ****   {
ARM GAS  /tmp/cc8xco1Q.s 			page 52


 1221              		.loc 1 578 6 view .LVU365
 1222 0008 012B     		cmp	r3, #1
 1223 000a 21D0     		beq	.L101
 592:Drivers/STM32F7xx_HAL_Driver/Src/stm32f7xx_ll_usb.c **** 
 1224              		.loc 1 592 5 is_stmt 1 view .LVU366
 592:Drivers/STM32F7xx_HAL_Driver/Src/stm32f7xx_ll_usb.c **** 
 1225              		.loc 1 592 27 is_stmt 0 view .LVU367
 1226 000c 00F5006E 		add	lr, r0, #2048
 1227 0010 D0F81C38 		ldr	r3, [r0, #2076]
 592:Drivers/STM32F7xx_HAL_Driver/Src/stm32f7xx_ll_usb.c **** 
 1228              		.loc 1 592 82 view .LVU368
 1229 0014 0CF00F04 		and	r4, ip, #15
 592:Drivers/STM32F7xx_HAL_Driver/Src/stm32f7xx_ll_usb.c **** 
 1230              		.loc 1 592 55 view .LVU369
 1231 0018 0122     		movs	r2, #1
 1232 001a A240     		lsls	r2, r2, r4
 592:Drivers/STM32F7xx_HAL_Driver/Src/stm32f7xx_ll_usb.c **** 
 1233              		.loc 1 592 27 view .LVU370
 1234 001c 43EA0243 		orr	r3, r3, r2, lsl #16
 1235 0020 C0F81C38 		str	r3, [r0, #2076]
 594:Drivers/STM32F7xx_HAL_Driver/Src/stm32f7xx_ll_usb.c ****     {
 1236              		.loc 1 594 5 is_stmt 1 view .LVU371
 594:Drivers/STM32F7xx_HAL_Driver/Src/stm32f7xx_ll_usb.c ****     {
 1237              		.loc 1 594 11 is_stmt 0 view .LVU372
 1238 0024 00EB4C10 		add	r0, r0, ip, lsl #5
 1239              	.LVL111:
 594:Drivers/STM32F7xx_HAL_Driver/Src/stm32f7xx_ll_usb.c ****     {
 1240              		.loc 1 594 28 view .LVU373
 1241 0028 D0F8003B 		ldr	r3, [r0, #2816]
 594:Drivers/STM32F7xx_HAL_Driver/Src/stm32f7xx_ll_usb.c ****     {
 1242              		.loc 1 594 8 view .LVU374
 1243 002c 13F4004F 		tst	r3, #32768
 1244 0030 0CD1     		bne	.L99
 596:Drivers/STM32F7xx_HAL_Driver/Src/stm32f7xx_ll_usb.c ****                                     ((uint32_t)ep->type << 18) |
 1245              		.loc 1 596 7 is_stmt 1 view .LVU375
 596:Drivers/STM32F7xx_HAL_Driver/Src/stm32f7xx_ll_usb.c ****                                     ((uint32_t)ep->type << 18) |
 1246              		.loc 1 596 34 is_stmt 0 view .LVU376
 1247 0032 D0F8002B 		ldr	r2, [r0, #2816]
 596:Drivers/STM32F7xx_HAL_Driver/Src/stm32f7xx_ll_usb.c ****                                     ((uint32_t)ep->type << 18) |
 1248              		.loc 1 596 40 view .LVU377
 1249 0036 8B68     		ldr	r3, [r1, #8]
 596:Drivers/STM32F7xx_HAL_Driver/Src/stm32f7xx_ll_usb.c ****                                     ((uint32_t)ep->type << 18) |
 1250              		.loc 1 596 52 view .LVU378
 1251 0038 C3F30A03 		ubfx	r3, r3, #0, #11
 597:Drivers/STM32F7xx_HAL_Driver/Src/stm32f7xx_ll_usb.c ****                                     USB_OTG_DIEPCTL_SD0PID_SEVNFRM |
 1252              		.loc 1 597 50 view .LVU379
 1253 003c C978     		ldrb	r1, [r1, #3]	@ zero_extendqisi2
 1254              	.LVL112:
 596:Drivers/STM32F7xx_HAL_Driver/Src/stm32f7xx_ll_usb.c ****                                     ((uint32_t)ep->type << 18) |
 1255              		.loc 1 596 77 view .LVU380
 1256 003e 43EA8143 		orr	r3, r3, r1, lsl #18
 596:Drivers/STM32F7xx_HAL_Driver/Src/stm32f7xx_ll_usb.c ****                                     ((uint32_t)ep->type << 18) |
 1257              		.loc 1 596 34 view .LVU381
 1258 0042 1343     		orrs	r3, r3, r2
 1259 0044 144A     		ldr	r2, .L102
 1260 0046 1A43     		orrs	r2, r2, r3
 1261 0048 C0F8002B 		str	r2, [r0, #2816]
ARM GAS  /tmp/cc8xco1Q.s 			page 53


 1262              	.LVL113:
 1263              	.L99:
 602:Drivers/STM32F7xx_HAL_Driver/Src/stm32f7xx_ll_usb.c **** }
 1264              		.loc 1 602 3 is_stmt 1 view .LVU382
 603:Drivers/STM32F7xx_HAL_Driver/Src/stm32f7xx_ll_usb.c **** 
 1265              		.loc 1 603 1 is_stmt 0 view .LVU383
 1266 004c 0020     		movs	r0, #0
 1267 004e 10BD     		pop	{r4, pc}
 1268              	.LVL114:
 1269              	.L101:
 580:Drivers/STM32F7xx_HAL_Driver/Src/stm32f7xx_ll_usb.c **** 
 1270              		.loc 1 580 5 is_stmt 1 view .LVU384
 580:Drivers/STM32F7xx_HAL_Driver/Src/stm32f7xx_ll_usb.c **** 
 1271              		.loc 1 580 27 is_stmt 0 view .LVU385
 1272 0050 D0F81C28 		ldr	r2, [r0, #2076]
 580:Drivers/STM32F7xx_HAL_Driver/Src/stm32f7xx_ll_usb.c **** 
 1273              		.loc 1 580 81 view .LVU386
 1274 0054 0CF00F0E 		and	lr, ip, #15
 580:Drivers/STM32F7xx_HAL_Driver/Src/stm32f7xx_ll_usb.c **** 
 1275              		.loc 1 580 54 view .LVU387
 1276 0058 03FA0EF3 		lsl	r3, r3, lr
 580:Drivers/STM32F7xx_HAL_Driver/Src/stm32f7xx_ll_usb.c **** 
 1277              		.loc 1 580 52 view .LVU388
 1278 005c 9BB2     		uxth	r3, r3
 580:Drivers/STM32F7xx_HAL_Driver/Src/stm32f7xx_ll_usb.c **** 
 1279              		.loc 1 580 27 view .LVU389
 1280 005e 1343     		orrs	r3, r3, r2
 1281 0060 C0F81C38 		str	r3, [r0, #2076]
 582:Drivers/STM32F7xx_HAL_Driver/Src/stm32f7xx_ll_usb.c ****     {
 1282              		.loc 1 582 5 is_stmt 1 view .LVU390
 582:Drivers/STM32F7xx_HAL_Driver/Src/stm32f7xx_ll_usb.c ****     {
 1283              		.loc 1 582 10 is_stmt 0 view .LVU391
 1284 0064 00EB4C10 		add	r0, r0, ip, lsl #5
 1285              	.LVL115:
 582:Drivers/STM32F7xx_HAL_Driver/Src/stm32f7xx_ll_usb.c ****     {
 1286              		.loc 1 582 26 view .LVU392
 1287 0068 D0F80039 		ldr	r3, [r0, #2304]
 582:Drivers/STM32F7xx_HAL_Driver/Src/stm32f7xx_ll_usb.c ****     {
 1288              		.loc 1 582 8 view .LVU393
 1289 006c 13F4004F 		tst	r3, #32768
 1290 0070 ECD1     		bne	.L99
 584:Drivers/STM32F7xx_HAL_Driver/Src/stm32f7xx_ll_usb.c ****                                    ((uint32_t)ep->type << 18) | (epnum << 22) |
 1291              		.loc 1 584 7 is_stmt 1 view .LVU394
 584:Drivers/STM32F7xx_HAL_Driver/Src/stm32f7xx_ll_usb.c ****                                    ((uint32_t)ep->type << 18) | (epnum << 22) |
 1292              		.loc 1 584 33 is_stmt 0 view .LVU395
 1293 0072 D0F80029 		ldr	r2, [r0, #2304]
 584:Drivers/STM32F7xx_HAL_Driver/Src/stm32f7xx_ll_usb.c ****                                    ((uint32_t)ep->type << 18) | (epnum << 22) |
 1294              		.loc 1 584 39 view .LVU396
 1295 0076 8B68     		ldr	r3, [r1, #8]
 584:Drivers/STM32F7xx_HAL_Driver/Src/stm32f7xx_ll_usb.c ****                                    ((uint32_t)ep->type << 18) | (epnum << 22) |
 1296              		.loc 1 584 51 view .LVU397
 1297 0078 C3F30A03 		ubfx	r3, r3, #0, #11
 585:Drivers/STM32F7xx_HAL_Driver/Src/stm32f7xx_ll_usb.c ****                                    USB_OTG_DIEPCTL_SD0PID_SEVNFRM |
 1298              		.loc 1 585 49 view .LVU398
 1299 007c C978     		ldrb	r1, [r1, #3]	@ zero_extendqisi2
 1300              	.LVL116:
 584:Drivers/STM32F7xx_HAL_Driver/Src/stm32f7xx_ll_usb.c ****                                    ((uint32_t)ep->type << 18) | (epnum << 22) |
ARM GAS  /tmp/cc8xco1Q.s 			page 54


 1301              		.loc 1 584 76 view .LVU399
 1302 007e 43EA8143 		orr	r3, r3, r1, lsl #18
 585:Drivers/STM32F7xx_HAL_Driver/Src/stm32f7xx_ll_usb.c ****                                    USB_OTG_DIEPCTL_SD0PID_SEVNFRM |
 1303              		.loc 1 585 63 view .LVU400
 1304 0082 43EA8C5C 		orr	ip, r3, ip, lsl #22
 1305              	.LVL117:
 584:Drivers/STM32F7xx_HAL_Driver/Src/stm32f7xx_ll_usb.c ****                                    ((uint32_t)ep->type << 18) | (epnum << 22) |
 1306              		.loc 1 584 33 view .LVU401
 1307 0086 42EA0C0C 		orr	ip, r2, ip
 1308 008a 034B     		ldr	r3, .L102
 1309 008c 4CEA0303 		orr	r3, ip, r3
 1310 0090 C0F80039 		str	r3, [r0, #2304]
 1311 0094 DAE7     		b	.L99
 1312              	.L103:
 1313 0096 00BF     		.align	2
 1314              	.L102:
 1315 0098 00800010 		.word	268468224
 1316              		.cfi_endproc
 1317              	.LFE151:
 1319              		.section	.text.USB_ActivateDedicatedEndpoint,"ax",%progbits
 1320              		.align	1
 1321              		.global	USB_ActivateDedicatedEndpoint
 1322              		.syntax unified
 1323              		.thumb
 1324              		.thumb_func
 1325              		.fpu fpv5-d16
 1327              	USB_ActivateDedicatedEndpoint:
 1328              	.LVL118:
 1329              	.LFB152:
 612:Drivers/STM32F7xx_HAL_Driver/Src/stm32f7xx_ll_usb.c ****   uint32_t USBx_BASE = (uint32_t)USBx;
 1330              		.loc 1 612 1 is_stmt 1 view -0
 1331              		.cfi_startproc
 1332              		@ args = 0, pretend = 0, frame = 0
 1333              		@ frame_needed = 0, uses_anonymous_args = 0
 1334              		@ link register save eliminated.
 612:Drivers/STM32F7xx_HAL_Driver/Src/stm32f7xx_ll_usb.c ****   uint32_t USBx_BASE = (uint32_t)USBx;
 1335              		.loc 1 612 1 is_stmt 0 view .LVU403
 1336 0000 30B4     		push	{r4, r5}
 1337              	.LCFI12:
 1338              		.cfi_def_cfa_offset 8
 1339              		.cfi_offset 4, -8
 1340              		.cfi_offset 5, -4
 613:Drivers/STM32F7xx_HAL_Driver/Src/stm32f7xx_ll_usb.c ****   uint32_t epnum = (uint32_t)ep->num;
 1341              		.loc 1 613 3 is_stmt 1 view .LVU404
 1342              	.LVL119:
 614:Drivers/STM32F7xx_HAL_Driver/Src/stm32f7xx_ll_usb.c **** 
 1343              		.loc 1 614 3 view .LVU405
 614:Drivers/STM32F7xx_HAL_Driver/Src/stm32f7xx_ll_usb.c **** 
 1344              		.loc 1 614 32 is_stmt 0 view .LVU406
 1345 0002 0A78     		ldrb	r2, [r1]	@ zero_extendqisi2
 1346              	.LVL120:
 617:Drivers/STM32F7xx_HAL_Driver/Src/stm32f7xx_ll_usb.c ****   {
 1347              		.loc 1 617 3 is_stmt 1 view .LVU407
 617:Drivers/STM32F7xx_HAL_Driver/Src/stm32f7xx_ll_usb.c ****   {
 1348              		.loc 1 617 9 is_stmt 0 view .LVU408
 1349 0004 4B78     		ldrb	r3, [r1, #1]	@ zero_extendqisi2
 617:Drivers/STM32F7xx_HAL_Driver/Src/stm32f7xx_ll_usb.c ****   {
ARM GAS  /tmp/cc8xco1Q.s 			page 55


 1350              		.loc 1 617 6 view .LVU409
 1351 0006 012B     		cmp	r3, #1
 1352 0008 23D0     		beq	.L110
 631:Drivers/STM32F7xx_HAL_Driver/Src/stm32f7xx_ll_usb.c ****     {
 1353              		.loc 1 631 5 is_stmt 1 view .LVU410
 631:Drivers/STM32F7xx_HAL_Driver/Src/stm32f7xx_ll_usb.c ****     {
 1354              		.loc 1 631 11 is_stmt 0 view .LVU411
 1355 000a 00EB421C 		add	ip, r0, r2, lsl #5
 631:Drivers/STM32F7xx_HAL_Driver/Src/stm32f7xx_ll_usb.c ****     {
 1356              		.loc 1 631 28 view .LVU412
 1357 000e DCF8003B 		ldr	r3, [ip, #2816]
 631:Drivers/STM32F7xx_HAL_Driver/Src/stm32f7xx_ll_usb.c ****     {
 1358              		.loc 1 631 8 view .LVU413
 1359 0012 13F4004F 		tst	r3, #32768
 1360 0016 0ED1     		bne	.L108
 633:Drivers/STM32F7xx_HAL_Driver/Src/stm32f7xx_ll_usb.c ****                                     ((uint32_t)ep->type << 18) | (epnum << 22) |
 1361              		.loc 1 633 7 is_stmt 1 view .LVU414
 633:Drivers/STM32F7xx_HAL_Driver/Src/stm32f7xx_ll_usb.c ****                                     ((uint32_t)ep->type << 18) | (epnum << 22) |
 1362              		.loc 1 633 34 is_stmt 0 view .LVU415
 1363 0018 DCF8004B 		ldr	r4, [ip, #2816]
 633:Drivers/STM32F7xx_HAL_Driver/Src/stm32f7xx_ll_usb.c ****                                     ((uint32_t)ep->type << 18) | (epnum << 22) |
 1364              		.loc 1 633 40 view .LVU416
 1365 001c 8B68     		ldr	r3, [r1, #8]
 633:Drivers/STM32F7xx_HAL_Driver/Src/stm32f7xx_ll_usb.c ****                                     ((uint32_t)ep->type << 18) | (epnum << 22) |
 1366              		.loc 1 633 52 view .LVU417
 1367 001e C3F30A03 		ubfx	r3, r3, #0, #11
 634:Drivers/STM32F7xx_HAL_Driver/Src/stm32f7xx_ll_usb.c ****                                     USB_OTG_DOEPCTL_USBAEP;
 1368              		.loc 1 634 50 view .LVU418
 1369 0022 CD78     		ldrb	r5, [r1, #3]	@ zero_extendqisi2
 633:Drivers/STM32F7xx_HAL_Driver/Src/stm32f7xx_ll_usb.c ****                                     ((uint32_t)ep->type << 18) | (epnum << 22) |
 1370              		.loc 1 633 77 view .LVU419
 1371 0024 43EA8543 		orr	r3, r3, r5, lsl #18
 634:Drivers/STM32F7xx_HAL_Driver/Src/stm32f7xx_ll_usb.c ****                                     USB_OTG_DOEPCTL_USBAEP;
 1372              		.loc 1 634 64 view .LVU420
 1373 0028 43EA8253 		orr	r3, r3, r2, lsl #22
 633:Drivers/STM32F7xx_HAL_Driver/Src/stm32f7xx_ll_usb.c ****                                     ((uint32_t)ep->type << 18) | (epnum << 22) |
 1374              		.loc 1 633 34 view .LVU421
 1375 002c 2343     		orrs	r3, r3, r4
 1376 002e 43F40043 		orr	r3, r3, #32768
 1377 0032 CCF8003B 		str	r3, [ip, #2816]
 1378              	.L108:
 638:Drivers/STM32F7xx_HAL_Driver/Src/stm32f7xx_ll_usb.c ****   }
 1379              		.loc 1 638 5 is_stmt 1 view .LVU422
 638:Drivers/STM32F7xx_HAL_Driver/Src/stm32f7xx_ll_usb.c ****   }
 1380              		.loc 1 638 27 is_stmt 0 view .LVU423
 1381 0036 D0F83C38 		ldr	r3, [r0, #2108]
 638:Drivers/STM32F7xx_HAL_Driver/Src/stm32f7xx_ll_usb.c ****   }
 1382              		.loc 1 638 76 view .LVU424
 1383 003a 0A78     		ldrb	r2, [r1]	@ zero_extendqisi2
 1384              	.LVL121:
 638:Drivers/STM32F7xx_HAL_Driver/Src/stm32f7xx_ll_usb.c ****   }
 1385              		.loc 1 638 82 view .LVU425
 1386 003c 02F00F01 		and	r1, r2, #15
 1387              	.LVL122:
 638:Drivers/STM32F7xx_HAL_Driver/Src/stm32f7xx_ll_usb.c ****   }
 1388              		.loc 1 638 55 view .LVU426
 1389 0040 0122     		movs	r2, #1
ARM GAS  /tmp/cc8xco1Q.s 			page 56


 1390 0042 8A40     		lsls	r2, r2, r1
 638:Drivers/STM32F7xx_HAL_Driver/Src/stm32f7xx_ll_usb.c ****   }
 1391              		.loc 1 638 27 view .LVU427
 1392 0044 43EA0243 		orr	r3, r3, r2, lsl #16
 1393 0048 C0F83C38 		str	r3, [r0, #2108]
 1394              	.L107:
 641:Drivers/STM32F7xx_HAL_Driver/Src/stm32f7xx_ll_usb.c **** }
 1395              		.loc 1 641 3 is_stmt 1 view .LVU428
 642:Drivers/STM32F7xx_HAL_Driver/Src/stm32f7xx_ll_usb.c **** 
 1396              		.loc 1 642 1 is_stmt 0 view .LVU429
 1397 004c 0020     		movs	r0, #0
 1398              	.LVL123:
 642:Drivers/STM32F7xx_HAL_Driver/Src/stm32f7xx_ll_usb.c **** 
 1399              		.loc 1 642 1 view .LVU430
 1400 004e 30BC     		pop	{r4, r5}
 1401              	.LCFI13:
 1402              		.cfi_remember_state
 1403              		.cfi_restore 5
 1404              		.cfi_restore 4
 1405              		.cfi_def_cfa_offset 0
 1406 0050 7047     		bx	lr
 1407              	.LVL124:
 1408              	.L110:
 1409              	.LCFI14:
 1410              		.cfi_restore_state
 619:Drivers/STM32F7xx_HAL_Driver/Src/stm32f7xx_ll_usb.c ****     {
 1411              		.loc 1 619 5 is_stmt 1 view .LVU431
 619:Drivers/STM32F7xx_HAL_Driver/Src/stm32f7xx_ll_usb.c ****     {
 1412              		.loc 1 619 11 is_stmt 0 view .LVU432
 1413 0052 00EB4214 		add	r4, r0, r2, lsl #5
 619:Drivers/STM32F7xx_HAL_Driver/Src/stm32f7xx_ll_usb.c ****     {
 1414              		.loc 1 619 27 view .LVU433
 1415 0056 D4F80039 		ldr	r3, [r4, #2304]
 619:Drivers/STM32F7xx_HAL_Driver/Src/stm32f7xx_ll_usb.c ****     {
 1416              		.loc 1 619 8 view .LVU434
 1417 005a 13F4004F 		tst	r3, #32768
 1418 005e 0FD1     		bne	.L106
 621:Drivers/STM32F7xx_HAL_Driver/Src/stm32f7xx_ll_usb.c ****                                    ((uint32_t)ep->type << 18) | (epnum << 22) |
 1419              		.loc 1 621 7 is_stmt 1 view .LVU435
 621:Drivers/STM32F7xx_HAL_Driver/Src/stm32f7xx_ll_usb.c ****                                    ((uint32_t)ep->type << 18) | (epnum << 22) |
 1420              		.loc 1 621 33 is_stmt 0 view .LVU436
 1421 0060 D4F80059 		ldr	r5, [r4, #2304]
 621:Drivers/STM32F7xx_HAL_Driver/Src/stm32f7xx_ll_usb.c ****                                    ((uint32_t)ep->type << 18) | (epnum << 22) |
 1422              		.loc 1 621 39 view .LVU437
 1423 0064 8B68     		ldr	r3, [r1, #8]
 621:Drivers/STM32F7xx_HAL_Driver/Src/stm32f7xx_ll_usb.c ****                                    ((uint32_t)ep->type << 18) | (epnum << 22) |
 1424              		.loc 1 621 51 view .LVU438
 1425 0066 C3F30A03 		ubfx	r3, r3, #0, #11
 622:Drivers/STM32F7xx_HAL_Driver/Src/stm32f7xx_ll_usb.c ****                                    USB_OTG_DIEPCTL_SD0PID_SEVNFRM |
 1426              		.loc 1 622 49 view .LVU439
 1427 006a 91F803C0 		ldrb	ip, [r1, #3]	@ zero_extendqisi2
 621:Drivers/STM32F7xx_HAL_Driver/Src/stm32f7xx_ll_usb.c ****                                    ((uint32_t)ep->type << 18) | (epnum << 22) |
 1428              		.loc 1 621 76 view .LVU440
 1429 006e 43EA8C43 		orr	r3, r3, ip, lsl #18
 622:Drivers/STM32F7xx_HAL_Driver/Src/stm32f7xx_ll_usb.c ****                                    USB_OTG_DIEPCTL_SD0PID_SEVNFRM |
 1430              		.loc 1 622 63 view .LVU441
 1431 0072 43EA8253 		orr	r3, r3, r2, lsl #22
ARM GAS  /tmp/cc8xco1Q.s 			page 57


 621:Drivers/STM32F7xx_HAL_Driver/Src/stm32f7xx_ll_usb.c ****                                    ((uint32_t)ep->type << 18) | (epnum << 22) |
 1432              		.loc 1 621 33 view .LVU442
 1433 0076 2B43     		orrs	r3, r3, r5
 1434 0078 074A     		ldr	r2, .L111
 1435              	.LVL125:
 621:Drivers/STM32F7xx_HAL_Driver/Src/stm32f7xx_ll_usb.c ****                                    ((uint32_t)ep->type << 18) | (epnum << 22) |
 1436              		.loc 1 621 33 view .LVU443
 1437 007a 1A43     		orrs	r2, r2, r3
 1438 007c C4F80029 		str	r2, [r4, #2304]
 1439              	.LVL126:
 1440              	.L106:
 627:Drivers/STM32F7xx_HAL_Driver/Src/stm32f7xx_ll_usb.c ****   }
 1441              		.loc 1 627 5 is_stmt 1 view .LVU444
 627:Drivers/STM32F7xx_HAL_Driver/Src/stm32f7xx_ll_usb.c ****   }
 1442              		.loc 1 627 27 is_stmt 0 view .LVU445
 1443 0080 D0F83C28 		ldr	r2, [r0, #2108]
 627:Drivers/STM32F7xx_HAL_Driver/Src/stm32f7xx_ll_usb.c ****   }
 1444              		.loc 1 627 75 view .LVU446
 1445 0084 0B78     		ldrb	r3, [r1]	@ zero_extendqisi2
 627:Drivers/STM32F7xx_HAL_Driver/Src/stm32f7xx_ll_usb.c ****   }
 1446              		.loc 1 627 81 view .LVU447
 1447 0086 03F00F01 		and	r1, r3, #15
 1448              	.LVL127:
 627:Drivers/STM32F7xx_HAL_Driver/Src/stm32f7xx_ll_usb.c ****   }
 1449              		.loc 1 627 54 view .LVU448
 1450 008a 0123     		movs	r3, #1
 1451 008c 8B40     		lsls	r3, r3, r1
 627:Drivers/STM32F7xx_HAL_Driver/Src/stm32f7xx_ll_usb.c ****   }
 1452              		.loc 1 627 52 view .LVU449
 1453 008e 9BB2     		uxth	r3, r3
 627:Drivers/STM32F7xx_HAL_Driver/Src/stm32f7xx_ll_usb.c ****   }
 1454              		.loc 1 627 27 view .LVU450
 1455 0090 1343     		orrs	r3, r3, r2
 1456 0092 C0F83C38 		str	r3, [r0, #2108]
 1457 0096 D9E7     		b	.L107
 1458              	.L112:
 1459              		.align	2
 1460              	.L111:
 1461 0098 00800010 		.word	268468224
 1462              		.cfi_endproc
 1463              	.LFE152:
 1465              		.section	.text.USB_DeactivateEndpoint,"ax",%progbits
 1466              		.align	1
 1467              		.global	USB_DeactivateEndpoint
 1468              		.syntax unified
 1469              		.thumb
 1470              		.thumb_func
 1471              		.fpu fpv5-d16
 1473              	USB_DeactivateEndpoint:
 1474              	.LVL128:
 1475              	.LFB153:
 651:Drivers/STM32F7xx_HAL_Driver/Src/stm32f7xx_ll_usb.c ****   uint32_t USBx_BASE = (uint32_t)USBx;
 1476              		.loc 1 651 1 is_stmt 1 view -0
 1477              		.cfi_startproc
 1478              		@ args = 0, pretend = 0, frame = 0
 1479              		@ frame_needed = 0, uses_anonymous_args = 0
 1480              		@ link register save eliminated.
ARM GAS  /tmp/cc8xco1Q.s 			page 58


 651:Drivers/STM32F7xx_HAL_Driver/Src/stm32f7xx_ll_usb.c ****   uint32_t USBx_BASE = (uint32_t)USBx;
 1481              		.loc 1 651 1 is_stmt 0 view .LVU452
 1482 0000 30B4     		push	{r4, r5}
 1483              	.LCFI15:
 1484              		.cfi_def_cfa_offset 8
 1485              		.cfi_offset 4, -8
 1486              		.cfi_offset 5, -4
 652:Drivers/STM32F7xx_HAL_Driver/Src/stm32f7xx_ll_usb.c ****   uint32_t epnum = (uint32_t)ep->num;
 1487              		.loc 1 652 3 is_stmt 1 view .LVU453
 1488              	.LVL129:
 653:Drivers/STM32F7xx_HAL_Driver/Src/stm32f7xx_ll_usb.c **** 
 1489              		.loc 1 653 3 view .LVU454
 653:Drivers/STM32F7xx_HAL_Driver/Src/stm32f7xx_ll_usb.c **** 
 1490              		.loc 1 653 32 is_stmt 0 view .LVU455
 1491 0002 0B78     		ldrb	r3, [r1]	@ zero_extendqisi2
 1492              	.LVL130:
 656:Drivers/STM32F7xx_HAL_Driver/Src/stm32f7xx_ll_usb.c ****   {
 1493              		.loc 1 656 3 is_stmt 1 view .LVU456
 656:Drivers/STM32F7xx_HAL_Driver/Src/stm32f7xx_ll_usb.c ****   {
 1494              		.loc 1 656 9 is_stmt 0 view .LVU457
 1495 0004 4A78     		ldrb	r2, [r1, #1]	@ zero_extendqisi2
 656:Drivers/STM32F7xx_HAL_Driver/Src/stm32f7xx_ll_usb.c ****   {
 1496              		.loc 1 656 6 view .LVU458
 1497 0006 012A     		cmp	r2, #1
 1498 0008 26D0     		beq	.L119
 674:Drivers/STM32F7xx_HAL_Driver/Src/stm32f7xx_ll_usb.c ****     {
 1499              		.loc 1 674 5 is_stmt 1 view .LVU459
 674:Drivers/STM32F7xx_HAL_Driver/Src/stm32f7xx_ll_usb.c ****     {
 1500              		.loc 1 674 10 is_stmt 0 view .LVU460
 1501 000a 00EB4313 		add	r3, r0, r3, lsl #5
 1502              	.LVL131:
 674:Drivers/STM32F7xx_HAL_Driver/Src/stm32f7xx_ll_usb.c ****     {
 1503              		.loc 1 674 27 view .LVU461
 1504 000e D3F8002B 		ldr	r2, [r3, #2816]
 674:Drivers/STM32F7xx_HAL_Driver/Src/stm32f7xx_ll_usb.c ****     {
 1505              		.loc 1 674 8 view .LVU462
 1506 0012 002A     		cmp	r2, #0
 1507 0014 52DB     		blt	.L120
 1508              	.LVL132:
 1509              	.L117:
 680:Drivers/STM32F7xx_HAL_Driver/Src/stm32f7xx_ll_usb.c ****     USBx_DEVICE->DAINTMSK &= ~(USB_OTG_DAINTMSK_OEPM & ((uint32_t)(1UL << (ep->num & EP_ADDR_MSK)) 
 1510              		.loc 1 680 5 is_stmt 1 view .LVU463
 680:Drivers/STM32F7xx_HAL_Driver/Src/stm32f7xx_ll_usb.c ****     USBx_DEVICE->DAINTMSK &= ~(USB_OTG_DAINTMSK_OEPM & ((uint32_t)(1UL << (ep->num & EP_ADDR_MSK)) 
 1511              		.loc 1 680 27 is_stmt 0 view .LVU464
 1512 0016 D0F83C48 		ldr	r4, [r0, #2108]
 680:Drivers/STM32F7xx_HAL_Driver/Src/stm32f7xx_ll_usb.c ****     USBx_DEVICE->DAINTMSK &= ~(USB_OTG_DAINTMSK_OEPM & ((uint32_t)(1UL << (ep->num & EP_ADDR_MSK)) 
 1513              		.loc 1 680 78 view .LVU465
 1514 001a 0A78     		ldrb	r2, [r1]	@ zero_extendqisi2
 680:Drivers/STM32F7xx_HAL_Driver/Src/stm32f7xx_ll_usb.c ****     USBx_DEVICE->DAINTMSK &= ~(USB_OTG_DAINTMSK_OEPM & ((uint32_t)(1UL << (ep->num & EP_ADDR_MSK)) 
 1515              		.loc 1 680 84 view .LVU466
 1516 001c 02F00F02 		and	r2, r2, #15
 680:Drivers/STM32F7xx_HAL_Driver/Src/stm32f7xx_ll_usb.c ****     USBx_DEVICE->DAINTMSK &= ~(USB_OTG_DAINTMSK_OEPM & ((uint32_t)(1UL << (ep->num & EP_ADDR_MSK)) 
 1517              		.loc 1 680 57 view .LVU467
 1518 0020 4FF0010C 		mov	ip, #1
 1519 0024 0CFA02F2 		lsl	r2, ip, r2
 680:Drivers/STM32F7xx_HAL_Driver/Src/stm32f7xx_ll_usb.c ****     USBx_DEVICE->DAINTMSK &= ~(USB_OTG_DAINTMSK_OEPM & ((uint32_t)(1UL << (ep->num & EP_ADDR_MSK)) 
 1520              		.loc 1 680 27 view .LVU468
ARM GAS  /tmp/cc8xco1Q.s 			page 59


 1521 0028 24EA0242 		bic	r2, r4, r2, lsl #16
 1522 002c C0F83C28 		str	r2, [r0, #2108]
 681:Drivers/STM32F7xx_HAL_Driver/Src/stm32f7xx_ll_usb.c ****     USBx_OUTEP(epnum)->DOEPCTL &= ~(USB_OTG_DOEPCTL_USBAEP |
 1523              		.loc 1 681 5 is_stmt 1 view .LVU469
 681:Drivers/STM32F7xx_HAL_Driver/Src/stm32f7xx_ll_usb.c ****     USBx_OUTEP(epnum)->DOEPCTL &= ~(USB_OTG_DOEPCTL_USBAEP |
 1524              		.loc 1 681 27 is_stmt 0 view .LVU470
 1525 0030 D0F81C28 		ldr	r2, [r0, #2076]
 681:Drivers/STM32F7xx_HAL_Driver/Src/stm32f7xx_ll_usb.c ****     USBx_OUTEP(epnum)->DOEPCTL &= ~(USB_OTG_DOEPCTL_USBAEP |
 1526              		.loc 1 681 78 view .LVU471
 1527 0034 0978     		ldrb	r1, [r1]	@ zero_extendqisi2
 1528              	.LVL133:
 681:Drivers/STM32F7xx_HAL_Driver/Src/stm32f7xx_ll_usb.c ****     USBx_OUTEP(epnum)->DOEPCTL &= ~(USB_OTG_DOEPCTL_USBAEP |
 1529              		.loc 1 681 84 view .LVU472
 1530 0036 01F00F01 		and	r1, r1, #15
 681:Drivers/STM32F7xx_HAL_Driver/Src/stm32f7xx_ll_usb.c ****     USBx_OUTEP(epnum)->DOEPCTL &= ~(USB_OTG_DOEPCTL_USBAEP |
 1531              		.loc 1 681 57 view .LVU473
 1532 003a 0CFA01FC 		lsl	ip, ip, r1
 681:Drivers/STM32F7xx_HAL_Driver/Src/stm32f7xx_ll_usb.c ****     USBx_OUTEP(epnum)->DOEPCTL &= ~(USB_OTG_DOEPCTL_USBAEP |
 1533              		.loc 1 681 27 view .LVU474
 1534 003e 22EA0C42 		bic	r2, r2, ip, lsl #16
 1535 0042 C0F81C28 		str	r2, [r0, #2076]
 682:Drivers/STM32F7xx_HAL_Driver/Src/stm32f7xx_ll_usb.c ****                                     USB_OTG_DOEPCTL_MPSIZ |
 1536              		.loc 1 682 5 is_stmt 1 view .LVU475
 682:Drivers/STM32F7xx_HAL_Driver/Src/stm32f7xx_ll_usb.c ****                                     USB_OTG_DOEPCTL_MPSIZ |
 1537              		.loc 1 682 32 is_stmt 0 view .LVU476
 1538 0046 D3F8001B 		ldr	r1, [r3, #2816]
 1539 004a 234A     		ldr	r2, .L122
 1540 004c 0A40     		ands	r2, r2, r1
 1541 004e C3F8002B 		str	r2, [r3, #2816]
 1542              	.L116:
 688:Drivers/STM32F7xx_HAL_Driver/Src/stm32f7xx_ll_usb.c **** }
 1543              		.loc 1 688 3 is_stmt 1 view .LVU477
 689:Drivers/STM32F7xx_HAL_Driver/Src/stm32f7xx_ll_usb.c **** 
 1544              		.loc 1 689 1 is_stmt 0 view .LVU478
 1545 0052 0020     		movs	r0, #0
 1546              	.LVL134:
 689:Drivers/STM32F7xx_HAL_Driver/Src/stm32f7xx_ll_usb.c **** 
 1547              		.loc 1 689 1 view .LVU479
 1548 0054 30BC     		pop	{r4, r5}
 1549              	.LCFI16:
 1550              		.cfi_remember_state
 1551              		.cfi_restore 5
 1552              		.cfi_restore 4
 1553              		.cfi_def_cfa_offset 0
 1554 0056 7047     		bx	lr
 1555              	.LVL135:
 1556              	.L119:
 1557              	.LCFI17:
 1558              		.cfi_restore_state
 658:Drivers/STM32F7xx_HAL_Driver/Src/stm32f7xx_ll_usb.c ****     {
 1559              		.loc 1 658 5 is_stmt 1 view .LVU480
 658:Drivers/STM32F7xx_HAL_Driver/Src/stm32f7xx_ll_usb.c ****     {
 1560              		.loc 1 658 10 is_stmt 0 view .LVU481
 1561 0058 00EB4313 		add	r3, r0, r3, lsl #5
 1562              	.LVL136:
 658:Drivers/STM32F7xx_HAL_Driver/Src/stm32f7xx_ll_usb.c ****     {
 1563              		.loc 1 658 26 view .LVU482
ARM GAS  /tmp/cc8xco1Q.s 			page 60


 1564 005c D3F80029 		ldr	r2, [r3, #2304]
 658:Drivers/STM32F7xx_HAL_Driver/Src/stm32f7xx_ll_usb.c ****     {
 1565              		.loc 1 658 8 view .LVU483
 1566 0060 002A     		cmp	r2, #0
 1567 0062 1EDB     		blt	.L121
 1568              	.LVL137:
 1569              	.L115:
 664:Drivers/STM32F7xx_HAL_Driver/Src/stm32f7xx_ll_usb.c ****     USBx_DEVICE->DAINTMSK &= ~(USB_OTG_DAINTMSK_IEPM & (uint32_t)(1UL << (ep->num & EP_ADDR_MSK)));
 1570              		.loc 1 664 5 is_stmt 1 view .LVU484
 664:Drivers/STM32F7xx_HAL_Driver/Src/stm32f7xx_ll_usb.c ****     USBx_DEVICE->DAINTMSK &= ~(USB_OTG_DAINTMSK_IEPM & (uint32_t)(1UL << (ep->num & EP_ADDR_MSK)));
 1571              		.loc 1 664 27 is_stmt 0 view .LVU485
 1572 0064 D0F83C58 		ldr	r5, [r0, #2108]
 664:Drivers/STM32F7xx_HAL_Driver/Src/stm32f7xx_ll_usb.c ****     USBx_DEVICE->DAINTMSK &= ~(USB_OTG_DAINTMSK_IEPM & (uint32_t)(1UL << (ep->num & EP_ADDR_MSK)));
 1573              		.loc 1 664 77 view .LVU486
 1574 0068 0A78     		ldrb	r2, [r1]	@ zero_extendqisi2
 664:Drivers/STM32F7xx_HAL_Driver/Src/stm32f7xx_ll_usb.c ****     USBx_DEVICE->DAINTMSK &= ~(USB_OTG_DAINTMSK_IEPM & (uint32_t)(1UL << (ep->num & EP_ADDR_MSK)));
 1575              		.loc 1 664 83 view .LVU487
 1576 006a 02F00F02 		and	r2, r2, #15
 664:Drivers/STM32F7xx_HAL_Driver/Src/stm32f7xx_ll_usb.c ****     USBx_DEVICE->DAINTMSK &= ~(USB_OTG_DAINTMSK_IEPM & (uint32_t)(1UL << (ep->num & EP_ADDR_MSK)));
 1577              		.loc 1 664 56 view .LVU488
 1578 006e 0124     		movs	r4, #1
 1579 0070 04FA02F2 		lsl	r2, r4, r2
 664:Drivers/STM32F7xx_HAL_Driver/Src/stm32f7xx_ll_usb.c ****     USBx_DEVICE->DAINTMSK &= ~(USB_OTG_DAINTMSK_IEPM & (uint32_t)(1UL << (ep->num & EP_ADDR_MSK)));
 1580              		.loc 1 664 54 view .LVU489
 1581 0074 92B2     		uxth	r2, r2
 664:Drivers/STM32F7xx_HAL_Driver/Src/stm32f7xx_ll_usb.c ****     USBx_DEVICE->DAINTMSK &= ~(USB_OTG_DAINTMSK_IEPM & (uint32_t)(1UL << (ep->num & EP_ADDR_MSK)));
 1582              		.loc 1 664 27 view .LVU490
 1583 0076 25EA0202 		bic	r2, r5, r2
 1584 007a C0F83C28 		str	r2, [r0, #2108]
 665:Drivers/STM32F7xx_HAL_Driver/Src/stm32f7xx_ll_usb.c ****     USBx_INEP(epnum)->DIEPCTL &= ~(USB_OTG_DIEPCTL_USBAEP |
 1585              		.loc 1 665 5 is_stmt 1 view .LVU491
 665:Drivers/STM32F7xx_HAL_Driver/Src/stm32f7xx_ll_usb.c ****     USBx_INEP(epnum)->DIEPCTL &= ~(USB_OTG_DIEPCTL_USBAEP |
 1586              		.loc 1 665 27 is_stmt 0 view .LVU492
 1587 007e D0F81C28 		ldr	r2, [r0, #2076]
 665:Drivers/STM32F7xx_HAL_Driver/Src/stm32f7xx_ll_usb.c ****     USBx_INEP(epnum)->DIEPCTL &= ~(USB_OTG_DIEPCTL_USBAEP |
 1588              		.loc 1 665 77 view .LVU493
 1589 0082 0978     		ldrb	r1, [r1]	@ zero_extendqisi2
 1590              	.LVL138:
 665:Drivers/STM32F7xx_HAL_Driver/Src/stm32f7xx_ll_usb.c ****     USBx_INEP(epnum)->DIEPCTL &= ~(USB_OTG_DIEPCTL_USBAEP |
 1591              		.loc 1 665 83 view .LVU494
 1592 0084 01F00F01 		and	r1, r1, #15
 665:Drivers/STM32F7xx_HAL_Driver/Src/stm32f7xx_ll_usb.c ****     USBx_INEP(epnum)->DIEPCTL &= ~(USB_OTG_DIEPCTL_USBAEP |
 1593              		.loc 1 665 56 view .LVU495
 1594 0088 8C40     		lsls	r4, r4, r1
 665:Drivers/STM32F7xx_HAL_Driver/Src/stm32f7xx_ll_usb.c ****     USBx_INEP(epnum)->DIEPCTL &= ~(USB_OTG_DIEPCTL_USBAEP |
 1595              		.loc 1 665 54 view .LVU496
 1596 008a A4B2     		uxth	r4, r4
 665:Drivers/STM32F7xx_HAL_Driver/Src/stm32f7xx_ll_usb.c ****     USBx_INEP(epnum)->DIEPCTL &= ~(USB_OTG_DIEPCTL_USBAEP |
 1597              		.loc 1 665 27 view .LVU497
 1598 008c 22EA0404 		bic	r4, r2, r4
 1599 0090 C0F81C48 		str	r4, [r0, #2076]
 666:Drivers/STM32F7xx_HAL_Driver/Src/stm32f7xx_ll_usb.c ****                                    USB_OTG_DIEPCTL_MPSIZ |
 1600              		.loc 1 666 5 is_stmt 1 view .LVU498
 666:Drivers/STM32F7xx_HAL_Driver/Src/stm32f7xx_ll_usb.c ****                                    USB_OTG_DIEPCTL_MPSIZ |
 1601              		.loc 1 666 31 is_stmt 0 view .LVU499
 1602 0094 D3F80019 		ldr	r1, [r3, #2304]
 1603 0098 104A     		ldr	r2, .L122+4
ARM GAS  /tmp/cc8xco1Q.s 			page 61


 1604 009a 0A40     		ands	r2, r2, r1
 1605 009c C3F80029 		str	r2, [r3, #2304]
 1606 00a0 D7E7     		b	.L116
 1607              	.LVL139:
 1608              	.L121:
 660:Drivers/STM32F7xx_HAL_Driver/Src/stm32f7xx_ll_usb.c ****       USBx_INEP(epnum)->DIEPCTL |= USB_OTG_DIEPCTL_EPDIS;
 1609              		.loc 1 660 7 is_stmt 1 view .LVU500
 660:Drivers/STM32F7xx_HAL_Driver/Src/stm32f7xx_ll_usb.c ****       USBx_INEP(epnum)->DIEPCTL |= USB_OTG_DIEPCTL_EPDIS;
 1610              		.loc 1 660 33 is_stmt 0 view .LVU501
 1611 00a2 D3F80029 		ldr	r2, [r3, #2304]
 1612 00a6 42F00062 		orr	r2, r2, #134217728
 1613 00aa C3F80029 		str	r2, [r3, #2304]
 1614              	.LVL140:
 661:Drivers/STM32F7xx_HAL_Driver/Src/stm32f7xx_ll_usb.c ****     }
 1615              		.loc 1 661 7 is_stmt 1 view .LVU502
 661:Drivers/STM32F7xx_HAL_Driver/Src/stm32f7xx_ll_usb.c ****     }
 1616              		.loc 1 661 33 is_stmt 0 view .LVU503
 1617 00ae D3F80029 		ldr	r2, [r3, #2304]
 1618 00b2 42F08042 		orr	r2, r2, #1073741824
 1619 00b6 C3F80029 		str	r2, [r3, #2304]
 1620 00ba D3E7     		b	.L115
 1621              	.LVL141:
 1622              	.L120:
 676:Drivers/STM32F7xx_HAL_Driver/Src/stm32f7xx_ll_usb.c ****       USBx_OUTEP(epnum)->DOEPCTL |= USB_OTG_DOEPCTL_EPDIS;
 1623              		.loc 1 676 7 is_stmt 1 view .LVU504
 676:Drivers/STM32F7xx_HAL_Driver/Src/stm32f7xx_ll_usb.c ****       USBx_OUTEP(epnum)->DOEPCTL |= USB_OTG_DOEPCTL_EPDIS;
 1624              		.loc 1 676 34 is_stmt 0 view .LVU505
 1625 00bc D3F8002B 		ldr	r2, [r3, #2816]
 1626 00c0 42F00062 		orr	r2, r2, #134217728
 1627 00c4 C3F8002B 		str	r2, [r3, #2816]
 1628              	.LVL142:
 677:Drivers/STM32F7xx_HAL_Driver/Src/stm32f7xx_ll_usb.c ****     }
 1629              		.loc 1 677 7 is_stmt 1 view .LVU506
 677:Drivers/STM32F7xx_HAL_Driver/Src/stm32f7xx_ll_usb.c ****     }
 1630              		.loc 1 677 34 is_stmt 0 view .LVU507
 1631 00c8 D3F8002B 		ldr	r2, [r3, #2816]
 1632 00cc 42F08042 		orr	r2, r2, #1073741824
 1633 00d0 C3F8002B 		str	r2, [r3, #2816]
 1634 00d4 9FE7     		b	.L117
 1635              	.L123:
 1636 00d6 00BF     		.align	2
 1637              	.L122:
 1638 00d8 0078F3EF 		.word	-269256704
 1639 00dc 007833EC 		.word	-332171264
 1640              		.cfi_endproc
 1641              	.LFE153:
 1643              		.section	.text.USB_DeactivateDedicatedEndpoint,"ax",%progbits
 1644              		.align	1
 1645              		.global	USB_DeactivateDedicatedEndpoint
 1646              		.syntax unified
 1647              		.thumb
 1648              		.thumb_func
 1649              		.fpu fpv5-d16
 1651              	USB_DeactivateDedicatedEndpoint:
 1652              	.LVL143:
 1653              	.LFB154:
 698:Drivers/STM32F7xx_HAL_Driver/Src/stm32f7xx_ll_usb.c ****   uint32_t USBx_BASE = (uint32_t)USBx;
ARM GAS  /tmp/cc8xco1Q.s 			page 62


 1654              		.loc 1 698 1 is_stmt 1 view -0
 1655              		.cfi_startproc
 1656              		@ args = 0, pretend = 0, frame = 0
 1657              		@ frame_needed = 0, uses_anonymous_args = 0
 1658              		@ link register save eliminated.
 699:Drivers/STM32F7xx_HAL_Driver/Src/stm32f7xx_ll_usb.c ****   uint32_t epnum = (uint32_t)ep->num;
 1659              		.loc 1 699 3 view .LVU509
 700:Drivers/STM32F7xx_HAL_Driver/Src/stm32f7xx_ll_usb.c **** 
 1660              		.loc 1 700 3 view .LVU510
 700:Drivers/STM32F7xx_HAL_Driver/Src/stm32f7xx_ll_usb.c **** 
 1661              		.loc 1 700 32 is_stmt 0 view .LVU511
 1662 0000 0B78     		ldrb	r3, [r1]	@ zero_extendqisi2
 1663              	.LVL144:
 703:Drivers/STM32F7xx_HAL_Driver/Src/stm32f7xx_ll_usb.c ****   {
 1664              		.loc 1 703 3 is_stmt 1 view .LVU512
 703:Drivers/STM32F7xx_HAL_Driver/Src/stm32f7xx_ll_usb.c ****   {
 1665              		.loc 1 703 9 is_stmt 0 view .LVU513
 1666 0002 4A78     		ldrb	r2, [r1, #1]	@ zero_extendqisi2
 703:Drivers/STM32F7xx_HAL_Driver/Src/stm32f7xx_ll_usb.c ****   {
 1667              		.loc 1 703 6 view .LVU514
 1668 0004 012A     		cmp	r2, #1
 1669 0006 18D0     		beq	.L129
 716:Drivers/STM32F7xx_HAL_Driver/Src/stm32f7xx_ll_usb.c ****     {
 1670              		.loc 1 716 5 is_stmt 1 view .LVU515
 716:Drivers/STM32F7xx_HAL_Driver/Src/stm32f7xx_ll_usb.c ****     {
 1671              		.loc 1 716 10 is_stmt 0 view .LVU516
 1672 0008 00EB4313 		add	r3, r0, r3, lsl #5
 1673              	.LVL145:
 716:Drivers/STM32F7xx_HAL_Driver/Src/stm32f7xx_ll_usb.c ****     {
 1674              		.loc 1 716 27 view .LVU517
 1675 000c D3F8002B 		ldr	r2, [r3, #2816]
 716:Drivers/STM32F7xx_HAL_Driver/Src/stm32f7xx_ll_usb.c ****     {
 1676              		.loc 1 716 8 view .LVU518
 1677 0010 002A     		cmp	r2, #0
 1678 0012 38DB     		blt	.L130
 1679              	.LVL146:
 1680              	.L128:
 722:Drivers/STM32F7xx_HAL_Driver/Src/stm32f7xx_ll_usb.c ****     USBx_DEVICE->DAINTMSK &= ~(USB_OTG_DAINTMSK_OEPM & ((uint32_t)(1UL << (ep->num & EP_ADDR_MSK)) 
 1681              		.loc 1 722 5 is_stmt 1 view .LVU519
 722:Drivers/STM32F7xx_HAL_Driver/Src/stm32f7xx_ll_usb.c ****     USBx_DEVICE->DAINTMSK &= ~(USB_OTG_DAINTMSK_OEPM & ((uint32_t)(1UL << (ep->num & EP_ADDR_MSK)) 
 1682              		.loc 1 722 32 is_stmt 0 view .LVU520
 1683 0014 D3F8002B 		ldr	r2, [r3, #2816]
 1684 0018 22F40042 		bic	r2, r2, #32768
 1685 001c C3F8002B 		str	r2, [r3, #2816]
 723:Drivers/STM32F7xx_HAL_Driver/Src/stm32f7xx_ll_usb.c ****   }
 1686              		.loc 1 723 5 is_stmt 1 view .LVU521
 723:Drivers/STM32F7xx_HAL_Driver/Src/stm32f7xx_ll_usb.c ****   }
 1687              		.loc 1 723 27 is_stmt 0 view .LVU522
 1688 0020 D0F81C38 		ldr	r3, [r0, #2076]
 723:Drivers/STM32F7xx_HAL_Driver/Src/stm32f7xx_ll_usb.c ****   }
 1689              		.loc 1 723 78 view .LVU523
 1690 0024 0A78     		ldrb	r2, [r1]	@ zero_extendqisi2
 723:Drivers/STM32F7xx_HAL_Driver/Src/stm32f7xx_ll_usb.c ****   }
 1691              		.loc 1 723 84 view .LVU524
 1692 0026 02F00F01 		and	r1, r2, #15
 1693              	.LVL147:
 723:Drivers/STM32F7xx_HAL_Driver/Src/stm32f7xx_ll_usb.c ****   }
ARM GAS  /tmp/cc8xco1Q.s 			page 63


 1694              		.loc 1 723 57 view .LVU525
 1695 002a 0122     		movs	r2, #1
 1696 002c 8A40     		lsls	r2, r2, r1
 723:Drivers/STM32F7xx_HAL_Driver/Src/stm32f7xx_ll_usb.c ****   }
 1697              		.loc 1 723 27 view .LVU526
 1698 002e 23EA0243 		bic	r3, r3, r2, lsl #16
 1699 0032 C0F81C38 		str	r3, [r0, #2076]
 1700              	.L127:
 726:Drivers/STM32F7xx_HAL_Driver/Src/stm32f7xx_ll_usb.c **** }
 1701              		.loc 1 726 3 is_stmt 1 view .LVU527
 727:Drivers/STM32F7xx_HAL_Driver/Src/stm32f7xx_ll_usb.c **** 
 1702              		.loc 1 727 1 is_stmt 0 view .LVU528
 1703 0036 0020     		movs	r0, #0
 1704              	.LVL148:
 727:Drivers/STM32F7xx_HAL_Driver/Src/stm32f7xx_ll_usb.c **** 
 1705              		.loc 1 727 1 view .LVU529
 1706 0038 7047     		bx	lr
 1707              	.LVL149:
 1708              	.L129:
 705:Drivers/STM32F7xx_HAL_Driver/Src/stm32f7xx_ll_usb.c ****     {
 1709              		.loc 1 705 5 is_stmt 1 view .LVU530
 705:Drivers/STM32F7xx_HAL_Driver/Src/stm32f7xx_ll_usb.c ****     {
 1710              		.loc 1 705 10 is_stmt 0 view .LVU531
 1711 003a 00EB4313 		add	r3, r0, r3, lsl #5
 1712              	.LVL150:
 705:Drivers/STM32F7xx_HAL_Driver/Src/stm32f7xx_ll_usb.c ****     {
 1713              		.loc 1 705 26 view .LVU532
 1714 003e D3F80029 		ldr	r2, [r3, #2304]
 705:Drivers/STM32F7xx_HAL_Driver/Src/stm32f7xx_ll_usb.c ****     {
 1715              		.loc 1 705 8 view .LVU533
 1716 0042 002A     		cmp	r2, #0
 1717 0044 12DB     		blt	.L131
 1718              	.LVL151:
 1719              	.L126:
 711:Drivers/STM32F7xx_HAL_Driver/Src/stm32f7xx_ll_usb.c ****     USBx_DEVICE->DAINTMSK &= ~(USB_OTG_DAINTMSK_IEPM & (uint32_t)(1UL << (ep->num & EP_ADDR_MSK)));
 1720              		.loc 1 711 5 is_stmt 1 view .LVU534
 711:Drivers/STM32F7xx_HAL_Driver/Src/stm32f7xx_ll_usb.c ****     USBx_DEVICE->DAINTMSK &= ~(USB_OTG_DAINTMSK_IEPM & (uint32_t)(1UL << (ep->num & EP_ADDR_MSK)));
 1721              		.loc 1 711 31 is_stmt 0 view .LVU535
 1722 0046 D3F80029 		ldr	r2, [r3, #2304]
 1723 004a 22F40042 		bic	r2, r2, #32768
 1724 004e C3F80029 		str	r2, [r3, #2304]
 712:Drivers/STM32F7xx_HAL_Driver/Src/stm32f7xx_ll_usb.c ****   }
 1725              		.loc 1 712 5 is_stmt 1 view .LVU536
 712:Drivers/STM32F7xx_HAL_Driver/Src/stm32f7xx_ll_usb.c ****   }
 1726              		.loc 1 712 27 is_stmt 0 view .LVU537
 1727 0052 D0F81C28 		ldr	r2, [r0, #2076]
 712:Drivers/STM32F7xx_HAL_Driver/Src/stm32f7xx_ll_usb.c ****   }
 1728              		.loc 1 712 77 view .LVU538
 1729 0056 0B78     		ldrb	r3, [r1]	@ zero_extendqisi2
 712:Drivers/STM32F7xx_HAL_Driver/Src/stm32f7xx_ll_usb.c ****   }
 1730              		.loc 1 712 83 view .LVU539
 1731 0058 03F00F01 		and	r1, r3, #15
 1732              	.LVL152:
 712:Drivers/STM32F7xx_HAL_Driver/Src/stm32f7xx_ll_usb.c ****   }
 1733              		.loc 1 712 56 view .LVU540
 1734 005c 0123     		movs	r3, #1
 1735 005e 8B40     		lsls	r3, r3, r1
ARM GAS  /tmp/cc8xco1Q.s 			page 64


 712:Drivers/STM32F7xx_HAL_Driver/Src/stm32f7xx_ll_usb.c ****   }
 1736              		.loc 1 712 54 view .LVU541
 1737 0060 9BB2     		uxth	r3, r3
 712:Drivers/STM32F7xx_HAL_Driver/Src/stm32f7xx_ll_usb.c ****   }
 1738              		.loc 1 712 27 view .LVU542
 1739 0062 22EA0303 		bic	r3, r2, r3
 1740 0066 C0F81C38 		str	r3, [r0, #2076]
 1741 006a E4E7     		b	.L127
 1742              	.LVL153:
 1743              	.L131:
 707:Drivers/STM32F7xx_HAL_Driver/Src/stm32f7xx_ll_usb.c ****       USBx_INEP(epnum)->DIEPCTL  |= USB_OTG_DIEPCTL_EPDIS;
 1744              		.loc 1 707 7 is_stmt 1 view .LVU543
 707:Drivers/STM32F7xx_HAL_Driver/Src/stm32f7xx_ll_usb.c ****       USBx_INEP(epnum)->DIEPCTL  |= USB_OTG_DIEPCTL_EPDIS;
 1745              		.loc 1 707 34 is_stmt 0 view .LVU544
 1746 006c D3F80029 		ldr	r2, [r3, #2304]
 1747 0070 42F00062 		orr	r2, r2, #134217728
 1748 0074 C3F80029 		str	r2, [r3, #2304]
 1749              	.LVL154:
 708:Drivers/STM32F7xx_HAL_Driver/Src/stm32f7xx_ll_usb.c ****     }
 1750              		.loc 1 708 7 is_stmt 1 view .LVU545
 708:Drivers/STM32F7xx_HAL_Driver/Src/stm32f7xx_ll_usb.c ****     }
 1751              		.loc 1 708 34 is_stmt 0 view .LVU546
 1752 0078 D3F80029 		ldr	r2, [r3, #2304]
 1753 007c 42F08042 		orr	r2, r2, #1073741824
 1754 0080 C3F80029 		str	r2, [r3, #2304]
 1755 0084 DFE7     		b	.L126
 1756              	.LVL155:
 1757              	.L130:
 718:Drivers/STM32F7xx_HAL_Driver/Src/stm32f7xx_ll_usb.c ****       USBx_OUTEP(epnum)->DOEPCTL  |= USB_OTG_DOEPCTL_EPDIS;
 1758              		.loc 1 718 7 is_stmt 1 view .LVU547
 718:Drivers/STM32F7xx_HAL_Driver/Src/stm32f7xx_ll_usb.c ****       USBx_OUTEP(epnum)->DOEPCTL  |= USB_OTG_DOEPCTL_EPDIS;
 1759              		.loc 1 718 35 is_stmt 0 view .LVU548
 1760 0086 D3F8002B 		ldr	r2, [r3, #2816]
 1761 008a 42F00062 		orr	r2, r2, #134217728
 1762 008e C3F8002B 		str	r2, [r3, #2816]
 1763              	.LVL156:
 719:Drivers/STM32F7xx_HAL_Driver/Src/stm32f7xx_ll_usb.c ****     }
 1764              		.loc 1 719 7 is_stmt 1 view .LVU549
 719:Drivers/STM32F7xx_HAL_Driver/Src/stm32f7xx_ll_usb.c ****     }
 1765              		.loc 1 719 35 is_stmt 0 view .LVU550
 1766 0092 D3F8002B 		ldr	r2, [r3, #2816]
 1767 0096 42F08042 		orr	r2, r2, #1073741824
 1768 009a C3F8002B 		str	r2, [r3, #2816]
 1769 009e B9E7     		b	.L128
 1770              		.cfi_endproc
 1771              	.LFE154:
 1773              		.section	.text.USB_EP0StartXfer,"ax",%progbits
 1774              		.align	1
 1775              		.global	USB_EP0StartXfer
 1776              		.syntax unified
 1777              		.thumb
 1778              		.thumb_func
 1779              		.fpu fpv5-d16
 1781              	USB_EP0StartXfer:
 1782              	.LVL157:
 1783              	.LFB156:
 882:Drivers/STM32F7xx_HAL_Driver/Src/stm32f7xx_ll_usb.c ****   uint32_t USBx_BASE = (uint32_t)USBx;
ARM GAS  /tmp/cc8xco1Q.s 			page 65


 1784              		.loc 1 882 1 is_stmt 1 view -0
 1785              		.cfi_startproc
 1786              		@ args = 0, pretend = 0, frame = 0
 1787              		@ frame_needed = 0, uses_anonymous_args = 0
 1788              		@ link register save eliminated.
 882:Drivers/STM32F7xx_HAL_Driver/Src/stm32f7xx_ll_usb.c ****   uint32_t USBx_BASE = (uint32_t)USBx;
 1789              		.loc 1 882 1 is_stmt 0 view .LVU552
 1790 0000 70B4     		push	{r4, r5, r6}
 1791              	.LCFI18:
 1792              		.cfi_def_cfa_offset 12
 1793              		.cfi_offset 4, -12
 1794              		.cfi_offset 5, -8
 1795              		.cfi_offset 6, -4
 883:Drivers/STM32F7xx_HAL_Driver/Src/stm32f7xx_ll_usb.c ****   uint32_t epnum = (uint32_t)ep->num;
 1796              		.loc 1 883 3 is_stmt 1 view .LVU553
 1797              	.LVL158:
 884:Drivers/STM32F7xx_HAL_Driver/Src/stm32f7xx_ll_usb.c **** 
 1798              		.loc 1 884 3 view .LVU554
 884:Drivers/STM32F7xx_HAL_Driver/Src/stm32f7xx_ll_usb.c **** 
 1799              		.loc 1 884 32 is_stmt 0 view .LVU555
 1800 0002 0B78     		ldrb	r3, [r1]	@ zero_extendqisi2
 1801              	.LVL159:
 887:Drivers/STM32F7xx_HAL_Driver/Src/stm32f7xx_ll_usb.c ****   {
 1802              		.loc 1 887 3 is_stmt 1 view .LVU556
 887:Drivers/STM32F7xx_HAL_Driver/Src/stm32f7xx_ll_usb.c ****   {
 1803              		.loc 1 887 9 is_stmt 0 view .LVU557
 1804 0004 4C78     		ldrb	r4, [r1, #1]	@ zero_extendqisi2
 887:Drivers/STM32F7xx_HAL_Driver/Src/stm32f7xx_ll_usb.c ****   {
 1805              		.loc 1 887 6 view .LVU558
 1806 0006 012C     		cmp	r4, #1
 1807 0008 25D0     		beq	.L143
 942:Drivers/STM32F7xx_HAL_Driver/Src/stm32f7xx_ll_usb.c ****     USBx_OUTEP(epnum)->DOEPTSIZ &= ~(USB_OTG_DOEPTSIZ_PKTCNT);
 1808              		.loc 1 942 5 is_stmt 1 view .LVU559
 942:Drivers/STM32F7xx_HAL_Driver/Src/stm32f7xx_ll_usb.c ****     USBx_OUTEP(epnum)->DOEPTSIZ &= ~(USB_OTG_DOEPTSIZ_PKTCNT);
 1809              		.loc 1 942 33 is_stmt 0 view .LVU560
 1810 000a 00EB4310 		add	r0, r0, r3, lsl #5
 1811              	.LVL160:
 942:Drivers/STM32F7xx_HAL_Driver/Src/stm32f7xx_ll_usb.c ****     USBx_OUTEP(epnum)->DOEPTSIZ &= ~(USB_OTG_DOEPTSIZ_PKTCNT);
 1812              		.loc 1 942 33 view .LVU561
 1813 000e 00F53063 		add	r3, r0, #2816
 1814              	.LVL161:
 942:Drivers/STM32F7xx_HAL_Driver/Src/stm32f7xx_ll_usb.c ****     USBx_OUTEP(epnum)->DOEPTSIZ &= ~(USB_OTG_DOEPTSIZ_PKTCNT);
 1815              		.loc 1 942 33 view .LVU562
 1816 0012 1D69     		ldr	r5, [r3, #16]
 1817 0014 3F4C     		ldr	r4, .L146
 1818 0016 2C40     		ands	r4, r4, r5
 1819 0018 1C61     		str	r4, [r3, #16]
 1820              	.LVL162:
 943:Drivers/STM32F7xx_HAL_Driver/Src/stm32f7xx_ll_usb.c **** 
 1821              		.loc 1 943 5 is_stmt 1 view .LVU563
 943:Drivers/STM32F7xx_HAL_Driver/Src/stm32f7xx_ll_usb.c **** 
 1822              		.loc 1 943 33 is_stmt 0 view .LVU564
 1823 001a 1D69     		ldr	r5, [r3, #16]
 1824 001c 3E4C     		ldr	r4, .L146+4
 1825 001e 2C40     		ands	r4, r4, r5
 1826 0020 1C61     		str	r4, [r3, #16]
 945:Drivers/STM32F7xx_HAL_Driver/Src/stm32f7xx_ll_usb.c ****     {
ARM GAS  /tmp/cc8xco1Q.s 			page 66


 1827              		.loc 1 945 5 is_stmt 1 view .LVU565
 945:Drivers/STM32F7xx_HAL_Driver/Src/stm32f7xx_ll_usb.c ****     {
 1828              		.loc 1 945 11 is_stmt 0 view .LVU566
 1829 0022 4C69     		ldr	r4, [r1, #20]
 945:Drivers/STM32F7xx_HAL_Driver/Src/stm32f7xx_ll_usb.c ****     {
 1830              		.loc 1 945 8 view .LVU567
 1831 0024 0CB1     		cbz	r4, .L140
 947:Drivers/STM32F7xx_HAL_Driver/Src/stm32f7xx_ll_usb.c ****     }
 1832              		.loc 1 947 7 is_stmt 1 view .LVU568
 947:Drivers/STM32F7xx_HAL_Driver/Src/stm32f7xx_ll_usb.c ****     }
 1833              		.loc 1 947 24 is_stmt 0 view .LVU569
 1834 0026 8C68     		ldr	r4, [r1, #8]
 947:Drivers/STM32F7xx_HAL_Driver/Src/stm32f7xx_ll_usb.c ****     }
 1835              		.loc 1 947 20 view .LVU570
 1836 0028 4C61     		str	r4, [r1, #20]
 1837              	.L140:
 950:Drivers/STM32F7xx_HAL_Driver/Src/stm32f7xx_ll_usb.c ****     USBx_OUTEP(epnum)->DOEPTSIZ |= (USB_OTG_DOEPTSIZ_XFRSIZ & (ep->maxpacket));
 1838              		.loc 1 950 5 is_stmt 1 view .LVU571
 950:Drivers/STM32F7xx_HAL_Driver/Src/stm32f7xx_ll_usb.c ****     USBx_OUTEP(epnum)->DOEPTSIZ |= (USB_OTG_DOEPTSIZ_XFRSIZ & (ep->maxpacket));
 1839              		.loc 1 950 33 is_stmt 0 view .LVU572
 1840 002a 1C69     		ldr	r4, [r3, #16]
 1841 002c 44F40024 		orr	r4, r4, #524288
 1842 0030 1C61     		str	r4, [r3, #16]
 951:Drivers/STM32F7xx_HAL_Driver/Src/stm32f7xx_ll_usb.c **** 
 1843              		.loc 1 951 5 is_stmt 1 view .LVU573
 951:Drivers/STM32F7xx_HAL_Driver/Src/stm32f7xx_ll_usb.c **** 
 1844              		.loc 1 951 33 is_stmt 0 view .LVU574
 1845 0032 1C69     		ldr	r4, [r3, #16]
 951:Drivers/STM32F7xx_HAL_Driver/Src/stm32f7xx_ll_usb.c **** 
 1846              		.loc 1 951 61 view .LVU575
 1847 0034 8D68     		ldr	r5, [r1, #8]
 1848 0036 C5F3120C 		ubfx	ip, r5, #0, #19
 951:Drivers/STM32F7xx_HAL_Driver/Src/stm32f7xx_ll_usb.c **** 
 1849              		.loc 1 951 33 view .LVU576
 1850 003a 44EA0C04 		orr	r4, r4, ip
 1851 003e 1C61     		str	r4, [r3, #16]
 953:Drivers/STM32F7xx_HAL_Driver/Src/stm32f7xx_ll_usb.c ****     {
 1852              		.loc 1 953 5 is_stmt 1 view .LVU577
 953:Drivers/STM32F7xx_HAL_Driver/Src/stm32f7xx_ll_usb.c ****     {
 1853              		.loc 1 953 8 is_stmt 0 view .LVU578
 1854 0040 012A     		cmp	r2, #1
 1855 0042 62D0     		beq	.L144
 1856              	.LVL163:
 1857              	.L141:
 962:Drivers/STM32F7xx_HAL_Driver/Src/stm32f7xx_ll_usb.c ****   }
 1858              		.loc 1 962 5 is_stmt 1 view .LVU579
 962:Drivers/STM32F7xx_HAL_Driver/Src/stm32f7xx_ll_usb.c ****   }
 1859              		.loc 1 962 32 is_stmt 0 view .LVU580
 1860 0044 D0F8003B 		ldr	r3, [r0, #2816]
 1861 0048 43F00443 		orr	r3, r3, #-2080374784
 1862 004c C0F8003B 		str	r3, [r0, #2816]
 1863              	.LVL164:
 1864              	.L139:
 965:Drivers/STM32F7xx_HAL_Driver/Src/stm32f7xx_ll_usb.c **** }
 1865              		.loc 1 965 3 is_stmt 1 view .LVU581
 966:Drivers/STM32F7xx_HAL_Driver/Src/stm32f7xx_ll_usb.c **** 
 1866              		.loc 1 966 1 is_stmt 0 view .LVU582
ARM GAS  /tmp/cc8xco1Q.s 			page 67


 1867 0050 0020     		movs	r0, #0
 1868 0052 70BC     		pop	{r4, r5, r6}
 1869              	.LCFI19:
 1870              		.cfi_remember_state
 1871              		.cfi_restore 6
 1872              		.cfi_restore 5
 1873              		.cfi_restore 4
 1874              		.cfi_def_cfa_offset 0
 1875 0054 7047     		bx	lr
 1876              	.LVL165:
 1877              	.L143:
 1878              	.LCFI20:
 1879              		.cfi_restore_state
 890:Drivers/STM32F7xx_HAL_Driver/Src/stm32f7xx_ll_usb.c ****     {
 1880              		.loc 1 890 5 is_stmt 1 view .LVU583
 890:Drivers/STM32F7xx_HAL_Driver/Src/stm32f7xx_ll_usb.c ****     {
 1881              		.loc 1 890 11 is_stmt 0 view .LVU584
 1882 0056 4C69     		ldr	r4, [r1, #20]
 890:Drivers/STM32F7xx_HAL_Driver/Src/stm32f7xx_ll_usb.c ****     {
 1883              		.loc 1 890 8 view .LVU585
 1884 0058 5CBB     		cbnz	r4, .L134
 892:Drivers/STM32F7xx_HAL_Driver/Src/stm32f7xx_ll_usb.c ****       USBx_INEP(epnum)->DIEPTSIZ |= (USB_OTG_DIEPTSIZ_PKTCNT & (1U << 19));
 1885              		.loc 1 892 7 is_stmt 1 view .LVU586
 892:Drivers/STM32F7xx_HAL_Driver/Src/stm32f7xx_ll_usb.c ****       USBx_INEP(epnum)->DIEPTSIZ |= (USB_OTG_DIEPTSIZ_PKTCNT & (1U << 19));
 1886              		.loc 1 892 34 is_stmt 0 view .LVU587
 1887 005a 00EB4314 		add	r4, r0, r3, lsl #5
 1888 005e D4F81069 		ldr	r6, [r4, #2320]
 1889 0062 2D4D     		ldr	r5, .L146+4
 1890 0064 3540     		ands	r5, r5, r6
 1891 0066 C4F81059 		str	r5, [r4, #2320]
 893:Drivers/STM32F7xx_HAL_Driver/Src/stm32f7xx_ll_usb.c ****       USBx_INEP(epnum)->DIEPTSIZ &= ~(USB_OTG_DIEPTSIZ_XFRSIZ);
 1892              		.loc 1 893 7 is_stmt 1 view .LVU588
 893:Drivers/STM32F7xx_HAL_Driver/Src/stm32f7xx_ll_usb.c ****       USBx_INEP(epnum)->DIEPTSIZ &= ~(USB_OTG_DIEPTSIZ_XFRSIZ);
 1893              		.loc 1 893 34 is_stmt 0 view .LVU589
 1894 006a D4F81059 		ldr	r5, [r4, #2320]
 1895 006e 45F40025 		orr	r5, r5, #524288
 1896 0072 C4F81059 		str	r5, [r4, #2320]
 894:Drivers/STM32F7xx_HAL_Driver/Src/stm32f7xx_ll_usb.c ****     }
 1897              		.loc 1 894 7 is_stmt 1 view .LVU590
 894:Drivers/STM32F7xx_HAL_Driver/Src/stm32f7xx_ll_usb.c ****     }
 1898              		.loc 1 894 34 is_stmt 0 view .LVU591
 1899 0076 D4F81069 		ldr	r6, [r4, #2320]
 1900 007a 264D     		ldr	r5, .L146
 1901 007c 3540     		ands	r5, r5, r6
 1902 007e C4F81059 		str	r5, [r4, #2320]
 1903              	.L135:
 914:Drivers/STM32F7xx_HAL_Driver/Src/stm32f7xx_ll_usb.c ****     {
 1904              		.loc 1 914 5 is_stmt 1 view .LVU592
 914:Drivers/STM32F7xx_HAL_Driver/Src/stm32f7xx_ll_usb.c ****     {
 1905              		.loc 1 914 8 is_stmt 0 view .LVU593
 1906 0082 012A     		cmp	r2, #1
 1907 0084 32D0     		beq	.L145
 927:Drivers/STM32F7xx_HAL_Driver/Src/stm32f7xx_ll_usb.c **** 
 1908              		.loc 1 927 7 is_stmt 1 view .LVU594
 927:Drivers/STM32F7xx_HAL_Driver/Src/stm32f7xx_ll_usb.c **** 
 1909              		.loc 1 927 33 is_stmt 0 view .LVU595
 1910 0086 00EB4313 		add	r3, r0, r3, lsl #5
ARM GAS  /tmp/cc8xco1Q.s 			page 68


 1911              	.LVL166:
 927:Drivers/STM32F7xx_HAL_Driver/Src/stm32f7xx_ll_usb.c **** 
 1912              		.loc 1 927 33 view .LVU596
 1913 008a D3F80029 		ldr	r2, [r3, #2304]
 1914              	.LVL167:
 927:Drivers/STM32F7xx_HAL_Driver/Src/stm32f7xx_ll_usb.c **** 
 1915              		.loc 1 927 33 view .LVU597
 1916 008e 42F00442 		orr	r2, r2, #-2080374784
 1917 0092 C3F80029 		str	r2, [r3, #2304]
 930:Drivers/STM32F7xx_HAL_Driver/Src/stm32f7xx_ll_usb.c ****       {
 1918              		.loc 1 930 7 is_stmt 1 view .LVU598
 930:Drivers/STM32F7xx_HAL_Driver/Src/stm32f7xx_ll_usb.c ****       {
 1919              		.loc 1 930 13 is_stmt 0 view .LVU599
 1920 0096 4B69     		ldr	r3, [r1, #20]
 930:Drivers/STM32F7xx_HAL_Driver/Src/stm32f7xx_ll_usb.c ****       {
 1921              		.loc 1 930 10 view .LVU600
 1922 0098 002B     		cmp	r3, #0
 1923 009a D9D0     		beq	.L139
 932:Drivers/STM32F7xx_HAL_Driver/Src/stm32f7xx_ll_usb.c ****       }
 1924              		.loc 1 932 9 is_stmt 1 view .LVU601
 932:Drivers/STM32F7xx_HAL_Driver/Src/stm32f7xx_ll_usb.c ****       }
 1925              		.loc 1 932 33 is_stmt 0 view .LVU602
 1926 009c D0F83438 		ldr	r3, [r0, #2100]
 932:Drivers/STM32F7xx_HAL_Driver/Src/stm32f7xx_ll_usb.c ****       }
 1927              		.loc 1 932 46 view .LVU603
 1928 00a0 0A78     		ldrb	r2, [r1]	@ zero_extendqisi2
 932:Drivers/STM32F7xx_HAL_Driver/Src/stm32f7xx_ll_usb.c ****       }
 1929              		.loc 1 932 52 view .LVU604
 1930 00a2 02F00F01 		and	r1, r2, #15
 1931              	.LVL168:
 932:Drivers/STM32F7xx_HAL_Driver/Src/stm32f7xx_ll_usb.c ****       }
 1932              		.loc 1 932 40 view .LVU605
 1933 00a6 0122     		movs	r2, #1
 1934 00a8 8A40     		lsls	r2, r2, r1
 932:Drivers/STM32F7xx_HAL_Driver/Src/stm32f7xx_ll_usb.c ****       }
 1935              		.loc 1 932 33 view .LVU606
 1936 00aa 1343     		orrs	r3, r3, r2
 1937 00ac C0F83438 		str	r3, [r0, #2100]
 1938 00b0 CEE7     		b	.L139
 1939              	.LVL169:
 1940              	.L134:
 903:Drivers/STM32F7xx_HAL_Driver/Src/stm32f7xx_ll_usb.c ****       USBx_INEP(epnum)->DIEPTSIZ &= ~(USB_OTG_DIEPTSIZ_PKTCNT);
 1941              		.loc 1 903 7 is_stmt 1 view .LVU607
 903:Drivers/STM32F7xx_HAL_Driver/Src/stm32f7xx_ll_usb.c ****       USBx_INEP(epnum)->DIEPTSIZ &= ~(USB_OTG_DIEPTSIZ_PKTCNT);
 1942              		.loc 1 903 34 is_stmt 0 view .LVU608
 1943 00b2 00EB4314 		add	r4, r0, r3, lsl #5
 1944 00b6 04F51064 		add	r4, r4, #2304
 1945 00ba 2669     		ldr	r6, [r4, #16]
 1946 00bc 154D     		ldr	r5, .L146
 1947 00be 3540     		ands	r5, r5, r6
 1948 00c0 2561     		str	r5, [r4, #16]
 904:Drivers/STM32F7xx_HAL_Driver/Src/stm32f7xx_ll_usb.c **** 
 1949              		.loc 1 904 7 is_stmt 1 view .LVU609
 904:Drivers/STM32F7xx_HAL_Driver/Src/stm32f7xx_ll_usb.c **** 
 1950              		.loc 1 904 34 is_stmt 0 view .LVU610
 1951 00c2 2669     		ldr	r6, [r4, #16]
 1952 00c4 144D     		ldr	r5, .L146+4
ARM GAS  /tmp/cc8xco1Q.s 			page 69


 1953 00c6 3540     		ands	r5, r5, r6
 1954 00c8 2561     		str	r5, [r4, #16]
 906:Drivers/STM32F7xx_HAL_Driver/Src/stm32f7xx_ll_usb.c ****       {
 1955              		.loc 1 906 7 is_stmt 1 view .LVU611
 906:Drivers/STM32F7xx_HAL_Driver/Src/stm32f7xx_ll_usb.c ****       {
 1956              		.loc 1 906 28 is_stmt 0 view .LVU612
 1957 00ca 8D68     		ldr	r5, [r1, #8]
 906:Drivers/STM32F7xx_HAL_Driver/Src/stm32f7xx_ll_usb.c ****       {
 1958              		.loc 1 906 10 view .LVU613
 1959 00cc 4E69     		ldr	r6, [r1, #20]
 1960 00ce AE42     		cmp	r6, r5
 1961 00d0 00D9     		bls	.L136
 908:Drivers/STM32F7xx_HAL_Driver/Src/stm32f7xx_ll_usb.c ****       }
 1962              		.loc 1 908 9 is_stmt 1 view .LVU614
 908:Drivers/STM32F7xx_HAL_Driver/Src/stm32f7xx_ll_usb.c ****       }
 1963              		.loc 1 908 22 is_stmt 0 view .LVU615
 1964 00d2 4D61     		str	r5, [r1, #20]
 1965              	.L136:
 910:Drivers/STM32F7xx_HAL_Driver/Src/stm32f7xx_ll_usb.c ****       USBx_INEP(epnum)->DIEPTSIZ |= (USB_OTG_DIEPTSIZ_XFRSIZ & ep->xfer_len);
 1966              		.loc 1 910 7 is_stmt 1 view .LVU616
 910:Drivers/STM32F7xx_HAL_Driver/Src/stm32f7xx_ll_usb.c ****       USBx_INEP(epnum)->DIEPTSIZ |= (USB_OTG_DIEPTSIZ_XFRSIZ & ep->xfer_len);
 1967              		.loc 1 910 34 is_stmt 0 view .LVU617
 1968 00d4 2569     		ldr	r5, [r4, #16]
 1969 00d6 45F40025 		orr	r5, r5, #524288
 1970 00da 2561     		str	r5, [r4, #16]
 911:Drivers/STM32F7xx_HAL_Driver/Src/stm32f7xx_ll_usb.c ****     }
 1971              		.loc 1 911 7 is_stmt 1 view .LVU618
 911:Drivers/STM32F7xx_HAL_Driver/Src/stm32f7xx_ll_usb.c ****     }
 1972              		.loc 1 911 34 is_stmt 0 view .LVU619
 1973 00dc 2569     		ldr	r5, [r4, #16]
 911:Drivers/STM32F7xx_HAL_Driver/Src/stm32f7xx_ll_usb.c ****     }
 1974              		.loc 1 911 62 view .LVU620
 1975 00de 4E69     		ldr	r6, [r1, #20]
 1976 00e0 C6F3120C 		ubfx	ip, r6, #0, #19
 911:Drivers/STM32F7xx_HAL_Driver/Src/stm32f7xx_ll_usb.c ****     }
 1977              		.loc 1 911 34 view .LVU621
 1978 00e4 45EA0C05 		orr	r5, r5, ip
 1979 00e8 2561     		str	r5, [r4, #16]
 1980 00ea CAE7     		b	.L135
 1981              	.L145:
 916:Drivers/STM32F7xx_HAL_Driver/Src/stm32f7xx_ll_usb.c ****       {
 1982              		.loc 1 916 7 is_stmt 1 view .LVU622
 916:Drivers/STM32F7xx_HAL_Driver/Src/stm32f7xx_ll_usb.c ****       {
 1983              		.loc 1 916 23 is_stmt 0 view .LVU623
 1984 00ec 0A69     		ldr	r2, [r1, #16]
 1985              	.LVL170:
 916:Drivers/STM32F7xx_HAL_Driver/Src/stm32f7xx_ll_usb.c ****       {
 1986              		.loc 1 916 10 view .LVU624
 1987 00ee 1AB1     		cbz	r2, .L138
 918:Drivers/STM32F7xx_HAL_Driver/Src/stm32f7xx_ll_usb.c ****       }
 1988              		.loc 1 918 9 is_stmt 1 view .LVU625
 1989 00f0 00EB4311 		add	r1, r0, r3, lsl #5
 1990              	.LVL171:
 918:Drivers/STM32F7xx_HAL_Driver/Src/stm32f7xx_ll_usb.c ****       }
 1991              		.loc 1 918 35 is_stmt 0 view .LVU626
 1992 00f4 C1F81429 		str	r2, [r1, #2324]
 1993              	.L138:
ARM GAS  /tmp/cc8xco1Q.s 			page 70


 922:Drivers/STM32F7xx_HAL_Driver/Src/stm32f7xx_ll_usb.c ****     }
 1994              		.loc 1 922 7 is_stmt 1 view .LVU627
 922:Drivers/STM32F7xx_HAL_Driver/Src/stm32f7xx_ll_usb.c ****     }
 1995              		.loc 1 922 33 is_stmt 0 view .LVU628
 1996 00f8 00EB4310 		add	r0, r0, r3, lsl #5
 1997              	.LVL172:
 922:Drivers/STM32F7xx_HAL_Driver/Src/stm32f7xx_ll_usb.c ****     }
 1998              		.loc 1 922 33 view .LVU629
 1999 00fc D0F80029 		ldr	r2, [r0, #2304]
 2000 0100 42F00442 		orr	r2, r2, #-2080374784
 2001 0104 C0F80029 		str	r2, [r0, #2304]
 2002 0108 A2E7     		b	.L139
 2003              	.LVL173:
 2004              	.L144:
 955:Drivers/STM32F7xx_HAL_Driver/Src/stm32f7xx_ll_usb.c ****       {
 2005              		.loc 1 955 7 is_stmt 1 view .LVU630
 955:Drivers/STM32F7xx_HAL_Driver/Src/stm32f7xx_ll_usb.c ****       {
 2006              		.loc 1 955 23 is_stmt 0 view .LVU631
 2007 010a CA68     		ldr	r2, [r1, #12]
 2008              	.LVL174:
 955:Drivers/STM32F7xx_HAL_Driver/Src/stm32f7xx_ll_usb.c ****       {
 2009              		.loc 1 955 10 view .LVU632
 2010 010c 002A     		cmp	r2, #0
 2011 010e 99D0     		beq	.L141
 957:Drivers/STM32F7xx_HAL_Driver/Src/stm32f7xx_ll_usb.c ****       }
 2012              		.loc 1 957 9 is_stmt 1 view .LVU633
 957:Drivers/STM32F7xx_HAL_Driver/Src/stm32f7xx_ll_usb.c ****       }
 2013              		.loc 1 957 36 is_stmt 0 view .LVU634
 2014 0110 5A61     		str	r2, [r3, #20]
 2015 0112 97E7     		b	.L141
 2016              	.L147:
 2017              		.align	2
 2018              	.L146:
 2019 0114 0000F8FF 		.word	-524288
 2020 0118 FFFF07E0 		.word	-536346625
 2021              		.cfi_endproc
 2022              	.LFE156:
 2024              		.section	.text.USB_WritePacket,"ax",%progbits
 2025              		.align	1
 2026              		.global	USB_WritePacket
 2027              		.syntax unified
 2028              		.thumb
 2029              		.thumb_func
 2030              		.fpu fpv5-d16
 2032              	USB_WritePacket:
 2033              	.LVL175:
 2034              	.LFB157:
 982:Drivers/STM32F7xx_HAL_Driver/Src/stm32f7xx_ll_usb.c ****   uint32_t USBx_BASE = (uint32_t)USBx;
 2035              		.loc 1 982 1 is_stmt 1 view -0
 2036              		.cfi_startproc
 2037              		@ args = 4, pretend = 0, frame = 0
 2038              		@ frame_needed = 0, uses_anonymous_args = 0
 982:Drivers/STM32F7xx_HAL_Driver/Src/stm32f7xx_ll_usb.c ****   uint32_t USBx_BASE = (uint32_t)USBx;
 2039              		.loc 1 982 1 is_stmt 0 view .LVU636
 2040 0000 10B5     		push	{r4, lr}
 2041              	.LCFI21:
 2042              		.cfi_def_cfa_offset 8
ARM GAS  /tmp/cc8xco1Q.s 			page 71


 2043              		.cfi_offset 4, -8
 2044              		.cfi_offset 14, -4
 2045 0002 9DF80840 		ldrb	r4, [sp, #8]	@ zero_extendqisi2
 983:Drivers/STM32F7xx_HAL_Driver/Src/stm32f7xx_ll_usb.c ****   uint32_t *pSrc = (uint32_t *)src;
 2046              		.loc 1 983 3 is_stmt 1 view .LVU637
 2047              	.LVL176:
 984:Drivers/STM32F7xx_HAL_Driver/Src/stm32f7xx_ll_usb.c ****   uint32_t count32b, i;
 2048              		.loc 1 984 3 view .LVU638
 985:Drivers/STM32F7xx_HAL_Driver/Src/stm32f7xx_ll_usb.c **** 
 2049              		.loc 1 985 3 view .LVU639
 987:Drivers/STM32F7xx_HAL_Driver/Src/stm32f7xx_ll_usb.c ****   {
 2050              		.loc 1 987 3 view .LVU640
 987:Drivers/STM32F7xx_HAL_Driver/Src/stm32f7xx_ll_usb.c ****   {
 2051              		.loc 1 987 6 is_stmt 0 view .LVU641
 2052 0006 84B9     		cbnz	r4, .L149
 989:Drivers/STM32F7xx_HAL_Driver/Src/stm32f7xx_ll_usb.c ****     for (i = 0U; i < count32b; i++)
 2053              		.loc 1 989 5 is_stmt 1 view .LVU642
 989:Drivers/STM32F7xx_HAL_Driver/Src/stm32f7xx_ll_usb.c ****     for (i = 0U; i < count32b; i++)
 2054              		.loc 1 989 31 is_stmt 0 view .LVU643
 2055 0008 0333     		adds	r3, r3, #3
 2056              	.LVL177:
 989:Drivers/STM32F7xx_HAL_Driver/Src/stm32f7xx_ll_usb.c ****     for (i = 0U; i < count32b; i++)
 2057              		.loc 1 989 14 view .LVU644
 2058 000a 4FEA930E 		lsr	lr, r3, #2
 2059              	.LVL178:
 990:Drivers/STM32F7xx_HAL_Driver/Src/stm32f7xx_ll_usb.c ****     {
 2060              		.loc 1 990 5 is_stmt 1 view .LVU645
 990:Drivers/STM32F7xx_HAL_Driver/Src/stm32f7xx_ll_usb.c ****     {
 2061              		.loc 1 990 12 is_stmt 0 view .LVU646
 2062 000e 4FF0000C 		mov	ip, #0
 990:Drivers/STM32F7xx_HAL_Driver/Src/stm32f7xx_ll_usb.c ****     {
 2063              		.loc 1 990 5 view .LVU647
 2064 0012 08E0     		b	.L150
 2065              	.LVL179:
 2066              	.L151:
 992:Drivers/STM32F7xx_HAL_Driver/Src/stm32f7xx_ll_usb.c ****       pSrc++;
 2067              		.loc 1 992 7 is_stmt 1 discriminator 3 view .LVU648
 2068 0014 00EB0233 		add	r3, r0, r2, lsl #12
 2069 0018 03F58053 		add	r3, r3, #4096
 992:Drivers/STM32F7xx_HAL_Driver/Src/stm32f7xx_ll_usb.c ****       pSrc++;
 2070              		.loc 1 992 41 is_stmt 0 discriminator 3 view .LVU649
 2071 001c 51F8044B 		ldr	r4, [r1], #4	@ unaligned
 2072              	.LVL180:
 992:Drivers/STM32F7xx_HAL_Driver/Src/stm32f7xx_ll_usb.c ****       pSrc++;
 2073              		.loc 1 992 39 discriminator 3 view .LVU650
 2074 0020 1C60     		str	r4, [r3]
 993:Drivers/STM32F7xx_HAL_Driver/Src/stm32f7xx_ll_usb.c ****     }
 2075              		.loc 1 993 7 is_stmt 1 discriminator 3 view .LVU651
 2076              	.LVL181:
 990:Drivers/STM32F7xx_HAL_Driver/Src/stm32f7xx_ll_usb.c ****     {
 2077              		.loc 1 990 32 discriminator 3 view .LVU652
 990:Drivers/STM32F7xx_HAL_Driver/Src/stm32f7xx_ll_usb.c ****     {
 2078              		.loc 1 990 33 is_stmt 0 discriminator 3 view .LVU653
 2079 0022 0CF1010C 		add	ip, ip, #1
 2080              	.LVL182:
 2081              	.L150:
 990:Drivers/STM32F7xx_HAL_Driver/Src/stm32f7xx_ll_usb.c ****     {
ARM GAS  /tmp/cc8xco1Q.s 			page 72


 2082              		.loc 1 990 18 is_stmt 1 discriminator 1 view .LVU654
 990:Drivers/STM32F7xx_HAL_Driver/Src/stm32f7xx_ll_usb.c ****     {
 2083              		.loc 1 990 5 is_stmt 0 discriminator 1 view .LVU655
 2084 0026 F445     		cmp	ip, lr
 2085 0028 F4D3     		bcc	.L151
 2086              	.LVL183:
 2087              	.L149:
 997:Drivers/STM32F7xx_HAL_Driver/Src/stm32f7xx_ll_usb.c **** }
 2088              		.loc 1 997 3 is_stmt 1 view .LVU656
 998:Drivers/STM32F7xx_HAL_Driver/Src/stm32f7xx_ll_usb.c **** 
 2089              		.loc 1 998 1 is_stmt 0 view .LVU657
 2090 002a 0020     		movs	r0, #0
 2091              	.LVL184:
 998:Drivers/STM32F7xx_HAL_Driver/Src/stm32f7xx_ll_usb.c **** 
 2092              		.loc 1 998 1 view .LVU658
 2093 002c 10BD     		pop	{r4, pc}
 998:Drivers/STM32F7xx_HAL_Driver/Src/stm32f7xx_ll_usb.c **** 
 2094              		.loc 1 998 1 view .LVU659
 2095              		.cfi_endproc
 2096              	.LFE157:
 2098              		.section	.text.USB_EPStartXfer,"ax",%progbits
 2099              		.align	1
 2100              		.global	USB_EPStartXfer
 2101              		.syntax unified
 2102              		.thumb
 2103              		.thumb_func
 2104              		.fpu fpv5-d16
 2106              	USB_EPStartXfer:
 2107              	.LVL185:
 2108              	.LFB155:
 740:Drivers/STM32F7xx_HAL_Driver/Src/stm32f7xx_ll_usb.c ****   uint32_t USBx_BASE = (uint32_t)USBx;
 2109              		.loc 1 740 1 is_stmt 1 view -0
 2110              		.cfi_startproc
 2111              		@ args = 0, pretend = 0, frame = 0
 2112              		@ frame_needed = 0, uses_anonymous_args = 0
 740:Drivers/STM32F7xx_HAL_Driver/Src/stm32f7xx_ll_usb.c ****   uint32_t USBx_BASE = (uint32_t)USBx;
 2113              		.loc 1 740 1 is_stmt 0 view .LVU661
 2114 0000 F0B5     		push	{r4, r5, r6, r7, lr}
 2115              	.LCFI22:
 2116              		.cfi_def_cfa_offset 20
 2117              		.cfi_offset 4, -20
 2118              		.cfi_offset 5, -16
 2119              		.cfi_offset 6, -12
 2120              		.cfi_offset 7, -8
 2121              		.cfi_offset 14, -4
 2122 0002 83B0     		sub	sp, sp, #12
 2123              	.LCFI23:
 2124              		.cfi_def_cfa_offset 32
 741:Drivers/STM32F7xx_HAL_Driver/Src/stm32f7xx_ll_usb.c ****   uint32_t epnum = (uint32_t)ep->num;
 2125              		.loc 1 741 3 is_stmt 1 view .LVU662
 2126              	.LVL186:
 742:Drivers/STM32F7xx_HAL_Driver/Src/stm32f7xx_ll_usb.c ****   uint16_t pktcnt;
 2127              		.loc 1 742 3 view .LVU663
 742:Drivers/STM32F7xx_HAL_Driver/Src/stm32f7xx_ll_usb.c ****   uint16_t pktcnt;
 2128              		.loc 1 742 32 is_stmt 0 view .LVU664
 2129 0004 0B78     		ldrb	r3, [r1]	@ zero_extendqisi2
 2130              	.LVL187:
ARM GAS  /tmp/cc8xco1Q.s 			page 73


 743:Drivers/STM32F7xx_HAL_Driver/Src/stm32f7xx_ll_usb.c **** 
 2131              		.loc 1 743 3 is_stmt 1 view .LVU665
 746:Drivers/STM32F7xx_HAL_Driver/Src/stm32f7xx_ll_usb.c ****   {
 2132              		.loc 1 746 3 view .LVU666
 746:Drivers/STM32F7xx_HAL_Driver/Src/stm32f7xx_ll_usb.c ****   {
 2133              		.loc 1 746 9 is_stmt 0 view .LVU667
 2134 0006 4C78     		ldrb	r4, [r1, #1]	@ zero_extendqisi2
 746:Drivers/STM32F7xx_HAL_Driver/Src/stm32f7xx_ll_usb.c ****   {
 2135              		.loc 1 746 6 view .LVU668
 2136 0008 012C     		cmp	r4, #1
 2137 000a 31D0     		beq	.L171
 830:Drivers/STM32F7xx_HAL_Driver/Src/stm32f7xx_ll_usb.c ****     USBx_OUTEP(epnum)->DOEPTSIZ &= ~(USB_OTG_DOEPTSIZ_PKTCNT);
 2138              		.loc 1 830 5 is_stmt 1 view .LVU669
 830:Drivers/STM32F7xx_HAL_Driver/Src/stm32f7xx_ll_usb.c ****     USBx_OUTEP(epnum)->DOEPTSIZ &= ~(USB_OTG_DOEPTSIZ_PKTCNT);
 2139              		.loc 1 830 33 is_stmt 0 view .LVU670
 2140 000c 00EB4313 		add	r3, r0, r3, lsl #5
 2141              	.LVL188:
 830:Drivers/STM32F7xx_HAL_Driver/Src/stm32f7xx_ll_usb.c ****     USBx_OUTEP(epnum)->DOEPTSIZ &= ~(USB_OTG_DOEPTSIZ_PKTCNT);
 2142              		.loc 1 830 33 view .LVU671
 2143 0010 03F5306C 		add	ip, r3, #2816
 2144 0014 DCF81050 		ldr	r5, [ip, #16]
 2145 0018 834C     		ldr	r4, .L176
 2146 001a 2C40     		ands	r4, r4, r5
 2147 001c CCF81040 		str	r4, [ip, #16]
 2148              	.LVL189:
 831:Drivers/STM32F7xx_HAL_Driver/Src/stm32f7xx_ll_usb.c **** 
 2149              		.loc 1 831 5 is_stmt 1 view .LVU672
 831:Drivers/STM32F7xx_HAL_Driver/Src/stm32f7xx_ll_usb.c **** 
 2150              		.loc 1 831 33 is_stmt 0 view .LVU673
 2151 0020 DCF81050 		ldr	r5, [ip, #16]
 2152 0024 814C     		ldr	r4, .L176+4
 2153 0026 2C40     		ands	r4, r4, r5
 2154 0028 CCF81040 		str	r4, [ip, #16]
 833:Drivers/STM32F7xx_HAL_Driver/Src/stm32f7xx_ll_usb.c ****     {
 2155              		.loc 1 833 5 is_stmt 1 view .LVU674
 833:Drivers/STM32F7xx_HAL_Driver/Src/stm32f7xx_ll_usb.c ****     {
 2156              		.loc 1 833 11 is_stmt 0 view .LVU675
 2157 002c 4C69     		ldr	r4, [r1, #20]
 833:Drivers/STM32F7xx_HAL_Driver/Src/stm32f7xx_ll_usb.c ****     {
 2158              		.loc 1 833 8 view .LVU676
 2159 002e 002C     		cmp	r4, #0
 2160 0030 40F0C680 		bne	.L165
 835:Drivers/STM32F7xx_HAL_Driver/Src/stm32f7xx_ll_usb.c ****       USBx_OUTEP(epnum)->DOEPTSIZ |= (USB_OTG_DOEPTSIZ_PKTCNT & (1U << 19));
 2161              		.loc 1 835 7 is_stmt 1 view .LVU677
 835:Drivers/STM32F7xx_HAL_Driver/Src/stm32f7xx_ll_usb.c ****       USBx_OUTEP(epnum)->DOEPTSIZ |= (USB_OTG_DOEPTSIZ_PKTCNT & (1U << 19));
 2162              		.loc 1 835 35 is_stmt 0 view .LVU678
 2163 0034 DCF81040 		ldr	r4, [ip, #16]
 835:Drivers/STM32F7xx_HAL_Driver/Src/stm32f7xx_ll_usb.c ****       USBx_OUTEP(epnum)->DOEPTSIZ |= (USB_OTG_DOEPTSIZ_PKTCNT & (1U << 19));
 2164              		.loc 1 835 67 view .LVU679
 2165 0038 8D68     		ldr	r5, [r1, #8]
 835:Drivers/STM32F7xx_HAL_Driver/Src/stm32f7xx_ll_usb.c ****       USBx_OUTEP(epnum)->DOEPTSIZ |= (USB_OTG_DOEPTSIZ_PKTCNT & (1U << 19));
 2166              		.loc 1 835 63 view .LVU680
 2167 003a C5F31205 		ubfx	r5, r5, #0, #19
 835:Drivers/STM32F7xx_HAL_Driver/Src/stm32f7xx_ll_usb.c ****       USBx_OUTEP(epnum)->DOEPTSIZ |= (USB_OTG_DOEPTSIZ_PKTCNT & (1U << 19));
 2168              		.loc 1 835 35 view .LVU681
 2169 003e 2C43     		orrs	r4, r4, r5
 2170 0040 CCF81040 		str	r4, [ip, #16]
ARM GAS  /tmp/cc8xco1Q.s 			page 74


 836:Drivers/STM32F7xx_HAL_Driver/Src/stm32f7xx_ll_usb.c ****     }
 2171              		.loc 1 836 7 is_stmt 1 view .LVU682
 836:Drivers/STM32F7xx_HAL_Driver/Src/stm32f7xx_ll_usb.c ****     }
 2172              		.loc 1 836 35 is_stmt 0 view .LVU683
 2173 0044 DCF81040 		ldr	r4, [ip, #16]
 2174 0048 44F40024 		orr	r4, r4, #524288
 2175 004c CCF81040 		str	r4, [ip, #16]
 2176              	.L166:
 845:Drivers/STM32F7xx_HAL_Driver/Src/stm32f7xx_ll_usb.c ****     {
 2177              		.loc 1 845 5 is_stmt 1 view .LVU684
 845:Drivers/STM32F7xx_HAL_Driver/Src/stm32f7xx_ll_usb.c ****     {
 2178              		.loc 1 845 8 is_stmt 0 view .LVU685
 2179 0050 012A     		cmp	r2, #1
 2180 0052 00F0CF80 		beq	.L172
 2181              	.LVL190:
 2182              	.L167:
 853:Drivers/STM32F7xx_HAL_Driver/Src/stm32f7xx_ll_usb.c ****     {
 2183              		.loc 1 853 5 is_stmt 1 view .LVU686
 853:Drivers/STM32F7xx_HAL_Driver/Src/stm32f7xx_ll_usb.c ****     {
 2184              		.loc 1 853 11 is_stmt 0 view .LVU687
 2185 0056 CA78     		ldrb	r2, [r1, #3]	@ zero_extendqisi2
 853:Drivers/STM32F7xx_HAL_Driver/Src/stm32f7xx_ll_usb.c ****     {
 2186              		.loc 1 853 8 view .LVU688
 2187 0058 012A     		cmp	r2, #1
 2188 005a 00F0D280 		beq	.L173
 2189              	.L168:
 865:Drivers/STM32F7xx_HAL_Driver/Src/stm32f7xx_ll_usb.c ****   }
 2190              		.loc 1 865 5 is_stmt 1 view .LVU689
 865:Drivers/STM32F7xx_HAL_Driver/Src/stm32f7xx_ll_usb.c ****   }
 2191              		.loc 1 865 32 is_stmt 0 view .LVU690
 2192 005e D3F8002B 		ldr	r2, [r3, #2816]
 2193 0062 42F00442 		orr	r2, r2, #-2080374784
 2194 0066 C3F8002B 		str	r2, [r3, #2816]
 2195              	.LVL191:
 2196              	.L161:
 868:Drivers/STM32F7xx_HAL_Driver/Src/stm32f7xx_ll_usb.c **** }
 2197              		.loc 1 868 3 is_stmt 1 view .LVU691
 869:Drivers/STM32F7xx_HAL_Driver/Src/stm32f7xx_ll_usb.c **** 
 2198              		.loc 1 869 1 is_stmt 0 view .LVU692
 2199 006a 0020     		movs	r0, #0
 2200 006c 03B0     		add	sp, sp, #12
 2201              	.LCFI24:
 2202              		.cfi_remember_state
 2203              		.cfi_def_cfa_offset 20
 2204              		@ sp needed
 2205 006e F0BD     		pop	{r4, r5, r6, r7, pc}
 2206              	.LVL192:
 2207              	.L171:
 2208              	.LCFI25:
 2209              		.cfi_restore_state
 749:Drivers/STM32F7xx_HAL_Driver/Src/stm32f7xx_ll_usb.c ****     {
 2210              		.loc 1 749 5 is_stmt 1 view .LVU693
 749:Drivers/STM32F7xx_HAL_Driver/Src/stm32f7xx_ll_usb.c ****     {
 2211              		.loc 1 749 11 is_stmt 0 view .LVU694
 2212 0070 4C69     		ldr	r4, [r1, #20]
 749:Drivers/STM32F7xx_HAL_Driver/Src/stm32f7xx_ll_usb.c ****     {
 2213              		.loc 1 749 8 view .LVU695
ARM GAS  /tmp/cc8xco1Q.s 			page 75


 2214 0072 74BB     		cbnz	r4, .L155
 751:Drivers/STM32F7xx_HAL_Driver/Src/stm32f7xx_ll_usb.c ****       USBx_INEP(epnum)->DIEPTSIZ |= (USB_OTG_DIEPTSIZ_PKTCNT & (1U << 19));
 2215              		.loc 1 751 7 is_stmt 1 view .LVU696
 751:Drivers/STM32F7xx_HAL_Driver/Src/stm32f7xx_ll_usb.c ****       USBx_INEP(epnum)->DIEPTSIZ |= (USB_OTG_DIEPTSIZ_PKTCNT & (1U << 19));
 2216              		.loc 1 751 34 is_stmt 0 view .LVU697
 2217 0074 00EB4314 		add	r4, r0, r3, lsl #5
 2218 0078 D4F81069 		ldr	r6, [r4, #2320]
 2219 007c 6B4D     		ldr	r5, .L176+4
 2220 007e 3540     		ands	r5, r5, r6
 2221 0080 C4F81059 		str	r5, [r4, #2320]
 752:Drivers/STM32F7xx_HAL_Driver/Src/stm32f7xx_ll_usb.c ****       USBx_INEP(epnum)->DIEPTSIZ &= ~(USB_OTG_DIEPTSIZ_XFRSIZ);
 2222              		.loc 1 752 7 is_stmt 1 view .LVU698
 752:Drivers/STM32F7xx_HAL_Driver/Src/stm32f7xx_ll_usb.c ****       USBx_INEP(epnum)->DIEPTSIZ &= ~(USB_OTG_DIEPTSIZ_XFRSIZ);
 2223              		.loc 1 752 34 is_stmt 0 view .LVU699
 2224 0084 D4F81059 		ldr	r5, [r4, #2320]
 2225 0088 45F40025 		orr	r5, r5, #524288
 2226 008c C4F81059 		str	r5, [r4, #2320]
 753:Drivers/STM32F7xx_HAL_Driver/Src/stm32f7xx_ll_usb.c ****     }
 2227              		.loc 1 753 7 is_stmt 1 view .LVU700
 753:Drivers/STM32F7xx_HAL_Driver/Src/stm32f7xx_ll_usb.c ****     }
 2228              		.loc 1 753 34 is_stmt 0 view .LVU701
 2229 0090 D4F81069 		ldr	r6, [r4, #2320]
 2230 0094 644D     		ldr	r5, .L176
 2231 0096 3540     		ands	r5, r5, r6
 2232 0098 C4F81059 		str	r5, [r4, #2320]
 2233              	.L156:
 774:Drivers/STM32F7xx_HAL_Driver/Src/stm32f7xx_ll_usb.c ****     {
 2234              		.loc 1 774 5 is_stmt 1 view .LVU702
 774:Drivers/STM32F7xx_HAL_Driver/Src/stm32f7xx_ll_usb.c ****     {
 2235              		.loc 1 774 8 is_stmt 0 view .LVU703
 2236 009c 012A     		cmp	r2, #1
 2237 009e 4DD0     		beq	.L174
 799:Drivers/STM32F7xx_HAL_Driver/Src/stm32f7xx_ll_usb.c **** 
 2238              		.loc 1 799 7 is_stmt 1 view .LVU704
 799:Drivers/STM32F7xx_HAL_Driver/Src/stm32f7xx_ll_usb.c **** 
 2239              		.loc 1 799 33 is_stmt 0 view .LVU705
 2240 00a0 00EB4313 		add	r3, r0, r3, lsl #5
 2241              	.LVL193:
 799:Drivers/STM32F7xx_HAL_Driver/Src/stm32f7xx_ll_usb.c **** 
 2242              		.loc 1 799 33 view .LVU706
 2243 00a4 D3F80049 		ldr	r4, [r3, #2304]
 2244 00a8 44F00444 		orr	r4, r4, #-2080374784
 2245 00ac C3F80049 		str	r4, [r3, #2304]
 801:Drivers/STM32F7xx_HAL_Driver/Src/stm32f7xx_ll_usb.c ****       {
 2246              		.loc 1 801 7 is_stmt 1 view .LVU707
 801:Drivers/STM32F7xx_HAL_Driver/Src/stm32f7xx_ll_usb.c ****       {
 2247              		.loc 1 801 13 is_stmt 0 view .LVU708
 2248 00b0 CC78     		ldrb	r4, [r1, #3]	@ zero_extendqisi2
 801:Drivers/STM32F7xx_HAL_Driver/Src/stm32f7xx_ll_usb.c ****       {
 2249              		.loc 1 801 10 view .LVU709
 2250 00b2 012C     		cmp	r4, #1
 2251 00b4 6BD0     		beq	.L162
 804:Drivers/STM32F7xx_HAL_Driver/Src/stm32f7xx_ll_usb.c ****         {
 2252              		.loc 1 804 9 is_stmt 1 view .LVU710
 804:Drivers/STM32F7xx_HAL_Driver/Src/stm32f7xx_ll_usb.c ****         {
 2253              		.loc 1 804 15 is_stmt 0 view .LVU711
 2254 00b6 4B69     		ldr	r3, [r1, #20]
ARM GAS  /tmp/cc8xco1Q.s 			page 76


 804:Drivers/STM32F7xx_HAL_Driver/Src/stm32f7xx_ll_usb.c ****         {
 2255              		.loc 1 804 12 view .LVU712
 2256 00b8 002B     		cmp	r3, #0
 2257 00ba D6D0     		beq	.L161
 806:Drivers/STM32F7xx_HAL_Driver/Src/stm32f7xx_ll_usb.c ****         }
 2258              		.loc 1 806 11 is_stmt 1 view .LVU713
 806:Drivers/STM32F7xx_HAL_Driver/Src/stm32f7xx_ll_usb.c ****         }
 2259              		.loc 1 806 35 is_stmt 0 view .LVU714
 2260 00bc D0F83438 		ldr	r3, [r0, #2100]
 806:Drivers/STM32F7xx_HAL_Driver/Src/stm32f7xx_ll_usb.c ****         }
 2261              		.loc 1 806 48 view .LVU715
 2262 00c0 0A78     		ldrb	r2, [r1]	@ zero_extendqisi2
 2263              	.LVL194:
 806:Drivers/STM32F7xx_HAL_Driver/Src/stm32f7xx_ll_usb.c ****         }
 2264              		.loc 1 806 54 view .LVU716
 2265 00c2 02F00F01 		and	r1, r2, #15
 2266              	.LVL195:
 806:Drivers/STM32F7xx_HAL_Driver/Src/stm32f7xx_ll_usb.c ****         }
 2267              		.loc 1 806 42 view .LVU717
 2268 00c6 0122     		movs	r2, #1
 2269 00c8 8A40     		lsls	r2, r2, r1
 806:Drivers/STM32F7xx_HAL_Driver/Src/stm32f7xx_ll_usb.c ****         }
 2270              		.loc 1 806 35 view .LVU718
 2271 00ca 1343     		orrs	r3, r3, r2
 2272 00cc C0F83438 		str	r3, [r0, #2100]
 2273 00d0 CBE7     		b	.L161
 2274              	.LVL196:
 2275              	.L155:
 762:Drivers/STM32F7xx_HAL_Driver/Src/stm32f7xx_ll_usb.c ****       USBx_INEP(epnum)->DIEPTSIZ &= ~(USB_OTG_DIEPTSIZ_PKTCNT);
 2276              		.loc 1 762 7 is_stmt 1 view .LVU719
 762:Drivers/STM32F7xx_HAL_Driver/Src/stm32f7xx_ll_usb.c ****       USBx_INEP(epnum)->DIEPTSIZ &= ~(USB_OTG_DIEPTSIZ_PKTCNT);
 2277              		.loc 1 762 34 is_stmt 0 view .LVU720
 2278 00d2 00EB4314 		add	r4, r0, r3, lsl #5
 2279 00d6 D4F81069 		ldr	r6, [r4, #2320]
 2280 00da 534D     		ldr	r5, .L176
 2281 00dc 3540     		ands	r5, r5, r6
 2282 00de C4F81059 		str	r5, [r4, #2320]
 763:Drivers/STM32F7xx_HAL_Driver/Src/stm32f7xx_ll_usb.c ****       USBx_INEP(epnum)->DIEPTSIZ |= (USB_OTG_DIEPTSIZ_PKTCNT & (((ep->xfer_len + ep->maxpacket - 1U
 2283              		.loc 1 763 7 is_stmt 1 view .LVU721
 763:Drivers/STM32F7xx_HAL_Driver/Src/stm32f7xx_ll_usb.c ****       USBx_INEP(epnum)->DIEPTSIZ |= (USB_OTG_DIEPTSIZ_PKTCNT & (((ep->xfer_len + ep->maxpacket - 1U
 2284              		.loc 1 763 34 is_stmt 0 view .LVU722
 2285 00e2 D4F81069 		ldr	r6, [r4, #2320]
 2286 00e6 514D     		ldr	r5, .L176+4
 2287 00e8 3540     		ands	r5, r5, r6
 2288 00ea C4F81059 		str	r5, [r4, #2320]
 764:Drivers/STM32F7xx_HAL_Driver/Src/stm32f7xx_ll_usb.c ****       USBx_INEP(epnum)->DIEPTSIZ |= (USB_OTG_DIEPTSIZ_XFRSIZ & ep->xfer_len);
 2289              		.loc 1 764 7 is_stmt 1 view .LVU723
 764:Drivers/STM32F7xx_HAL_Driver/Src/stm32f7xx_ll_usb.c ****       USBx_INEP(epnum)->DIEPTSIZ |= (USB_OTG_DIEPTSIZ_XFRSIZ & ep->xfer_len);
 2290              		.loc 1 764 34 is_stmt 0 view .LVU724
 2291 00ee D4F81059 		ldr	r5, [r4, #2320]
 764:Drivers/STM32F7xx_HAL_Driver/Src/stm32f7xx_ll_usb.c ****       USBx_INEP(epnum)->DIEPTSIZ |= (USB_OTG_DIEPTSIZ_XFRSIZ & ep->xfer_len);
 2292              		.loc 1 764 84 view .LVU725
 2293 00f2 8E68     		ldr	r6, [r1, #8]
 764:Drivers/STM32F7xx_HAL_Driver/Src/stm32f7xx_ll_usb.c ****       USBx_INEP(epnum)->DIEPTSIZ |= (USB_OTG_DIEPTSIZ_XFRSIZ & ep->xfer_len);
 2294              		.loc 1 764 80 view .LVU726
 2295 00f4 4F69     		ldr	r7, [r1, #20]
 2296 00f6 07EB060C 		add	ip, r7, r6
ARM GAS  /tmp/cc8xco1Q.s 			page 77


 764:Drivers/STM32F7xx_HAL_Driver/Src/stm32f7xx_ll_usb.c ****       USBx_INEP(epnum)->DIEPTSIZ |= (USB_OTG_DIEPTSIZ_XFRSIZ & ep->xfer_len);
 2297              		.loc 1 764 96 view .LVU727
 2298 00fa 0CF1FF3C 		add	ip, ip, #-1
 764:Drivers/STM32F7xx_HAL_Driver/Src/stm32f7xx_ll_usb.c ****       USBx_INEP(epnum)->DIEPTSIZ |= (USB_OTG_DIEPTSIZ_XFRSIZ & ep->xfer_len);
 2299              		.loc 1 764 102 view .LVU728
 2300 00fe BCFBF6FC 		udiv	ip, ip, r6
 764:Drivers/STM32F7xx_HAL_Driver/Src/stm32f7xx_ll_usb.c ****       USBx_INEP(epnum)->DIEPTSIZ |= (USB_OTG_DIEPTSIZ_XFRSIZ & ep->xfer_len);
 2301              		.loc 1 764 62 view .LVU729
 2302 0102 4B4E     		ldr	r6, .L176+8
 2303 0104 06EACC4C 		and	ip, r6, ip, lsl #19
 764:Drivers/STM32F7xx_HAL_Driver/Src/stm32f7xx_ll_usb.c ****       USBx_INEP(epnum)->DIEPTSIZ |= (USB_OTG_DIEPTSIZ_XFRSIZ & ep->xfer_len);
 2304              		.loc 1 764 34 view .LVU730
 2305 0108 45EA0C05 		orr	r5, r5, ip
 2306 010c C4F81059 		str	r5, [r4, #2320]
 765:Drivers/STM32F7xx_HAL_Driver/Src/stm32f7xx_ll_usb.c **** 
 2307              		.loc 1 765 7 is_stmt 1 view .LVU731
 765:Drivers/STM32F7xx_HAL_Driver/Src/stm32f7xx_ll_usb.c **** 
 2308              		.loc 1 765 34 is_stmt 0 view .LVU732
 2309 0110 D4F81059 		ldr	r5, [r4, #2320]
 765:Drivers/STM32F7xx_HAL_Driver/Src/stm32f7xx_ll_usb.c **** 
 2310              		.loc 1 765 66 view .LVU733
 2311 0114 4E69     		ldr	r6, [r1, #20]
 765:Drivers/STM32F7xx_HAL_Driver/Src/stm32f7xx_ll_usb.c **** 
 2312              		.loc 1 765 62 view .LVU734
 2313 0116 C6F31206 		ubfx	r6, r6, #0, #19
 765:Drivers/STM32F7xx_HAL_Driver/Src/stm32f7xx_ll_usb.c **** 
 2314              		.loc 1 765 34 view .LVU735
 2315 011a 3543     		orrs	r5, r5, r6
 2316 011c C4F81059 		str	r5, [r4, #2320]
 762:Drivers/STM32F7xx_HAL_Driver/Src/stm32f7xx_ll_usb.c ****       USBx_INEP(epnum)->DIEPTSIZ &= ~(USB_OTG_DIEPTSIZ_PKTCNT);
 2317              		.loc 1 762 34 view .LVU736
 2318 0120 04F51064 		add	r4, r4, #2304
 767:Drivers/STM32F7xx_HAL_Driver/Src/stm32f7xx_ll_usb.c ****       {
 2319              		.loc 1 767 7 is_stmt 1 view .LVU737
 767:Drivers/STM32F7xx_HAL_Driver/Src/stm32f7xx_ll_usb.c ****       {
 2320              		.loc 1 767 13 is_stmt 0 view .LVU738
 2321 0124 CD78     		ldrb	r5, [r1, #3]	@ zero_extendqisi2
 767:Drivers/STM32F7xx_HAL_Driver/Src/stm32f7xx_ll_usb.c ****       {
 2322              		.loc 1 767 10 view .LVU739
 2323 0126 012D     		cmp	r5, #1
 2324 0128 B8D1     		bne	.L156
 769:Drivers/STM32F7xx_HAL_Driver/Src/stm32f7xx_ll_usb.c ****         USBx_INEP(epnum)->DIEPTSIZ |= (USB_OTG_DIEPTSIZ_MULCNT & (1U << 29));
 2325              		.loc 1 769 9 is_stmt 1 view .LVU740
 769:Drivers/STM32F7xx_HAL_Driver/Src/stm32f7xx_ll_usb.c ****         USBx_INEP(epnum)->DIEPTSIZ |= (USB_OTG_DIEPTSIZ_MULCNT & (1U << 29));
 2326              		.loc 1 769 36 is_stmt 0 view .LVU741
 2327 012a 2569     		ldr	r5, [r4, #16]
 2328 012c 25F0C045 		bic	r5, r5, #1610612736
 2329 0130 2561     		str	r5, [r4, #16]
 770:Drivers/STM32F7xx_HAL_Driver/Src/stm32f7xx_ll_usb.c ****       }
 2330              		.loc 1 770 9 is_stmt 1 view .LVU742
 770:Drivers/STM32F7xx_HAL_Driver/Src/stm32f7xx_ll_usb.c ****       }
 2331              		.loc 1 770 36 is_stmt 0 view .LVU743
 2332 0132 2569     		ldr	r5, [r4, #16]
 2333 0134 45F00055 		orr	r5, r5, #536870912
 2334 0138 2561     		str	r5, [r4, #16]
 2335 013a AFE7     		b	.L156
 2336              	.L174:
ARM GAS  /tmp/cc8xco1Q.s 			page 78


 776:Drivers/STM32F7xx_HAL_Driver/Src/stm32f7xx_ll_usb.c ****       {
 2337              		.loc 1 776 7 is_stmt 1 view .LVU744
 776:Drivers/STM32F7xx_HAL_Driver/Src/stm32f7xx_ll_usb.c ****       {
 2338              		.loc 1 776 23 is_stmt 0 view .LVU745
 2339 013c 0A69     		ldr	r2, [r1, #16]
 2340              	.LVL197:
 776:Drivers/STM32F7xx_HAL_Driver/Src/stm32f7xx_ll_usb.c ****       {
 2341              		.loc 1 776 10 view .LVU746
 2342 013e 1AB1     		cbz	r2, .L158
 778:Drivers/STM32F7xx_HAL_Driver/Src/stm32f7xx_ll_usb.c ****       }
 2343              		.loc 1 778 9 is_stmt 1 view .LVU747
 2344 0140 00EB4314 		add	r4, r0, r3, lsl #5
 778:Drivers/STM32F7xx_HAL_Driver/Src/stm32f7xx_ll_usb.c ****       }
 2345              		.loc 1 778 35 is_stmt 0 view .LVU748
 2346 0144 C4F81429 		str	r2, [r4, #2324]
 2347              	.L158:
 781:Drivers/STM32F7xx_HAL_Driver/Src/stm32f7xx_ll_usb.c ****       {
 2348              		.loc 1 781 7 is_stmt 1 view .LVU749
 781:Drivers/STM32F7xx_HAL_Driver/Src/stm32f7xx_ll_usb.c ****       {
 2349              		.loc 1 781 13 is_stmt 0 view .LVU750
 2350 0148 CA78     		ldrb	r2, [r1, #3]	@ zero_extendqisi2
 781:Drivers/STM32F7xx_HAL_Driver/Src/stm32f7xx_ll_usb.c ****       {
 2351              		.loc 1 781 10 view .LVU751
 2352 014a 012A     		cmp	r2, #1
 2353 014c 08D0     		beq	.L175
 2354              	.LVL198:
 2355              	.L159:
 794:Drivers/STM32F7xx_HAL_Driver/Src/stm32f7xx_ll_usb.c ****     }
 2356              		.loc 1 794 7 is_stmt 1 view .LVU752
 794:Drivers/STM32F7xx_HAL_Driver/Src/stm32f7xx_ll_usb.c ****     }
 2357              		.loc 1 794 33 is_stmt 0 view .LVU753
 2358 014e 00EB4313 		add	r3, r0, r3, lsl #5
 2359              	.LVL199:
 794:Drivers/STM32F7xx_HAL_Driver/Src/stm32f7xx_ll_usb.c ****     }
 2360              		.loc 1 794 33 view .LVU754
 2361 0152 D3F80029 		ldr	r2, [r3, #2304]
 2362 0156 42F00442 		orr	r2, r2, #-2080374784
 2363 015a C3F80029 		str	r2, [r3, #2304]
 2364 015e 84E7     		b	.L161
 2365              	.LVL200:
 2366              	.L175:
 783:Drivers/STM32F7xx_HAL_Driver/Src/stm32f7xx_ll_usb.c ****         {
 2367              		.loc 1 783 9 is_stmt 1 view .LVU755
 783:Drivers/STM32F7xx_HAL_Driver/Src/stm32f7xx_ll_usb.c ****         {
 2368              		.loc 1 783 25 is_stmt 0 view .LVU756
 2369 0160 D0F80828 		ldr	r2, [r0, #2056]
 783:Drivers/STM32F7xx_HAL_Driver/Src/stm32f7xx_ll_usb.c ****         {
 2370              		.loc 1 783 12 view .LVU757
 2371 0164 12F4807F 		tst	r2, #256
 2372 0168 08D1     		bne	.L160
 785:Drivers/STM32F7xx_HAL_Driver/Src/stm32f7xx_ll_usb.c ****         }
 2373              		.loc 1 785 11 is_stmt 1 view .LVU758
 785:Drivers/STM32F7xx_HAL_Driver/Src/stm32f7xx_ll_usb.c ****         }
 2374              		.loc 1 785 37 is_stmt 0 view .LVU759
 2375 016a 00EB4311 		add	r1, r0, r3, lsl #5
 2376              	.LVL201:
 785:Drivers/STM32F7xx_HAL_Driver/Src/stm32f7xx_ll_usb.c ****         }
ARM GAS  /tmp/cc8xco1Q.s 			page 79


 2377              		.loc 1 785 37 view .LVU760
 2378 016e D1F80029 		ldr	r2, [r1, #2304]
 2379 0172 42F00052 		orr	r2, r2, #536870912
 2380 0176 C1F80029 		str	r2, [r1, #2304]
 2381 017a E8E7     		b	.L159
 2382              	.LVL202:
 2383              	.L160:
 789:Drivers/STM32F7xx_HAL_Driver/Src/stm32f7xx_ll_usb.c ****         }
 2384              		.loc 1 789 11 is_stmt 1 view .LVU761
 789:Drivers/STM32F7xx_HAL_Driver/Src/stm32f7xx_ll_usb.c ****         }
 2385              		.loc 1 789 37 is_stmt 0 view .LVU762
 2386 017c 00EB4311 		add	r1, r0, r3, lsl #5
 2387              	.LVL203:
 789:Drivers/STM32F7xx_HAL_Driver/Src/stm32f7xx_ll_usb.c ****         }
 2388              		.loc 1 789 37 view .LVU763
 2389 0180 D1F80029 		ldr	r2, [r1, #2304]
 2390 0184 42F08052 		orr	r2, r2, #268435456
 2391 0188 C1F80029 		str	r2, [r1, #2304]
 2392 018c DFE7     		b	.L159
 2393              	.LVL204:
 2394              	.L162:
 811:Drivers/STM32F7xx_HAL_Driver/Src/stm32f7xx_ll_usb.c ****         {
 2395              		.loc 1 811 9 is_stmt 1 view .LVU764
 811:Drivers/STM32F7xx_HAL_Driver/Src/stm32f7xx_ll_usb.c ****         {
 2396              		.loc 1 811 25 is_stmt 0 view .LVU765
 2397 018e D0F80848 		ldr	r4, [r0, #2056]
 811:Drivers/STM32F7xx_HAL_Driver/Src/stm32f7xx_ll_usb.c ****         {
 2398              		.loc 1 811 12 view .LVU766
 2399 0192 14F4807F 		tst	r4, #256
 2400 0196 0CD1     		bne	.L163
 813:Drivers/STM32F7xx_HAL_Driver/Src/stm32f7xx_ll_usb.c ****         }
 2401              		.loc 1 813 11 is_stmt 1 view .LVU767
 813:Drivers/STM32F7xx_HAL_Driver/Src/stm32f7xx_ll_usb.c ****         }
 2402              		.loc 1 813 37 is_stmt 0 view .LVU768
 2403 0198 D3F80049 		ldr	r4, [r3, #2304]
 2404 019c 44F00054 		orr	r4, r4, #536870912
 2405 01a0 C3F80049 		str	r4, [r3, #2304]
 2406              	.L164:
 820:Drivers/STM32F7xx_HAL_Driver/Src/stm32f7xx_ll_usb.c ****       }
 2407              		.loc 1 820 9 is_stmt 1 view .LVU769
 820:Drivers/STM32F7xx_HAL_Driver/Src/stm32f7xx_ll_usb.c ****       }
 2408              		.loc 1 820 15 is_stmt 0 view .LVU770
 2409 01a4 0092     		str	r2, [sp]
 2410 01a6 8B8A     		ldrh	r3, [r1, #20]
 2411 01a8 0A78     		ldrb	r2, [r1]	@ zero_extendqisi2
 2412              	.LVL205:
 820:Drivers/STM32F7xx_HAL_Driver/Src/stm32f7xx_ll_usb.c ****       }
 2413              		.loc 1 820 15 view .LVU771
 2414 01aa C968     		ldr	r1, [r1, #12]
 2415              	.LVL206:
 820:Drivers/STM32F7xx_HAL_Driver/Src/stm32f7xx_ll_usb.c ****       }
 2416              		.loc 1 820 15 view .LVU772
 2417 01ac FFF7FEFF 		bl	USB_WritePacket
 2418              	.LVL207:
 820:Drivers/STM32F7xx_HAL_Driver/Src/stm32f7xx_ll_usb.c ****       }
 2419              		.loc 1 820 15 view .LVU773
 2420 01b0 5BE7     		b	.L161
ARM GAS  /tmp/cc8xco1Q.s 			page 80


 2421              	.LVL208:
 2422              	.L163:
 817:Drivers/STM32F7xx_HAL_Driver/Src/stm32f7xx_ll_usb.c ****         }
 2423              		.loc 1 817 11 is_stmt 1 view .LVU774
 817:Drivers/STM32F7xx_HAL_Driver/Src/stm32f7xx_ll_usb.c ****         }
 2424              		.loc 1 817 37 is_stmt 0 view .LVU775
 2425 01b2 D3F80049 		ldr	r4, [r3, #2304]
 2426 01b6 44F08054 		orr	r4, r4, #268435456
 2427 01ba C3F80049 		str	r4, [r3, #2304]
 2428 01be F1E7     		b	.L164
 2429              	.L165:
 840:Drivers/STM32F7xx_HAL_Driver/Src/stm32f7xx_ll_usb.c ****       USBx_OUTEP(epnum)->DOEPTSIZ |= USB_OTG_DOEPTSIZ_PKTCNT & ((uint32_t)pktcnt << 19);
 2430              		.loc 1 840 7 is_stmt 1 view .LVU776
 840:Drivers/STM32F7xx_HAL_Driver/Src/stm32f7xx_ll_usb.c ****       USBx_OUTEP(epnum)->DOEPTSIZ |= USB_OTG_DOEPTSIZ_PKTCNT & ((uint32_t)pktcnt << 19);
 2431              		.loc 1 840 45 is_stmt 0 view .LVU777
 2432 01c0 8D68     		ldr	r5, [r1, #8]
 840:Drivers/STM32F7xx_HAL_Driver/Src/stm32f7xx_ll_usb.c ****       USBx_OUTEP(epnum)->DOEPTSIZ |= USB_OTG_DOEPTSIZ_PKTCNT & ((uint32_t)pktcnt << 19);
 2433              		.loc 1 840 41 view .LVU778
 2434 01c2 2C44     		add	r4, r4, r5
 840:Drivers/STM32F7xx_HAL_Driver/Src/stm32f7xx_ll_usb.c ****       USBx_OUTEP(epnum)->DOEPTSIZ |= USB_OTG_DOEPTSIZ_PKTCNT & ((uint32_t)pktcnt << 19);
 2435              		.loc 1 840 57 view .LVU779
 2436 01c4 013C     		subs	r4, r4, #1
 840:Drivers/STM32F7xx_HAL_Driver/Src/stm32f7xx_ll_usb.c ****       USBx_OUTEP(epnum)->DOEPTSIZ |= USB_OTG_DOEPTSIZ_PKTCNT & ((uint32_t)pktcnt << 19);
 2437              		.loc 1 840 63 view .LVU780
 2438 01c6 B4FBF5F4 		udiv	r4, r4, r5
 2439              	.LVL209:
 841:Drivers/STM32F7xx_HAL_Driver/Src/stm32f7xx_ll_usb.c ****       USBx_OUTEP(epnum)->DOEPTSIZ |= USB_OTG_DOEPTSIZ_XFRSIZ & (ep->maxpacket * pktcnt);
 2440              		.loc 1 841 7 is_stmt 1 view .LVU781
 841:Drivers/STM32F7xx_HAL_Driver/Src/stm32f7xx_ll_usb.c ****       USBx_OUTEP(epnum)->DOEPTSIZ |= USB_OTG_DOEPTSIZ_XFRSIZ & (ep->maxpacket * pktcnt);
 2441              		.loc 1 841 35 is_stmt 0 view .LVU782
 2442 01ca DCF81050 		ldr	r5, [ip, #16]
 2443 01ce 1FFA84FE 		uxth	lr, r4
 841:Drivers/STM32F7xx_HAL_Driver/Src/stm32f7xx_ll_usb.c ****       USBx_OUTEP(epnum)->DOEPTSIZ |= USB_OTG_DOEPTSIZ_XFRSIZ & (ep->maxpacket * pktcnt);
 2444              		.loc 1 841 62 view .LVU783
 2445 01d2 174E     		ldr	r6, .L176+8
 2446 01d4 06EAC444 		and	r4, r6, r4, lsl #19
 2447              	.LVL210:
 841:Drivers/STM32F7xx_HAL_Driver/Src/stm32f7xx_ll_usb.c ****       USBx_OUTEP(epnum)->DOEPTSIZ |= USB_OTG_DOEPTSIZ_XFRSIZ & (ep->maxpacket * pktcnt);
 2448              		.loc 1 841 35 view .LVU784
 2449 01d8 2543     		orrs	r5, r5, r4
 2450 01da CCF81050 		str	r5, [ip, #16]
 842:Drivers/STM32F7xx_HAL_Driver/Src/stm32f7xx_ll_usb.c ****     }
 2451              		.loc 1 842 7 is_stmt 1 view .LVU785
 842:Drivers/STM32F7xx_HAL_Driver/Src/stm32f7xx_ll_usb.c ****     }
 2452              		.loc 1 842 35 is_stmt 0 view .LVU786
 2453 01de DCF81050 		ldr	r5, [ip, #16]
 842:Drivers/STM32F7xx_HAL_Driver/Src/stm32f7xx_ll_usb.c ****     }
 2454              		.loc 1 842 67 view .LVU787
 2455 01e2 8C68     		ldr	r4, [r1, #8]
 842:Drivers/STM32F7xx_HAL_Driver/Src/stm32f7xx_ll_usb.c ****     }
 2456              		.loc 1 842 79 view .LVU788
 2457 01e4 0EFB04F4 		mul	r4, lr, r4
 842:Drivers/STM32F7xx_HAL_Driver/Src/stm32f7xx_ll_usb.c ****     }
 2458              		.loc 1 842 62 view .LVU789
 2459 01e8 C4F31204 		ubfx	r4, r4, #0, #19
 842:Drivers/STM32F7xx_HAL_Driver/Src/stm32f7xx_ll_usb.c ****     }
 2460              		.loc 1 842 35 view .LVU790
ARM GAS  /tmp/cc8xco1Q.s 			page 81


 2461 01ec 2C43     		orrs	r4, r4, r5
 2462 01ee CCF81040 		str	r4, [ip, #16]
 2463 01f2 2DE7     		b	.L166
 2464              	.LVL211:
 2465              	.L172:
 847:Drivers/STM32F7xx_HAL_Driver/Src/stm32f7xx_ll_usb.c ****       {
 2466              		.loc 1 847 7 is_stmt 1 view .LVU791
 847:Drivers/STM32F7xx_HAL_Driver/Src/stm32f7xx_ll_usb.c ****       {
 2467              		.loc 1 847 23 is_stmt 0 view .LVU792
 2468 01f4 CA68     		ldr	r2, [r1, #12]
 2469              	.LVL212:
 847:Drivers/STM32F7xx_HAL_Driver/Src/stm32f7xx_ll_usb.c ****       {
 2470              		.loc 1 847 10 view .LVU793
 2471 01f6 002A     		cmp	r2, #0
 2472 01f8 3FF42DAF 		beq	.L167
 849:Drivers/STM32F7xx_HAL_Driver/Src/stm32f7xx_ll_usb.c ****       }
 2473              		.loc 1 849 9 is_stmt 1 view .LVU794
 849:Drivers/STM32F7xx_HAL_Driver/Src/stm32f7xx_ll_usb.c ****       }
 2474              		.loc 1 849 36 is_stmt 0 view .LVU795
 2475 01fc CCF81420 		str	r2, [ip, #20]
 2476 0200 29E7     		b	.L167
 2477              	.L173:
 855:Drivers/STM32F7xx_HAL_Driver/Src/stm32f7xx_ll_usb.c ****       {
 2478              		.loc 1 855 7 is_stmt 1 view .LVU796
 855:Drivers/STM32F7xx_HAL_Driver/Src/stm32f7xx_ll_usb.c ****       {
 2479              		.loc 1 855 23 is_stmt 0 view .LVU797
 2480 0202 D0F80828 		ldr	r2, [r0, #2056]
 855:Drivers/STM32F7xx_HAL_Driver/Src/stm32f7xx_ll_usb.c ****       {
 2481              		.loc 1 855 10 view .LVU798
 2482 0206 12F4807F 		tst	r2, #256
 2483 020a 06D1     		bne	.L169
 857:Drivers/STM32F7xx_HAL_Driver/Src/stm32f7xx_ll_usb.c ****       }
 2484              		.loc 1 857 9 is_stmt 1 view .LVU799
 857:Drivers/STM32F7xx_HAL_Driver/Src/stm32f7xx_ll_usb.c ****       }
 2485              		.loc 1 857 36 is_stmt 0 view .LVU800
 2486 020c D3F8002B 		ldr	r2, [r3, #2816]
 2487 0210 42F00052 		orr	r2, r2, #536870912
 2488 0214 C3F8002B 		str	r2, [r3, #2816]
 2489 0218 21E7     		b	.L168
 2490              	.L169:
 861:Drivers/STM32F7xx_HAL_Driver/Src/stm32f7xx_ll_usb.c ****       }
 2491              		.loc 1 861 9 is_stmt 1 view .LVU801
 861:Drivers/STM32F7xx_HAL_Driver/Src/stm32f7xx_ll_usb.c ****       }
 2492              		.loc 1 861 36 is_stmt 0 view .LVU802
 2493 021a D3F8002B 		ldr	r2, [r3, #2816]
 2494 021e 42F08052 		orr	r2, r2, #268435456
 2495 0222 C3F8002B 		str	r2, [r3, #2816]
 2496 0226 1AE7     		b	.L168
 2497              	.L177:
 2498              		.align	2
 2499              	.L176:
 2500 0228 0000F8FF 		.word	-524288
 2501 022c FFFF07E0 		.word	-536346625
 2502 0230 0000F81F 		.word	536346624
 2503              		.cfi_endproc
 2504              	.LFE155:
 2506              		.section	.text.USB_ReadPacket,"ax",%progbits
ARM GAS  /tmp/cc8xco1Q.s 			page 82


 2507              		.align	1
 2508              		.global	USB_ReadPacket
 2509              		.syntax unified
 2510              		.thumb
 2511              		.thumb_func
 2512              		.fpu fpv5-d16
 2514              	USB_ReadPacket:
 2515              	.LVL213:
 2516              	.LFB158:
1008:Drivers/STM32F7xx_HAL_Driver/Src/stm32f7xx_ll_usb.c ****   uint32_t USBx_BASE = (uint32_t)USBx;
 2517              		.loc 1 1008 1 is_stmt 1 view -0
 2518              		.cfi_startproc
 2519              		@ args = 0, pretend = 0, frame = 0
 2520              		@ frame_needed = 0, uses_anonymous_args = 0
 2521              		@ link register save eliminated.
1008:Drivers/STM32F7xx_HAL_Driver/Src/stm32f7xx_ll_usb.c ****   uint32_t USBx_BASE = (uint32_t)USBx;
 2522              		.loc 1 1008 1 is_stmt 0 view .LVU804
 2523 0000 8446     		mov	ip, r0
 2524 0002 0846     		mov	r0, r1
 2525              	.LVL214:
1009:Drivers/STM32F7xx_HAL_Driver/Src/stm32f7xx_ll_usb.c ****   uint32_t *pDest = (uint32_t *)dest;
 2526              		.loc 1 1009 3 is_stmt 1 view .LVU805
1010:Drivers/STM32F7xx_HAL_Driver/Src/stm32f7xx_ll_usb.c ****   uint32_t i;
 2527              		.loc 1 1010 3 view .LVU806
1011:Drivers/STM32F7xx_HAL_Driver/Src/stm32f7xx_ll_usb.c ****   uint32_t count32b = ((uint32_t)len + 3U) / 4U;
 2528              		.loc 1 1011 3 view .LVU807
1012:Drivers/STM32F7xx_HAL_Driver/Src/stm32f7xx_ll_usb.c **** 
 2529              		.loc 1 1012 3 view .LVU808
1012:Drivers/STM32F7xx_HAL_Driver/Src/stm32f7xx_ll_usb.c **** 
 2530              		.loc 1 1012 38 is_stmt 0 view .LVU809
 2531 0004 D11C     		adds	r1, r2, #3
 2532              	.LVL215:
1012:Drivers/STM32F7xx_HAL_Driver/Src/stm32f7xx_ll_usb.c **** 
 2533              		.loc 1 1012 12 view .LVU810
 2534 0006 8908     		lsrs	r1, r1, #2
 2535              	.LVL216:
1014:Drivers/STM32F7xx_HAL_Driver/Src/stm32f7xx_ll_usb.c ****   {
 2536              		.loc 1 1014 3 is_stmt 1 view .LVU811
1014:Drivers/STM32F7xx_HAL_Driver/Src/stm32f7xx_ll_usb.c ****   {
 2537              		.loc 1 1014 10 is_stmt 0 view .LVU812
 2538 0008 0023     		movs	r3, #0
1014:Drivers/STM32F7xx_HAL_Driver/Src/stm32f7xx_ll_usb.c ****   {
 2539              		.loc 1 1014 3 view .LVU813
 2540 000a 05E0     		b	.L179
 2541              	.LVL217:
 2542              	.L180:
1016:Drivers/STM32F7xx_HAL_Driver/Src/stm32f7xx_ll_usb.c ****     pDest++;
 2543              		.loc 1 1016 5 is_stmt 1 discriminator 3 view .LVU814
 2544 000c 0CF58052 		add	r2, ip, #4096
 2545 0010 1268     		ldr	r2, [r2]
 2546 0012 40F8042B 		str	r2, [r0], #4	@ unaligned
 2547              	.LVL218:
1017:Drivers/STM32F7xx_HAL_Driver/Src/stm32f7xx_ll_usb.c ****   }
 2548              		.loc 1 1017 5 discriminator 3 view .LVU815
1014:Drivers/STM32F7xx_HAL_Driver/Src/stm32f7xx_ll_usb.c ****   {
 2549              		.loc 1 1014 30 discriminator 3 view .LVU816
1014:Drivers/STM32F7xx_HAL_Driver/Src/stm32f7xx_ll_usb.c ****   {
ARM GAS  /tmp/cc8xco1Q.s 			page 83


 2550              		.loc 1 1014 31 is_stmt 0 discriminator 3 view .LVU817
 2551 0016 0133     		adds	r3, r3, #1
 2552              	.LVL219:
 2553              	.L179:
1014:Drivers/STM32F7xx_HAL_Driver/Src/stm32f7xx_ll_usb.c ****   {
 2554              		.loc 1 1014 16 is_stmt 1 discriminator 1 view .LVU818
1014:Drivers/STM32F7xx_HAL_Driver/Src/stm32f7xx_ll_usb.c ****   {
 2555              		.loc 1 1014 3 is_stmt 0 discriminator 1 view .LVU819
 2556 0018 8B42     		cmp	r3, r1
 2557 001a F7D3     		bcc	.L180
1020:Drivers/STM32F7xx_HAL_Driver/Src/stm32f7xx_ll_usb.c **** }
 2558              		.loc 1 1020 3 is_stmt 1 view .LVU820
1021:Drivers/STM32F7xx_HAL_Driver/Src/stm32f7xx_ll_usb.c **** 
 2559              		.loc 1 1021 1 is_stmt 0 view .LVU821
 2560 001c 7047     		bx	lr
 2561              		.cfi_endproc
 2562              	.LFE158:
 2564              		.section	.text.USB_EPSetStall,"ax",%progbits
 2565              		.align	1
 2566              		.global	USB_EPSetStall
 2567              		.syntax unified
 2568              		.thumb
 2569              		.thumb_func
 2570              		.fpu fpv5-d16
 2572              	USB_EPSetStall:
 2573              	.LVL220:
 2574              	.LFB159:
1030:Drivers/STM32F7xx_HAL_Driver/Src/stm32f7xx_ll_usb.c ****   uint32_t USBx_BASE = (uint32_t)USBx;
 2575              		.loc 1 1030 1 is_stmt 1 view -0
 2576              		.cfi_startproc
 2577              		@ args = 0, pretend = 0, frame = 0
 2578              		@ frame_needed = 0, uses_anonymous_args = 0
 2579              		@ link register save eliminated.
1031:Drivers/STM32F7xx_HAL_Driver/Src/stm32f7xx_ll_usb.c ****   uint32_t epnum = (uint32_t)ep->num;
 2580              		.loc 1 1031 3 view .LVU823
1032:Drivers/STM32F7xx_HAL_Driver/Src/stm32f7xx_ll_usb.c **** 
 2581              		.loc 1 1032 3 view .LVU824
1032:Drivers/STM32F7xx_HAL_Driver/Src/stm32f7xx_ll_usb.c **** 
 2582              		.loc 1 1032 32 is_stmt 0 view .LVU825
 2583 0000 0B78     		ldrb	r3, [r1]	@ zero_extendqisi2
 2584              	.LVL221:
1034:Drivers/STM32F7xx_HAL_Driver/Src/stm32f7xx_ll_usb.c ****   {
 2585              		.loc 1 1034 3 is_stmt 1 view .LVU826
1034:Drivers/STM32F7xx_HAL_Driver/Src/stm32f7xx_ll_usb.c ****   {
 2586              		.loc 1 1034 9 is_stmt 0 view .LVU827
 2587 0002 4A78     		ldrb	r2, [r1, #1]	@ zero_extendqisi2
1034:Drivers/STM32F7xx_HAL_Driver/Src/stm32f7xx_ll_usb.c ****   {
 2588              		.loc 1 1034 6 view .LVU828
 2589 0004 012A     		cmp	r2, #1
 2590 0006 14D0     		beq	.L186
1044:Drivers/STM32F7xx_HAL_Driver/Src/stm32f7xx_ll_usb.c ****     {
 2591              		.loc 1 1044 5 is_stmt 1 view .LVU829
1044:Drivers/STM32F7xx_HAL_Driver/Src/stm32f7xx_ll_usb.c ****     {
 2592              		.loc 1 1044 11 is_stmt 0 view .LVU830
 2593 0008 00EB4310 		add	r0, r0, r3, lsl #5
 2594              	.LVL222:
1044:Drivers/STM32F7xx_HAL_Driver/Src/stm32f7xx_ll_usb.c ****     {
ARM GAS  /tmp/cc8xco1Q.s 			page 84


 2595              		.loc 1 1044 28 view .LVU831
 2596 000c D0F8002B 		ldr	r2, [r0, #2816]
1044:Drivers/STM32F7xx_HAL_Driver/Src/stm32f7xx_ll_usb.c ****     {
 2597              		.loc 1 1044 8 view .LVU832
 2598 0010 002A     		cmp	r2, #0
 2599 0012 06DB     		blt	.L185
1044:Drivers/STM32F7xx_HAL_Driver/Src/stm32f7xx_ll_usb.c ****     {
 2600              		.loc 1 1044 70 discriminator 1 view .LVU833
 2601 0014 2BB1     		cbz	r3, .L185
1046:Drivers/STM32F7xx_HAL_Driver/Src/stm32f7xx_ll_usb.c ****     }
 2602              		.loc 1 1046 7 is_stmt 1 view .LVU834
1046:Drivers/STM32F7xx_HAL_Driver/Src/stm32f7xx_ll_usb.c ****     }
 2603              		.loc 1 1046 34 is_stmt 0 view .LVU835
 2604 0016 D0F8003B 		ldr	r3, [r0, #2816]
 2605              	.LVL223:
1046:Drivers/STM32F7xx_HAL_Driver/Src/stm32f7xx_ll_usb.c ****     }
 2606              		.loc 1 1046 34 view .LVU836
 2607 001a 23F08043 		bic	r3, r3, #1073741824
 2608 001e C0F8003B 		str	r3, [r0, #2816]
 2609              	.LVL224:
 2610              	.L185:
1048:Drivers/STM32F7xx_HAL_Driver/Src/stm32f7xx_ll_usb.c ****   }
 2611              		.loc 1 1048 5 is_stmt 1 view .LVU837
1048:Drivers/STM32F7xx_HAL_Driver/Src/stm32f7xx_ll_usb.c ****   }
 2612              		.loc 1 1048 32 is_stmt 0 view .LVU838
 2613 0022 D0F8003B 		ldr	r3, [r0, #2816]
 2614 0026 43F40013 		orr	r3, r3, #2097152
 2615 002a C0F8003B 		str	r3, [r0, #2816]
 2616              	.L184:
1051:Drivers/STM32F7xx_HAL_Driver/Src/stm32f7xx_ll_usb.c **** }
 2617              		.loc 1 1051 3 is_stmt 1 view .LVU839
1052:Drivers/STM32F7xx_HAL_Driver/Src/stm32f7xx_ll_usb.c **** 
 2618              		.loc 1 1052 1 is_stmt 0 view .LVU840
 2619 002e 0020     		movs	r0, #0
 2620 0030 7047     		bx	lr
 2621              	.LVL225:
 2622              	.L186:
1036:Drivers/STM32F7xx_HAL_Driver/Src/stm32f7xx_ll_usb.c ****     {
 2623              		.loc 1 1036 5 is_stmt 1 view .LVU841
1036:Drivers/STM32F7xx_HAL_Driver/Src/stm32f7xx_ll_usb.c ****     {
 2624              		.loc 1 1036 11 is_stmt 0 view .LVU842
 2625 0032 00EB4310 		add	r0, r0, r3, lsl #5
 2626              	.LVL226:
1036:Drivers/STM32F7xx_HAL_Driver/Src/stm32f7xx_ll_usb.c ****     {
 2627              		.loc 1 1036 27 view .LVU843
 2628 0036 D0F80029 		ldr	r2, [r0, #2304]
1036:Drivers/STM32F7xx_HAL_Driver/Src/stm32f7xx_ll_usb.c ****     {
 2629              		.loc 1 1036 8 view .LVU844
 2630 003a 002A     		cmp	r2, #0
 2631 003c 06DB     		blt	.L183
1036:Drivers/STM32F7xx_HAL_Driver/Src/stm32f7xx_ll_usb.c ****     {
 2632              		.loc 1 1036 69 discriminator 1 view .LVU845
 2633 003e 2BB1     		cbz	r3, .L183
1038:Drivers/STM32F7xx_HAL_Driver/Src/stm32f7xx_ll_usb.c ****     }
 2634              		.loc 1 1038 7 is_stmt 1 view .LVU846
1038:Drivers/STM32F7xx_HAL_Driver/Src/stm32f7xx_ll_usb.c ****     }
 2635              		.loc 1 1038 33 is_stmt 0 view .LVU847
ARM GAS  /tmp/cc8xco1Q.s 			page 85


 2636 0040 D0F80039 		ldr	r3, [r0, #2304]
 2637              	.LVL227:
1038:Drivers/STM32F7xx_HAL_Driver/Src/stm32f7xx_ll_usb.c ****     }
 2638              		.loc 1 1038 33 view .LVU848
 2639 0044 23F08043 		bic	r3, r3, #1073741824
 2640 0048 C0F80039 		str	r3, [r0, #2304]
 2641              	.LVL228:
 2642              	.L183:
1040:Drivers/STM32F7xx_HAL_Driver/Src/stm32f7xx_ll_usb.c ****   }
 2643              		.loc 1 1040 5 is_stmt 1 view .LVU849
1040:Drivers/STM32F7xx_HAL_Driver/Src/stm32f7xx_ll_usb.c ****   }
 2644              		.loc 1 1040 31 is_stmt 0 view .LVU850
 2645 004c D0F80039 		ldr	r3, [r0, #2304]
 2646 0050 43F40013 		orr	r3, r3, #2097152
 2647 0054 C0F80039 		str	r3, [r0, #2304]
 2648 0058 E9E7     		b	.L184
 2649              		.cfi_endproc
 2650              	.LFE159:
 2652              		.section	.text.USB_EPClearStall,"ax",%progbits
 2653              		.align	1
 2654              		.global	USB_EPClearStall
 2655              		.syntax unified
 2656              		.thumb
 2657              		.thumb_func
 2658              		.fpu fpv5-d16
 2660              	USB_EPClearStall:
 2661              	.LVL229:
 2662              	.LFB160:
1061:Drivers/STM32F7xx_HAL_Driver/Src/stm32f7xx_ll_usb.c ****   uint32_t USBx_BASE = (uint32_t)USBx;
 2663              		.loc 1 1061 1 is_stmt 1 view -0
 2664              		.cfi_startproc
 2665              		@ args = 0, pretend = 0, frame = 0
 2666              		@ frame_needed = 0, uses_anonymous_args = 0
 2667              		@ link register save eliminated.
1062:Drivers/STM32F7xx_HAL_Driver/Src/stm32f7xx_ll_usb.c ****   uint32_t epnum = (uint32_t)ep->num;
 2668              		.loc 1 1062 3 view .LVU852
1063:Drivers/STM32F7xx_HAL_Driver/Src/stm32f7xx_ll_usb.c **** 
 2669              		.loc 1 1063 3 view .LVU853
1063:Drivers/STM32F7xx_HAL_Driver/Src/stm32f7xx_ll_usb.c **** 
 2670              		.loc 1 1063 32 is_stmt 0 view .LVU854
 2671 0000 0B78     		ldrb	r3, [r1]	@ zero_extendqisi2
 2672              	.LVL230:
1065:Drivers/STM32F7xx_HAL_Driver/Src/stm32f7xx_ll_usb.c ****   {
 2673              		.loc 1 1065 3 is_stmt 1 view .LVU855
1065:Drivers/STM32F7xx_HAL_Driver/Src/stm32f7xx_ll_usb.c ****   {
 2674              		.loc 1 1065 9 is_stmt 0 view .LVU856
 2675 0002 4A78     		ldrb	r2, [r1, #1]	@ zero_extendqisi2
1065:Drivers/STM32F7xx_HAL_Driver/Src/stm32f7xx_ll_usb.c ****   {
 2676              		.loc 1 1065 6 view .LVU857
 2677 0004 012A     		cmp	r2, #1
 2678 0006 0ED0     		beq	.L190
1075:Drivers/STM32F7xx_HAL_Driver/Src/stm32f7xx_ll_usb.c ****     if ((ep->type == EP_TYPE_INTR) || (ep->type == EP_TYPE_BULK))
 2679              		.loc 1 1075 5 is_stmt 1 view .LVU858
1075:Drivers/STM32F7xx_HAL_Driver/Src/stm32f7xx_ll_usb.c ****     if ((ep->type == EP_TYPE_INTR) || (ep->type == EP_TYPE_BULK))
 2680              		.loc 1 1075 32 is_stmt 0 view .LVU859
 2681 0008 00EB4310 		add	r0, r0, r3, lsl #5
 2682              	.LVL231:
ARM GAS  /tmp/cc8xco1Q.s 			page 86


1075:Drivers/STM32F7xx_HAL_Driver/Src/stm32f7xx_ll_usb.c ****     if ((ep->type == EP_TYPE_INTR) || (ep->type == EP_TYPE_BULK))
 2683              		.loc 1 1075 32 view .LVU860
 2684 000c D0F8003B 		ldr	r3, [r0, #2816]
 2685              	.LVL232:
1075:Drivers/STM32F7xx_HAL_Driver/Src/stm32f7xx_ll_usb.c ****     if ((ep->type == EP_TYPE_INTR) || (ep->type == EP_TYPE_BULK))
 2686              		.loc 1 1075 32 view .LVU861
 2687 0010 23F40013 		bic	r3, r3, #2097152
 2688 0014 C0F8003B 		str	r3, [r0, #2816]
 2689              	.LVL233:
1076:Drivers/STM32F7xx_HAL_Driver/Src/stm32f7xx_ll_usb.c ****     {
 2690              		.loc 1 1076 5 is_stmt 1 view .LVU862
1076:Drivers/STM32F7xx_HAL_Driver/Src/stm32f7xx_ll_usb.c ****     {
 2691              		.loc 1 1076 12 is_stmt 0 view .LVU863
 2692 0018 CB78     		ldrb	r3, [r1, #3]	@ zero_extendqisi2
1076:Drivers/STM32F7xx_HAL_Driver/Src/stm32f7xx_ll_usb.c ****     {
 2693              		.loc 1 1076 36 view .LVU864
 2694 001a 023B     		subs	r3, r3, #2
 2695 001c DBB2     		uxtb	r3, r3
1076:Drivers/STM32F7xx_HAL_Driver/Src/stm32f7xx_ll_usb.c ****     {
 2696              		.loc 1 1076 8 view .LVU865
 2697 001e 012B     		cmp	r3, #1
 2698 0020 15D9     		bls	.L191
 2699              	.L189:
1081:Drivers/STM32F7xx_HAL_Driver/Src/stm32f7xx_ll_usb.c **** }
 2700              		.loc 1 1081 3 is_stmt 1 view .LVU866
1082:Drivers/STM32F7xx_HAL_Driver/Src/stm32f7xx_ll_usb.c **** 
 2701              		.loc 1 1082 1 is_stmt 0 view .LVU867
 2702 0022 0020     		movs	r0, #0
 2703 0024 7047     		bx	lr
 2704              	.LVL234:
 2705              	.L190:
1067:Drivers/STM32F7xx_HAL_Driver/Src/stm32f7xx_ll_usb.c ****     if ((ep->type == EP_TYPE_INTR) || (ep->type == EP_TYPE_BULK))
 2706              		.loc 1 1067 5 is_stmt 1 view .LVU868
1067:Drivers/STM32F7xx_HAL_Driver/Src/stm32f7xx_ll_usb.c ****     if ((ep->type == EP_TYPE_INTR) || (ep->type == EP_TYPE_BULK))
 2707              		.loc 1 1067 31 is_stmt 0 view .LVU869
 2708 0026 00EB4310 		add	r0, r0, r3, lsl #5
 2709              	.LVL235:
1067:Drivers/STM32F7xx_HAL_Driver/Src/stm32f7xx_ll_usb.c ****     if ((ep->type == EP_TYPE_INTR) || (ep->type == EP_TYPE_BULK))
 2710              		.loc 1 1067 31 view .LVU870
 2711 002a D0F80039 		ldr	r3, [r0, #2304]
 2712              	.LVL236:
1067:Drivers/STM32F7xx_HAL_Driver/Src/stm32f7xx_ll_usb.c ****     if ((ep->type == EP_TYPE_INTR) || (ep->type == EP_TYPE_BULK))
 2713              		.loc 1 1067 31 view .LVU871
 2714 002e 23F40013 		bic	r3, r3, #2097152
 2715 0032 C0F80039 		str	r3, [r0, #2304]
 2716              	.LVL237:
1068:Drivers/STM32F7xx_HAL_Driver/Src/stm32f7xx_ll_usb.c ****     {
 2717              		.loc 1 1068 5 is_stmt 1 view .LVU872
1068:Drivers/STM32F7xx_HAL_Driver/Src/stm32f7xx_ll_usb.c ****     {
 2718              		.loc 1 1068 12 is_stmt 0 view .LVU873
 2719 0036 CB78     		ldrb	r3, [r1, #3]	@ zero_extendqisi2
1068:Drivers/STM32F7xx_HAL_Driver/Src/stm32f7xx_ll_usb.c ****     {
 2720              		.loc 1 1068 36 view .LVU874
 2721 0038 023B     		subs	r3, r3, #2
 2722 003a DBB2     		uxtb	r3, r3
1068:Drivers/STM32F7xx_HAL_Driver/Src/stm32f7xx_ll_usb.c ****     {
 2723              		.loc 1 1068 8 view .LVU875
ARM GAS  /tmp/cc8xco1Q.s 			page 87


 2724 003c 012B     		cmp	r3, #1
 2725 003e F0D8     		bhi	.L189
1070:Drivers/STM32F7xx_HAL_Driver/Src/stm32f7xx_ll_usb.c ****     }
 2726              		.loc 1 1070 7 is_stmt 1 view .LVU876
1070:Drivers/STM32F7xx_HAL_Driver/Src/stm32f7xx_ll_usb.c ****     }
 2727              		.loc 1 1070 33 is_stmt 0 view .LVU877
 2728 0040 D0F80039 		ldr	r3, [r0, #2304]
 2729 0044 43F08053 		orr	r3, r3, #268435456
 2730 0048 C0F80039 		str	r3, [r0, #2304]
 2731 004c E9E7     		b	.L189
 2732              	.L191:
1078:Drivers/STM32F7xx_HAL_Driver/Src/stm32f7xx_ll_usb.c ****     }
 2733              		.loc 1 1078 7 is_stmt 1 view .LVU878
1078:Drivers/STM32F7xx_HAL_Driver/Src/stm32f7xx_ll_usb.c ****     }
 2734              		.loc 1 1078 34 is_stmt 0 view .LVU879
 2735 004e D0F8003B 		ldr	r3, [r0, #2816]
 2736 0052 43F08053 		orr	r3, r3, #268435456
 2737 0056 C0F8003B 		str	r3, [r0, #2816]
 2738 005a E2E7     		b	.L189
 2739              		.cfi_endproc
 2740              	.LFE160:
 2742              		.section	.text.USB_StopDevice,"ax",%progbits
 2743              		.align	1
 2744              		.global	USB_StopDevice
 2745              		.syntax unified
 2746              		.thumb
 2747              		.thumb_func
 2748              		.fpu fpv5-d16
 2750              	USB_StopDevice:
 2751              	.LVL238:
 2752              	.LFB161:
1090:Drivers/STM32F7xx_HAL_Driver/Src/stm32f7xx_ll_usb.c ****   HAL_StatusTypeDef ret;
 2753              		.loc 1 1090 1 is_stmt 1 view -0
 2754              		.cfi_startproc
 2755              		@ args = 0, pretend = 0, frame = 0
 2756              		@ frame_needed = 0, uses_anonymous_args = 0
1090:Drivers/STM32F7xx_HAL_Driver/Src/stm32f7xx_ll_usb.c ****   HAL_StatusTypeDef ret;
 2757              		.loc 1 1090 1 is_stmt 0 view .LVU881
 2758 0000 10B5     		push	{r4, lr}
 2759              	.LCFI26:
 2760              		.cfi_def_cfa_offset 8
 2761              		.cfi_offset 4, -8
 2762              		.cfi_offset 14, -4
 2763 0002 0446     		mov	r4, r0
1091:Drivers/STM32F7xx_HAL_Driver/Src/stm32f7xx_ll_usb.c ****   uint32_t USBx_BASE = (uint32_t)USBx;
 2764              		.loc 1 1091 3 is_stmt 1 view .LVU882
1092:Drivers/STM32F7xx_HAL_Driver/Src/stm32f7xx_ll_usb.c ****   uint32_t i;
 2765              		.loc 1 1092 3 view .LVU883
 2766              	.LVL239:
1093:Drivers/STM32F7xx_HAL_Driver/Src/stm32f7xx_ll_usb.c **** 
 2767              		.loc 1 1093 3 view .LVU884
1096:Drivers/STM32F7xx_HAL_Driver/Src/stm32f7xx_ll_usb.c ****   {
 2768              		.loc 1 1096 3 view .LVU885
1096:Drivers/STM32F7xx_HAL_Driver/Src/stm32f7xx_ll_usb.c ****   {
 2769              		.loc 1 1096 10 is_stmt 0 view .LVU886
 2770 0004 0022     		movs	r2, #0
1096:Drivers/STM32F7xx_HAL_Driver/Src/stm32f7xx_ll_usb.c ****   {
ARM GAS  /tmp/cc8xco1Q.s 			page 88


 2771              		.loc 1 1096 3 view .LVU887
 2772 0006 08E0     		b	.L193
 2773              	.LVL240:
 2774              	.L194:
1098:Drivers/STM32F7xx_HAL_Driver/Src/stm32f7xx_ll_usb.c ****     USBx_OUTEP(i)->DOEPINT = 0xFB7FU;
 2775              		.loc 1 1098 5 is_stmt 1 discriminator 3 view .LVU888
 2776 0008 04EB4213 		add	r3, r4, r2, lsl #5
1098:Drivers/STM32F7xx_HAL_Driver/Src/stm32f7xx_ll_usb.c ****     USBx_OUTEP(i)->DOEPINT = 0xFB7FU;
 2777              		.loc 1 1098 27 is_stmt 0 discriminator 3 view .LVU889
 2778 000c 4FF67F31 		movw	r1, #64383
 2779 0010 C3F80819 		str	r1, [r3, #2312]
1099:Drivers/STM32F7xx_HAL_Driver/Src/stm32f7xx_ll_usb.c ****   }
 2780              		.loc 1 1099 5 is_stmt 1 discriminator 3 view .LVU890
1099:Drivers/STM32F7xx_HAL_Driver/Src/stm32f7xx_ll_usb.c ****   }
 2781              		.loc 1 1099 28 is_stmt 0 discriminator 3 view .LVU891
 2782 0014 C3F8081B 		str	r1, [r3, #2824]
1096:Drivers/STM32F7xx_HAL_Driver/Src/stm32f7xx_ll_usb.c ****   {
 2783              		.loc 1 1096 25 is_stmt 1 discriminator 3 view .LVU892
1096:Drivers/STM32F7xx_HAL_Driver/Src/stm32f7xx_ll_usb.c ****   {
 2784              		.loc 1 1096 26 is_stmt 0 discriminator 3 view .LVU893
 2785 0018 0132     		adds	r2, r2, #1
 2786              	.LVL241:
 2787              	.L193:
1096:Drivers/STM32F7xx_HAL_Driver/Src/stm32f7xx_ll_usb.c ****   {
 2788              		.loc 1 1096 16 is_stmt 1 discriminator 1 view .LVU894
1096:Drivers/STM32F7xx_HAL_Driver/Src/stm32f7xx_ll_usb.c ****   {
 2789              		.loc 1 1096 3 is_stmt 0 discriminator 1 view .LVU895
 2790 001a 0E2A     		cmp	r2, #14
 2791 001c F4D9     		bls	.L194
1103:Drivers/STM32F7xx_HAL_Driver/Src/stm32f7xx_ll_usb.c ****   USBx_DEVICE->DOEPMSK  = 0U;
 2792              		.loc 1 1103 3 is_stmt 1 view .LVU896
1103:Drivers/STM32F7xx_HAL_Driver/Src/stm32f7xx_ll_usb.c ****   USBx_DEVICE->DOEPMSK  = 0U;
 2793              		.loc 1 1103 25 is_stmt 0 view .LVU897
 2794 001e 0022     		movs	r2, #0
 2795              	.LVL242:
1103:Drivers/STM32F7xx_HAL_Driver/Src/stm32f7xx_ll_usb.c ****   USBx_DEVICE->DOEPMSK  = 0U;
 2796              		.loc 1 1103 25 view .LVU898
 2797 0020 C4F81028 		str	r2, [r4, #2064]
1104:Drivers/STM32F7xx_HAL_Driver/Src/stm32f7xx_ll_usb.c ****   USBx_DEVICE->DAINTMSK = 0U;
 2798              		.loc 1 1104 3 is_stmt 1 view .LVU899
1104:Drivers/STM32F7xx_HAL_Driver/Src/stm32f7xx_ll_usb.c ****   USBx_DEVICE->DAINTMSK = 0U;
 2799              		.loc 1 1104 25 is_stmt 0 view .LVU900
 2800 0024 C4F81428 		str	r2, [r4, #2068]
1105:Drivers/STM32F7xx_HAL_Driver/Src/stm32f7xx_ll_usb.c **** 
 2801              		.loc 1 1105 3 is_stmt 1 view .LVU901
1105:Drivers/STM32F7xx_HAL_Driver/Src/stm32f7xx_ll_usb.c **** 
 2802              		.loc 1 1105 25 is_stmt 0 view .LVU902
 2803 0028 C4F81C28 		str	r2, [r4, #2076]
1108:Drivers/STM32F7xx_HAL_Driver/Src/stm32f7xx_ll_usb.c ****   if (ret != HAL_OK)
 2804              		.loc 1 1108 3 is_stmt 1 view .LVU903
1108:Drivers/STM32F7xx_HAL_Driver/Src/stm32f7xx_ll_usb.c ****   if (ret != HAL_OK)
 2805              		.loc 1 1108 9 is_stmt 0 view .LVU904
 2806 002c 2046     		mov	r0, r4
 2807              	.LVL243:
1108:Drivers/STM32F7xx_HAL_Driver/Src/stm32f7xx_ll_usb.c ****   if (ret != HAL_OK)
 2808              		.loc 1 1108 9 view .LVU905
 2809 002e FFF7FEFF 		bl	USB_FlushRxFifo
ARM GAS  /tmp/cc8xco1Q.s 			page 89


 2810              	.LVL244:
1109:Drivers/STM32F7xx_HAL_Driver/Src/stm32f7xx_ll_usb.c ****   {
 2811              		.loc 1 1109 3 is_stmt 1 view .LVU906
1109:Drivers/STM32F7xx_HAL_Driver/Src/stm32f7xx_ll_usb.c ****   {
 2812              		.loc 1 1109 6 is_stmt 0 view .LVU907
 2813 0032 00B1     		cbz	r0, .L197
 2814              	.L195:
1121:Drivers/STM32F7xx_HAL_Driver/Src/stm32f7xx_ll_usb.c **** 
 2815              		.loc 1 1121 1 view .LVU908
 2816 0034 10BD     		pop	{r4, pc}
 2817              	.LVL245:
 2818              	.L197:
1114:Drivers/STM32F7xx_HAL_Driver/Src/stm32f7xx_ll_usb.c ****   if (ret != HAL_OK)
 2819              		.loc 1 1114 3 is_stmt 1 view .LVU909
1114:Drivers/STM32F7xx_HAL_Driver/Src/stm32f7xx_ll_usb.c ****   if (ret != HAL_OK)
 2820              		.loc 1 1114 9 is_stmt 0 view .LVU910
 2821 0036 1021     		movs	r1, #16
 2822 0038 2046     		mov	r0, r4
 2823              	.LVL246:
1114:Drivers/STM32F7xx_HAL_Driver/Src/stm32f7xx_ll_usb.c ****   if (ret != HAL_OK)
 2824              		.loc 1 1114 9 view .LVU911
 2825 003a FFF7FEFF 		bl	USB_FlushTxFifo
 2826              	.LVL247:
1115:Drivers/STM32F7xx_HAL_Driver/Src/stm32f7xx_ll_usb.c ****   {
 2827              		.loc 1 1115 3 is_stmt 1 view .LVU912
 2828 003e F9E7     		b	.L195
 2829              		.cfi_endproc
 2830              	.LFE161:
 2832              		.section	.text.USB_SetDevAddress,"ax",%progbits
 2833              		.align	1
 2834              		.global	USB_SetDevAddress
 2835              		.syntax unified
 2836              		.thumb
 2837              		.thumb_func
 2838              		.fpu fpv5-d16
 2840              	USB_SetDevAddress:
 2841              	.LVL248:
 2842              	.LFB162:
1131:Drivers/STM32F7xx_HAL_Driver/Src/stm32f7xx_ll_usb.c ****   uint32_t USBx_BASE = (uint32_t)USBx;
 2843              		.loc 1 1131 1 view -0
 2844              		.cfi_startproc
 2845              		@ args = 0, pretend = 0, frame = 0
 2846              		@ frame_needed = 0, uses_anonymous_args = 0
 2847              		@ link register save eliminated.
1132:Drivers/STM32F7xx_HAL_Driver/Src/stm32f7xx_ll_usb.c **** 
 2848              		.loc 1 1132 3 view .LVU914
1134:Drivers/STM32F7xx_HAL_Driver/Src/stm32f7xx_ll_usb.c ****   USBx_DEVICE->DCFG |= ((uint32_t)address << 4) & USB_OTG_DCFG_DAD;
 2849              		.loc 1 1134 3 view .LVU915
1134:Drivers/STM32F7xx_HAL_Driver/Src/stm32f7xx_ll_usb.c ****   USBx_DEVICE->DCFG |= ((uint32_t)address << 4) & USB_OTG_DCFG_DAD;
 2850              		.loc 1 1134 21 is_stmt 0 view .LVU916
 2851 0000 D0F80038 		ldr	r3, [r0, #2048]
 2852 0004 23F4FE63 		bic	r3, r3, #2032
 2853 0008 C0F80038 		str	r3, [r0, #2048]
1135:Drivers/STM32F7xx_HAL_Driver/Src/stm32f7xx_ll_usb.c **** 
 2854              		.loc 1 1135 3 is_stmt 1 view .LVU917
1135:Drivers/STM32F7xx_HAL_Driver/Src/stm32f7xx_ll_usb.c **** 
 2855              		.loc 1 1135 21 is_stmt 0 view .LVU918
ARM GAS  /tmp/cc8xco1Q.s 			page 90


 2856 000c D0F80038 		ldr	r3, [r0, #2048]
1135:Drivers/STM32F7xx_HAL_Driver/Src/stm32f7xx_ll_usb.c **** 
 2857              		.loc 1 1135 43 view .LVU919
 2858 0010 0901     		lsls	r1, r1, #4
 2859              	.LVL249:
1135:Drivers/STM32F7xx_HAL_Driver/Src/stm32f7xx_ll_usb.c **** 
 2860              		.loc 1 1135 49 view .LVU920
 2861 0012 01F4FE61 		and	r1, r1, #2032
1135:Drivers/STM32F7xx_HAL_Driver/Src/stm32f7xx_ll_usb.c **** 
 2862              		.loc 1 1135 21 view .LVU921
 2863 0016 1943     		orrs	r1, r1, r3
 2864 0018 C0F80018 		str	r1, [r0, #2048]
1137:Drivers/STM32F7xx_HAL_Driver/Src/stm32f7xx_ll_usb.c **** }
 2865              		.loc 1 1137 3 is_stmt 1 view .LVU922
1138:Drivers/STM32F7xx_HAL_Driver/Src/stm32f7xx_ll_usb.c **** 
 2866              		.loc 1 1138 1 is_stmt 0 view .LVU923
 2867 001c 0020     		movs	r0, #0
 2868              	.LVL250:
1138:Drivers/STM32F7xx_HAL_Driver/Src/stm32f7xx_ll_usb.c **** 
 2869              		.loc 1 1138 1 view .LVU924
 2870 001e 7047     		bx	lr
 2871              		.cfi_endproc
 2872              	.LFE162:
 2874              		.section	.text.USB_DevConnect,"ax",%progbits
 2875              		.align	1
 2876              		.global	USB_DevConnect
 2877              		.syntax unified
 2878              		.thumb
 2879              		.thumb_func
 2880              		.fpu fpv5-d16
 2882              	USB_DevConnect:
 2883              	.LVL251:
 2884              	.LFB163:
1146:Drivers/STM32F7xx_HAL_Driver/Src/stm32f7xx_ll_usb.c ****   uint32_t USBx_BASE = (uint32_t)USBx;
 2885              		.loc 1 1146 1 is_stmt 1 view -0
 2886              		.cfi_startproc
 2887              		@ args = 0, pretend = 0, frame = 0
 2888              		@ frame_needed = 0, uses_anonymous_args = 0
1146:Drivers/STM32F7xx_HAL_Driver/Src/stm32f7xx_ll_usb.c ****   uint32_t USBx_BASE = (uint32_t)USBx;
 2889              		.loc 1 1146 1 is_stmt 0 view .LVU926
 2890 0000 08B5     		push	{r3, lr}
 2891              	.LCFI27:
 2892              		.cfi_def_cfa_offset 8
 2893              		.cfi_offset 3, -8
 2894              		.cfi_offset 14, -4
1147:Drivers/STM32F7xx_HAL_Driver/Src/stm32f7xx_ll_usb.c **** 
 2895              		.loc 1 1147 3 is_stmt 1 view .LVU927
 2896              	.LVL252:
1149:Drivers/STM32F7xx_HAL_Driver/Src/stm32f7xx_ll_usb.c ****   HAL_Delay(3U);
 2897              		.loc 1 1149 3 view .LVU928
1149:Drivers/STM32F7xx_HAL_Driver/Src/stm32f7xx_ll_usb.c ****   HAL_Delay(3U);
 2898              		.loc 1 1149 21 is_stmt 0 view .LVU929
 2899 0002 D0F80438 		ldr	r3, [r0, #2052]
 2900 0006 23F00203 		bic	r3, r3, #2
 2901 000a C0F80438 		str	r3, [r0, #2052]
1150:Drivers/STM32F7xx_HAL_Driver/Src/stm32f7xx_ll_usb.c **** 
 2902              		.loc 1 1150 3 is_stmt 1 view .LVU930
ARM GAS  /tmp/cc8xco1Q.s 			page 91


 2903 000e 0320     		movs	r0, #3
 2904              	.LVL253:
1150:Drivers/STM32F7xx_HAL_Driver/Src/stm32f7xx_ll_usb.c **** 
 2905              		.loc 1 1150 3 is_stmt 0 view .LVU931
 2906 0010 FFF7FEFF 		bl	HAL_Delay
 2907              	.LVL254:
1152:Drivers/STM32F7xx_HAL_Driver/Src/stm32f7xx_ll_usb.c **** }
 2908              		.loc 1 1152 3 is_stmt 1 view .LVU932
1153:Drivers/STM32F7xx_HAL_Driver/Src/stm32f7xx_ll_usb.c **** 
 2909              		.loc 1 1153 1 is_stmt 0 view .LVU933
 2910 0014 0020     		movs	r0, #0
 2911 0016 08BD     		pop	{r3, pc}
 2912              		.cfi_endproc
 2913              	.LFE163:
 2915              		.section	.text.USB_DevDisconnect,"ax",%progbits
 2916              		.align	1
 2917              		.global	USB_DevDisconnect
 2918              		.syntax unified
 2919              		.thumb
 2920              		.thumb_func
 2921              		.fpu fpv5-d16
 2923              	USB_DevDisconnect:
 2924              	.LVL255:
 2925              	.LFB164:
1161:Drivers/STM32F7xx_HAL_Driver/Src/stm32f7xx_ll_usb.c ****   uint32_t USBx_BASE = (uint32_t)USBx;
 2926              		.loc 1 1161 1 is_stmt 1 view -0
 2927              		.cfi_startproc
 2928              		@ args = 0, pretend = 0, frame = 0
 2929              		@ frame_needed = 0, uses_anonymous_args = 0
1161:Drivers/STM32F7xx_HAL_Driver/Src/stm32f7xx_ll_usb.c ****   uint32_t USBx_BASE = (uint32_t)USBx;
 2930              		.loc 1 1161 1 is_stmt 0 view .LVU935
 2931 0000 08B5     		push	{r3, lr}
 2932              	.LCFI28:
 2933              		.cfi_def_cfa_offset 8
 2934              		.cfi_offset 3, -8
 2935              		.cfi_offset 14, -4
1162:Drivers/STM32F7xx_HAL_Driver/Src/stm32f7xx_ll_usb.c **** 
 2936              		.loc 1 1162 3 is_stmt 1 view .LVU936
 2937              	.LVL256:
1164:Drivers/STM32F7xx_HAL_Driver/Src/stm32f7xx_ll_usb.c ****   HAL_Delay(3U);
 2938              		.loc 1 1164 3 view .LVU937
1164:Drivers/STM32F7xx_HAL_Driver/Src/stm32f7xx_ll_usb.c ****   HAL_Delay(3U);
 2939              		.loc 1 1164 21 is_stmt 0 view .LVU938
 2940 0002 D0F80438 		ldr	r3, [r0, #2052]
 2941 0006 43F00203 		orr	r3, r3, #2
 2942 000a C0F80438 		str	r3, [r0, #2052]
1165:Drivers/STM32F7xx_HAL_Driver/Src/stm32f7xx_ll_usb.c **** 
 2943              		.loc 1 1165 3 is_stmt 1 view .LVU939
 2944 000e 0320     		movs	r0, #3
 2945              	.LVL257:
1165:Drivers/STM32F7xx_HAL_Driver/Src/stm32f7xx_ll_usb.c **** 
 2946              		.loc 1 1165 3 is_stmt 0 view .LVU940
 2947 0010 FFF7FEFF 		bl	HAL_Delay
 2948              	.LVL258:
1167:Drivers/STM32F7xx_HAL_Driver/Src/stm32f7xx_ll_usb.c **** }
 2949              		.loc 1 1167 3 is_stmt 1 view .LVU941
1168:Drivers/STM32F7xx_HAL_Driver/Src/stm32f7xx_ll_usb.c **** 
ARM GAS  /tmp/cc8xco1Q.s 			page 92


 2950              		.loc 1 1168 1 is_stmt 0 view .LVU942
 2951 0014 0020     		movs	r0, #0
 2952 0016 08BD     		pop	{r3, pc}
 2953              		.cfi_endproc
 2954              	.LFE164:
 2956              		.section	.text.USB_ReadInterrupts,"ax",%progbits
 2957              		.align	1
 2958              		.global	USB_ReadInterrupts
 2959              		.syntax unified
 2960              		.thumb
 2961              		.thumb_func
 2962              		.fpu fpv5-d16
 2964              	USB_ReadInterrupts:
 2965              	.LVL259:
 2966              	.LFB165:
1176:Drivers/STM32F7xx_HAL_Driver/Src/stm32f7xx_ll_usb.c ****   uint32_t tmpreg;
 2967              		.loc 1 1176 1 is_stmt 1 view -0
 2968              		.cfi_startproc
 2969              		@ args = 0, pretend = 0, frame = 0
 2970              		@ frame_needed = 0, uses_anonymous_args = 0
 2971              		@ link register save eliminated.
1177:Drivers/STM32F7xx_HAL_Driver/Src/stm32f7xx_ll_usb.c **** 
 2972              		.loc 1 1177 3 view .LVU944
1179:Drivers/STM32F7xx_HAL_Driver/Src/stm32f7xx_ll_usb.c ****   tmpreg &= USBx->GINTMSK;
 2973              		.loc 1 1179 3 view .LVU945
1179:Drivers/STM32F7xx_HAL_Driver/Src/stm32f7xx_ll_usb.c ****   tmpreg &= USBx->GINTMSK;
 2974              		.loc 1 1179 10 is_stmt 0 view .LVU946
 2975 0000 4269     		ldr	r2, [r0, #20]
 2976              	.LVL260:
1180:Drivers/STM32F7xx_HAL_Driver/Src/stm32f7xx_ll_usb.c **** 
 2977              		.loc 1 1180 3 is_stmt 1 view .LVU947
1180:Drivers/STM32F7xx_HAL_Driver/Src/stm32f7xx_ll_usb.c **** 
 2978              		.loc 1 1180 17 is_stmt 0 view .LVU948
 2979 0002 8069     		ldr	r0, [r0, #24]
 2980              	.LVL261:
1182:Drivers/STM32F7xx_HAL_Driver/Src/stm32f7xx_ll_usb.c **** }
 2981              		.loc 1 1182 3 is_stmt 1 view .LVU949
1183:Drivers/STM32F7xx_HAL_Driver/Src/stm32f7xx_ll_usb.c **** 
 2982              		.loc 1 1183 1 is_stmt 0 view .LVU950
 2983 0004 1040     		ands	r0, r0, r2
 2984              	.LVL262:
1183:Drivers/STM32F7xx_HAL_Driver/Src/stm32f7xx_ll_usb.c **** 
 2985              		.loc 1 1183 1 view .LVU951
 2986 0006 7047     		bx	lr
 2987              		.cfi_endproc
 2988              	.LFE165:
 2990              		.section	.text.USB_ReadDevAllOutEpInterrupt,"ax",%progbits
 2991              		.align	1
 2992              		.global	USB_ReadDevAllOutEpInterrupt
 2993              		.syntax unified
 2994              		.thumb
 2995              		.thumb_func
 2996              		.fpu fpv5-d16
 2998              	USB_ReadDevAllOutEpInterrupt:
 2999              	.LVL263:
 3000              	.LFB166:
1191:Drivers/STM32F7xx_HAL_Driver/Src/stm32f7xx_ll_usb.c ****   uint32_t USBx_BASE = (uint32_t)USBx;
ARM GAS  /tmp/cc8xco1Q.s 			page 93


 3001              		.loc 1 1191 1 is_stmt 1 view -0
 3002              		.cfi_startproc
 3003              		@ args = 0, pretend = 0, frame = 0
 3004              		@ frame_needed = 0, uses_anonymous_args = 0
 3005              		@ link register save eliminated.
1192:Drivers/STM32F7xx_HAL_Driver/Src/stm32f7xx_ll_usb.c ****   uint32_t tmpreg;
 3006              		.loc 1 1192 3 view .LVU953
1193:Drivers/STM32F7xx_HAL_Driver/Src/stm32f7xx_ll_usb.c **** 
 3007              		.loc 1 1193 3 view .LVU954
1195:Drivers/STM32F7xx_HAL_Driver/Src/stm32f7xx_ll_usb.c ****   tmpreg &= USBx_DEVICE->DAINTMSK;
 3008              		.loc 1 1195 3 view .LVU955
1195:Drivers/STM32F7xx_HAL_Driver/Src/stm32f7xx_ll_usb.c ****   tmpreg &= USBx_DEVICE->DAINTMSK;
 3009              		.loc 1 1195 11 is_stmt 0 view .LVU956
 3010 0000 D0F81838 		ldr	r3, [r0, #2072]
1195:Drivers/STM32F7xx_HAL_Driver/Src/stm32f7xx_ll_usb.c ****   tmpreg &= USBx_DEVICE->DAINTMSK;
 3011              		.loc 1 1195 13 view .LVU957
 3012 0004 00F50060 		add	r0, r0, #2048
 3013              	.LVL264:
1196:Drivers/STM32F7xx_HAL_Driver/Src/stm32f7xx_ll_usb.c **** 
 3014              		.loc 1 1196 3 is_stmt 1 view .LVU958
1196:Drivers/STM32F7xx_HAL_Driver/Src/stm32f7xx_ll_usb.c **** 
 3015              		.loc 1 1196 24 is_stmt 0 view .LVU959
 3016 0008 C069     		ldr	r0, [r0, #28]
 3017              	.LVL265:
1196:Drivers/STM32F7xx_HAL_Driver/Src/stm32f7xx_ll_usb.c **** 
 3018              		.loc 1 1196 10 view .LVU960
 3019 000a 1840     		ands	r0, r0, r3
 3020              	.LVL266:
1198:Drivers/STM32F7xx_HAL_Driver/Src/stm32f7xx_ll_usb.c **** }
 3021              		.loc 1 1198 3 is_stmt 1 view .LVU961
1199:Drivers/STM32F7xx_HAL_Driver/Src/stm32f7xx_ll_usb.c **** 
 3022              		.loc 1 1199 1 is_stmt 0 view .LVU962
 3023 000c 000C     		lsrs	r0, r0, #16
 3024              	.LVL267:
1199:Drivers/STM32F7xx_HAL_Driver/Src/stm32f7xx_ll_usb.c **** 
 3025              		.loc 1 1199 1 view .LVU963
 3026 000e 7047     		bx	lr
 3027              		.cfi_endproc
 3028              	.LFE166:
 3030              		.section	.text.USB_ReadDevAllInEpInterrupt,"ax",%progbits
 3031              		.align	1
 3032              		.global	USB_ReadDevAllInEpInterrupt
 3033              		.syntax unified
 3034              		.thumb
 3035              		.thumb_func
 3036              		.fpu fpv5-d16
 3038              	USB_ReadDevAllInEpInterrupt:
 3039              	.LVL268:
 3040              	.LFB167:
1207:Drivers/STM32F7xx_HAL_Driver/Src/stm32f7xx_ll_usb.c ****   uint32_t USBx_BASE = (uint32_t)USBx;
 3041              		.loc 1 1207 1 is_stmt 1 view -0
 3042              		.cfi_startproc
 3043              		@ args = 0, pretend = 0, frame = 0
 3044              		@ frame_needed = 0, uses_anonymous_args = 0
 3045              		@ link register save eliminated.
1208:Drivers/STM32F7xx_HAL_Driver/Src/stm32f7xx_ll_usb.c ****   uint32_t tmpreg;
 3046              		.loc 1 1208 3 view .LVU965
ARM GAS  /tmp/cc8xco1Q.s 			page 94


1209:Drivers/STM32F7xx_HAL_Driver/Src/stm32f7xx_ll_usb.c **** 
 3047              		.loc 1 1209 3 view .LVU966
1211:Drivers/STM32F7xx_HAL_Driver/Src/stm32f7xx_ll_usb.c ****   tmpreg &= USBx_DEVICE->DAINTMSK;
 3048              		.loc 1 1211 3 view .LVU967
1211:Drivers/STM32F7xx_HAL_Driver/Src/stm32f7xx_ll_usb.c ****   tmpreg &= USBx_DEVICE->DAINTMSK;
 3049              		.loc 1 1211 11 is_stmt 0 view .LVU968
 3050 0000 D0F81838 		ldr	r3, [r0, #2072]
1211:Drivers/STM32F7xx_HAL_Driver/Src/stm32f7xx_ll_usb.c ****   tmpreg &= USBx_DEVICE->DAINTMSK;
 3051              		.loc 1 1211 13 view .LVU969
 3052 0004 00F50060 		add	r0, r0, #2048
 3053              	.LVL269:
1212:Drivers/STM32F7xx_HAL_Driver/Src/stm32f7xx_ll_usb.c **** 
 3054              		.loc 1 1212 3 is_stmt 1 view .LVU970
1212:Drivers/STM32F7xx_HAL_Driver/Src/stm32f7xx_ll_usb.c **** 
 3055              		.loc 1 1212 24 is_stmt 0 view .LVU971
 3056 0008 C069     		ldr	r0, [r0, #28]
 3057              	.LVL270:
1212:Drivers/STM32F7xx_HAL_Driver/Src/stm32f7xx_ll_usb.c **** 
 3058              		.loc 1 1212 10 view .LVU972
 3059 000a 1840     		ands	r0, r0, r3
 3060              	.LVL271:
1214:Drivers/STM32F7xx_HAL_Driver/Src/stm32f7xx_ll_usb.c **** }
 3061              		.loc 1 1214 3 is_stmt 1 view .LVU973
1215:Drivers/STM32F7xx_HAL_Driver/Src/stm32f7xx_ll_usb.c **** 
 3062              		.loc 1 1215 1 is_stmt 0 view .LVU974
 3063 000c 80B2     		uxth	r0, r0
 3064              	.LVL272:
1215:Drivers/STM32F7xx_HAL_Driver/Src/stm32f7xx_ll_usb.c **** 
 3065              		.loc 1 1215 1 view .LVU975
 3066 000e 7047     		bx	lr
 3067              		.cfi_endproc
 3068              	.LFE167:
 3070              		.section	.text.USB_ReadDevOutEPInterrupt,"ax",%progbits
 3071              		.align	1
 3072              		.global	USB_ReadDevOutEPInterrupt
 3073              		.syntax unified
 3074              		.thumb
 3075              		.thumb_func
 3076              		.fpu fpv5-d16
 3078              	USB_ReadDevOutEPInterrupt:
 3079              	.LVL273:
 3080              	.LFB168:
1225:Drivers/STM32F7xx_HAL_Driver/Src/stm32f7xx_ll_usb.c ****   uint32_t USBx_BASE = (uint32_t)USBx;
 3081              		.loc 1 1225 1 is_stmt 1 view -0
 3082              		.cfi_startproc
 3083              		@ args = 0, pretend = 0, frame = 0
 3084              		@ frame_needed = 0, uses_anonymous_args = 0
 3085              		@ link register save eliminated.
1226:Drivers/STM32F7xx_HAL_Driver/Src/stm32f7xx_ll_usb.c ****   uint32_t tmpreg;
 3086              		.loc 1 1226 3 view .LVU977
1227:Drivers/STM32F7xx_HAL_Driver/Src/stm32f7xx_ll_usb.c **** 
 3087              		.loc 1 1227 3 view .LVU978
1229:Drivers/STM32F7xx_HAL_Driver/Src/stm32f7xx_ll_usb.c ****   tmpreg &= USBx_DEVICE->DOEPMSK;
 3088              		.loc 1 1229 3 view .LVU979
1229:Drivers/STM32F7xx_HAL_Driver/Src/stm32f7xx_ll_usb.c ****   tmpreg &= USBx_DEVICE->DOEPMSK;
 3089              		.loc 1 1229 13 is_stmt 0 view .LVU980
 3090 0000 00EB4111 		add	r1, r0, r1, lsl #5
ARM GAS  /tmp/cc8xco1Q.s 			page 95


 3091              	.LVL274:
1229:Drivers/STM32F7xx_HAL_Driver/Src/stm32f7xx_ll_usb.c ****   tmpreg &= USBx_DEVICE->DOEPMSK;
 3092              		.loc 1 1229 11 view .LVU981
 3093 0004 D1F8082B 		ldr	r2, [r1, #2824]
 3094              	.LVL275:
1230:Drivers/STM32F7xx_HAL_Driver/Src/stm32f7xx_ll_usb.c **** 
 3095              		.loc 1 1230 3 is_stmt 1 view .LVU982
1230:Drivers/STM32F7xx_HAL_Driver/Src/stm32f7xx_ll_usb.c **** 
 3096              		.loc 1 1230 13 is_stmt 0 view .LVU983
 3097 0008 00F50060 		add	r0, r0, #2048
 3098              	.LVL276:
1230:Drivers/STM32F7xx_HAL_Driver/Src/stm32f7xx_ll_usb.c **** 
 3099              		.loc 1 1230 24 view .LVU984
 3100 000c 4069     		ldr	r0, [r0, #20]
 3101              	.LVL277:
1232:Drivers/STM32F7xx_HAL_Driver/Src/stm32f7xx_ll_usb.c **** }
 3102              		.loc 1 1232 3 is_stmt 1 view .LVU985
1233:Drivers/STM32F7xx_HAL_Driver/Src/stm32f7xx_ll_usb.c **** 
 3103              		.loc 1 1233 1 is_stmt 0 view .LVU986
 3104 000e 1040     		ands	r0, r0, r2
 3105              	.LVL278:
1233:Drivers/STM32F7xx_HAL_Driver/Src/stm32f7xx_ll_usb.c **** 
 3106              		.loc 1 1233 1 view .LVU987
 3107 0010 7047     		bx	lr
 3108              		.cfi_endproc
 3109              	.LFE168:
 3111              		.section	.text.USB_ReadDevInEPInterrupt,"ax",%progbits
 3112              		.align	1
 3113              		.global	USB_ReadDevInEPInterrupt
 3114              		.syntax unified
 3115              		.thumb
 3116              		.thumb_func
 3117              		.fpu fpv5-d16
 3119              	USB_ReadDevInEPInterrupt:
 3120              	.LVL279:
 3121              	.LFB169:
1243:Drivers/STM32F7xx_HAL_Driver/Src/stm32f7xx_ll_usb.c ****   uint32_t USBx_BASE = (uint32_t)USBx;
 3122              		.loc 1 1243 1 is_stmt 1 view -0
 3123              		.cfi_startproc
 3124              		@ args = 0, pretend = 0, frame = 0
 3125              		@ frame_needed = 0, uses_anonymous_args = 0
 3126              		@ link register save eliminated.
1243:Drivers/STM32F7xx_HAL_Driver/Src/stm32f7xx_ll_usb.c ****   uint32_t USBx_BASE = (uint32_t)USBx;
 3127              		.loc 1 1243 1 is_stmt 0 view .LVU989
 3128 0000 10B4     		push	{r4}
 3129              	.LCFI29:
 3130              		.cfi_def_cfa_offset 4
 3131              		.cfi_offset 4, -4
1244:Drivers/STM32F7xx_HAL_Driver/Src/stm32f7xx_ll_usb.c ****   uint32_t tmpreg, msk, emp;
 3132              		.loc 1 1244 3 is_stmt 1 view .LVU990
 3133              	.LVL280:
1245:Drivers/STM32F7xx_HAL_Driver/Src/stm32f7xx_ll_usb.c **** 
 3134              		.loc 1 1245 3 view .LVU991
1247:Drivers/STM32F7xx_HAL_Driver/Src/stm32f7xx_ll_usb.c ****   emp = USBx_DEVICE->DIEPEMPMSK;
 3135              		.loc 1 1247 3 view .LVU992
1247:Drivers/STM32F7xx_HAL_Driver/Src/stm32f7xx_ll_usb.c ****   emp = USBx_DEVICE->DIEPEMPMSK;
 3136              		.loc 1 1247 7 is_stmt 0 view .LVU993
ARM GAS  /tmp/cc8xco1Q.s 			page 96


 3137 0002 D0F81048 		ldr	r4, [r0, #2064]
 3138              	.LVL281:
1248:Drivers/STM32F7xx_HAL_Driver/Src/stm32f7xx_ll_usb.c ****   msk |= ((emp >> (epnum & EP_ADDR_MSK)) & 0x1U) << 7;
 3139              		.loc 1 1248 3 is_stmt 1 view .LVU994
1248:Drivers/STM32F7xx_HAL_Driver/Src/stm32f7xx_ll_usb.c ****   msk |= ((emp >> (epnum & EP_ADDR_MSK)) & 0x1U) << 7;
 3140              		.loc 1 1248 7 is_stmt 0 view .LVU995
 3141 0006 D0F83438 		ldr	r3, [r0, #2100]
 3142              	.LVL282:
1249:Drivers/STM32F7xx_HAL_Driver/Src/stm32f7xx_ll_usb.c ****   tmpreg = USBx_INEP((uint32_t)epnum)->DIEPINT & msk;
 3143              		.loc 1 1249 3 is_stmt 1 view .LVU996
1249:Drivers/STM32F7xx_HAL_Driver/Src/stm32f7xx_ll_usb.c ****   tmpreg = USBx_INEP((uint32_t)epnum)->DIEPINT & msk;
 3144              		.loc 1 1249 26 is_stmt 0 view .LVU997
 3145 000a 01F00F02 		and	r2, r1, #15
1249:Drivers/STM32F7xx_HAL_Driver/Src/stm32f7xx_ll_usb.c ****   tmpreg = USBx_INEP((uint32_t)epnum)->DIEPINT & msk;
 3146              		.loc 1 1249 16 view .LVU998
 3147 000e D340     		lsrs	r3, r3, r2
 3148              	.LVL283:
1249:Drivers/STM32F7xx_HAL_Driver/Src/stm32f7xx_ll_usb.c ****   tmpreg = USBx_INEP((uint32_t)epnum)->DIEPINT & msk;
 3149              		.loc 1 1249 50 view .LVU999
 3150 0010 DB01     		lsls	r3, r3, #7
 3151 0012 DBB2     		uxtb	r3, r3
1249:Drivers/STM32F7xx_HAL_Driver/Src/stm32f7xx_ll_usb.c ****   tmpreg = USBx_INEP((uint32_t)epnum)->DIEPINT & msk;
 3152              		.loc 1 1249 7 view .LVU1000
 3153 0014 2343     		orrs	r3, r3, r4
 3154              	.LVL284:
1250:Drivers/STM32F7xx_HAL_Driver/Src/stm32f7xx_ll_usb.c **** 
 3155              		.loc 1 1250 3 is_stmt 1 view .LVU1001
1250:Drivers/STM32F7xx_HAL_Driver/Src/stm32f7xx_ll_usb.c **** 
 3156              		.loc 1 1250 12 is_stmt 0 view .LVU1002
 3157 0016 00EB4110 		add	r0, r0, r1, lsl #5
 3158              	.LVL285:
1250:Drivers/STM32F7xx_HAL_Driver/Src/stm32f7xx_ll_usb.c **** 
 3159              		.loc 1 1250 12 view .LVU1003
 3160 001a 00F51060 		add	r0, r0, #2304
1250:Drivers/STM32F7xx_HAL_Driver/Src/stm32f7xx_ll_usb.c **** 
 3161              		.loc 1 1250 38 view .LVU1004
 3162 001e 8068     		ldr	r0, [r0, #8]
 3163              	.LVL286:
1252:Drivers/STM32F7xx_HAL_Driver/Src/stm32f7xx_ll_usb.c **** }
 3164              		.loc 1 1252 3 is_stmt 1 view .LVU1005
1253:Drivers/STM32F7xx_HAL_Driver/Src/stm32f7xx_ll_usb.c **** 
 3165              		.loc 1 1253 1 is_stmt 0 view .LVU1006
 3166 0020 1840     		ands	r0, r0, r3
 3167              	.LVL287:
1253:Drivers/STM32F7xx_HAL_Driver/Src/stm32f7xx_ll_usb.c **** 
 3168              		.loc 1 1253 1 view .LVU1007
 3169 0022 5DF8044B 		ldr	r4, [sp], #4
 3170              	.LCFI30:
 3171              		.cfi_restore 4
 3172              		.cfi_def_cfa_offset 0
 3173 0026 7047     		bx	lr
 3174              		.cfi_endproc
 3175              	.LFE169:
 3177              		.section	.text.USB_ClearInterrupts,"ax",%progbits
 3178              		.align	1
 3179              		.global	USB_ClearInterrupts
 3180              		.syntax unified
ARM GAS  /tmp/cc8xco1Q.s 			page 97


 3181              		.thumb
 3182              		.thumb_func
 3183              		.fpu fpv5-d16
 3185              	USB_ClearInterrupts:
 3186              	.LVL288:
 3187              	.LFB170:
1262:Drivers/STM32F7xx_HAL_Driver/Src/stm32f7xx_ll_usb.c ****   USBx->GINTSTS |= interrupt;
 3188              		.loc 1 1262 1 is_stmt 1 view -0
 3189              		.cfi_startproc
 3190              		@ args = 0, pretend = 0, frame = 0
 3191              		@ frame_needed = 0, uses_anonymous_args = 0
 3192              		@ link register save eliminated.
1263:Drivers/STM32F7xx_HAL_Driver/Src/stm32f7xx_ll_usb.c **** }
 3193              		.loc 1 1263 3 view .LVU1009
1263:Drivers/STM32F7xx_HAL_Driver/Src/stm32f7xx_ll_usb.c **** }
 3194              		.loc 1 1263 17 is_stmt 0 view .LVU1010
 3195 0000 4369     		ldr	r3, [r0, #20]
 3196 0002 0B43     		orrs	r3, r3, r1
 3197 0004 4361     		str	r3, [r0, #20]
1264:Drivers/STM32F7xx_HAL_Driver/Src/stm32f7xx_ll_usb.c **** 
 3198              		.loc 1 1264 1 view .LVU1011
 3199 0006 7047     		bx	lr
 3200              		.cfi_endproc
 3201              	.LFE170:
 3203              		.section	.text.USB_GetMode,"ax",%progbits
 3204              		.align	1
 3205              		.global	USB_GetMode
 3206              		.syntax unified
 3207              		.thumb
 3208              		.thumb_func
 3209              		.fpu fpv5-d16
 3211              	USB_GetMode:
 3212              	.LVL289:
 3213              	.LFB171:
1275:Drivers/STM32F7xx_HAL_Driver/Src/stm32f7xx_ll_usb.c ****   return ((USBx->GINTSTS) & 0x1U);
 3214              		.loc 1 1275 1 is_stmt 1 view -0
 3215              		.cfi_startproc
 3216              		@ args = 0, pretend = 0, frame = 0
 3217              		@ frame_needed = 0, uses_anonymous_args = 0
 3218              		@ link register save eliminated.
1276:Drivers/STM32F7xx_HAL_Driver/Src/stm32f7xx_ll_usb.c **** }
 3219              		.loc 1 1276 3 view .LVU1013
1276:Drivers/STM32F7xx_HAL_Driver/Src/stm32f7xx_ll_usb.c **** }
 3220              		.loc 1 1276 16 is_stmt 0 view .LVU1014
 3221 0000 4069     		ldr	r0, [r0, #20]
 3222              	.LVL290:
1277:Drivers/STM32F7xx_HAL_Driver/Src/stm32f7xx_ll_usb.c **** 
 3223              		.loc 1 1277 1 view .LVU1015
 3224 0002 00F00100 		and	r0, r0, #1
 3225 0006 7047     		bx	lr
 3226              		.cfi_endproc
 3227              	.LFE171:
 3229              		.section	.text.USB_ActivateSetup,"ax",%progbits
 3230              		.align	1
 3231              		.global	USB_ActivateSetup
 3232              		.syntax unified
 3233              		.thumb
ARM GAS  /tmp/cc8xco1Q.s 			page 98


 3234              		.thumb_func
 3235              		.fpu fpv5-d16
 3237              	USB_ActivateSetup:
 3238              	.LVL291:
 3239              	.LFB172:
1285:Drivers/STM32F7xx_HAL_Driver/Src/stm32f7xx_ll_usb.c ****   uint32_t USBx_BASE = (uint32_t)USBx;
 3240              		.loc 1 1285 1 is_stmt 1 view -0
 3241              		.cfi_startproc
 3242              		@ args = 0, pretend = 0, frame = 0
 3243              		@ frame_needed = 0, uses_anonymous_args = 0
 3244              		@ link register save eliminated.
1286:Drivers/STM32F7xx_HAL_Driver/Src/stm32f7xx_ll_usb.c **** 
 3245              		.loc 1 1286 3 view .LVU1017
1289:Drivers/STM32F7xx_HAL_Driver/Src/stm32f7xx_ll_usb.c **** 
 3246              		.loc 1 1289 3 view .LVU1018
1289:Drivers/STM32F7xx_HAL_Driver/Src/stm32f7xx_ll_usb.c **** 
 3247              		.loc 1 1289 26 is_stmt 0 view .LVU1019
 3248 0000 D0F80029 		ldr	r2, [r0, #2304]
 3249 0004 054B     		ldr	r3, .L212
 3250 0006 1340     		ands	r3, r3, r2
 3251 0008 C0F80039 		str	r3, [r0, #2304]
1291:Drivers/STM32F7xx_HAL_Driver/Src/stm32f7xx_ll_usb.c **** 
 3252              		.loc 1 1291 3 is_stmt 1 view .LVU1020
1291:Drivers/STM32F7xx_HAL_Driver/Src/stm32f7xx_ll_usb.c **** 
 3253              		.loc 1 1291 21 is_stmt 0 view .LVU1021
 3254 000c D0F80438 		ldr	r3, [r0, #2052]
 3255 0010 43F48073 		orr	r3, r3, #256
 3256 0014 C0F80438 		str	r3, [r0, #2052]
1293:Drivers/STM32F7xx_HAL_Driver/Src/stm32f7xx_ll_usb.c **** }
 3257              		.loc 1 1293 3 is_stmt 1 view .LVU1022
1294:Drivers/STM32F7xx_HAL_Driver/Src/stm32f7xx_ll_usb.c **** 
 3258              		.loc 1 1294 1 is_stmt 0 view .LVU1023
 3259 0018 0020     		movs	r0, #0
 3260              	.LVL292:
1294:Drivers/STM32F7xx_HAL_Driver/Src/stm32f7xx_ll_usb.c **** 
 3261              		.loc 1 1294 1 view .LVU1024
 3262 001a 7047     		bx	lr
 3263              	.L213:
 3264              		.align	2
 3265              	.L212:
 3266 001c 00F8FFFF 		.word	-2048
 3267              		.cfi_endproc
 3268              	.LFE172:
 3270              		.section	.text.USB_EP0_OutStart,"ax",%progbits
 3271              		.align	1
 3272              		.global	USB_EP0_OutStart
 3273              		.syntax unified
 3274              		.thumb
 3275              		.thumb_func
 3276              		.fpu fpv5-d16
 3278              	USB_EP0_OutStart:
 3279              	.LVL293:
 3280              	.LFB173:
1307:Drivers/STM32F7xx_HAL_Driver/Src/stm32f7xx_ll_usb.c ****   uint32_t USBx_BASE = (uint32_t)USBx;
 3281              		.loc 1 1307 1 is_stmt 1 view -0
 3282              		.cfi_startproc
 3283              		@ args = 0, pretend = 0, frame = 0
ARM GAS  /tmp/cc8xco1Q.s 			page 99


 3284              		@ frame_needed = 0, uses_anonymous_args = 0
 3285              		@ link register save eliminated.
1307:Drivers/STM32F7xx_HAL_Driver/Src/stm32f7xx_ll_usb.c ****   uint32_t USBx_BASE = (uint32_t)USBx;
 3286              		.loc 1 1307 1 is_stmt 0 view .LVU1026
 3287 0000 10B4     		push	{r4}
 3288              	.LCFI31:
 3289              		.cfi_def_cfa_offset 4
 3290              		.cfi_offset 4, -4
1308:Drivers/STM32F7xx_HAL_Driver/Src/stm32f7xx_ll_usb.c ****   uint32_t gSNPSiD = *(__IO uint32_t *)(&USBx->CID + 0x1U);
 3291              		.loc 1 1308 3 is_stmt 1 view .LVU1027
 3292              	.LVL294:
1309:Drivers/STM32F7xx_HAL_Driver/Src/stm32f7xx_ll_usb.c **** 
 3293              		.loc 1 1309 3 view .LVU1028
1309:Drivers/STM32F7xx_HAL_Driver/Src/stm32f7xx_ll_usb.c **** 
 3294              		.loc 1 1309 12 is_stmt 0 view .LVU1029
 3295 0002 046C     		ldr	r4, [r0, #64]
 3296              	.LVL295:
1311:Drivers/STM32F7xx_HAL_Driver/Src/stm32f7xx_ll_usb.c ****   {
 3297              		.loc 1 1311 3 is_stmt 1 view .LVU1030
1311:Drivers/STM32F7xx_HAL_Driver/Src/stm32f7xx_ll_usb.c ****   {
 3298              		.loc 1 1311 6 is_stmt 0 view .LVU1031
 3299 0004 154B     		ldr	r3, .L219
 3300 0006 9C42     		cmp	r4, r3
 3301 0008 03D9     		bls	.L215
1313:Drivers/STM32F7xx_HAL_Driver/Src/stm32f7xx_ll_usb.c ****     {
 3302              		.loc 1 1313 5 is_stmt 1 view .LVU1032
1313:Drivers/STM32F7xx_HAL_Driver/Src/stm32f7xx_ll_usb.c ****     {
 3303              		.loc 1 1313 24 is_stmt 0 view .LVU1033
 3304 000a D0F8003B 		ldr	r3, [r0, #2816]
1313:Drivers/STM32F7xx_HAL_Driver/Src/stm32f7xx_ll_usb.c ****     {
 3305              		.loc 1 1313 8 view .LVU1034
 3306 000e 002B     		cmp	r3, #0
 3307 0010 16DB     		blt	.L216
 3308              	.L215:
1319:Drivers/STM32F7xx_HAL_Driver/Src/stm32f7xx_ll_usb.c ****   USBx_OUTEP(0U)->DOEPTSIZ |= (USB_OTG_DOEPTSIZ_PKTCNT & (1U << 19));
 3309              		.loc 1 1319 3 is_stmt 1 view .LVU1035
1319:Drivers/STM32F7xx_HAL_Driver/Src/stm32f7xx_ll_usb.c ****   USBx_OUTEP(0U)->DOEPTSIZ |= (USB_OTG_DOEPTSIZ_PKTCNT & (1U << 19));
 3310              		.loc 1 1319 28 is_stmt 0 view .LVU1036
 3311 0012 0024     		movs	r4, #0
 3312              	.LVL296:
1319:Drivers/STM32F7xx_HAL_Driver/Src/stm32f7xx_ll_usb.c ****   USBx_OUTEP(0U)->DOEPTSIZ |= (USB_OTG_DOEPTSIZ_PKTCNT & (1U << 19));
 3313              		.loc 1 1319 28 view .LVU1037
 3314 0014 C0F8104B 		str	r4, [r0, #2832]
1320:Drivers/STM32F7xx_HAL_Driver/Src/stm32f7xx_ll_usb.c ****   USBx_OUTEP(0U)->DOEPTSIZ |= (3U * 8U);
 3315              		.loc 1 1320 3 is_stmt 1 view .LVU1038
1320:Drivers/STM32F7xx_HAL_Driver/Src/stm32f7xx_ll_usb.c ****   USBx_OUTEP(0U)->DOEPTSIZ |= (3U * 8U);
 3316              		.loc 1 1320 28 is_stmt 0 view .LVU1039
 3317 0018 D0F8104B 		ldr	r4, [r0, #2832]
 3318 001c 44F40024 		orr	r4, r4, #524288
 3319 0020 C0F8104B 		str	r4, [r0, #2832]
1321:Drivers/STM32F7xx_HAL_Driver/Src/stm32f7xx_ll_usb.c ****   USBx_OUTEP(0U)->DOEPTSIZ |=  USB_OTG_DOEPTSIZ_STUPCNT;
 3320              		.loc 1 1321 3 is_stmt 1 view .LVU1040
1321:Drivers/STM32F7xx_HAL_Driver/Src/stm32f7xx_ll_usb.c ****   USBx_OUTEP(0U)->DOEPTSIZ |=  USB_OTG_DOEPTSIZ_STUPCNT;
 3321              		.loc 1 1321 28 is_stmt 0 view .LVU1041
 3322 0024 D0F8104B 		ldr	r4, [r0, #2832]
 3323 0028 44F01804 		orr	r4, r4, #24
 3324 002c C0F8104B 		str	r4, [r0, #2832]
ARM GAS  /tmp/cc8xco1Q.s 			page 100


1322:Drivers/STM32F7xx_HAL_Driver/Src/stm32f7xx_ll_usb.c **** 
 3325              		.loc 1 1322 3 is_stmt 1 view .LVU1042
1322:Drivers/STM32F7xx_HAL_Driver/Src/stm32f7xx_ll_usb.c **** 
 3326              		.loc 1 1322 28 is_stmt 0 view .LVU1043
 3327 0030 D0F8104B 		ldr	r4, [r0, #2832]
 3328 0034 44F0C044 		orr	r4, r4, #1610612736
 3329 0038 C0F8104B 		str	r4, [r0, #2832]
1324:Drivers/STM32F7xx_HAL_Driver/Src/stm32f7xx_ll_usb.c ****   {
 3330              		.loc 1 1324 3 is_stmt 1 view .LVU1044
1324:Drivers/STM32F7xx_HAL_Driver/Src/stm32f7xx_ll_usb.c ****   {
 3331              		.loc 1 1324 6 is_stmt 0 view .LVU1045
 3332 003c 0129     		cmp	r1, #1
 3333 003e 03D0     		beq	.L218
 3334              	.L216:
1332:Drivers/STM32F7xx_HAL_Driver/Src/stm32f7xx_ll_usb.c **** 
 3335              		.loc 1 1332 1 view .LVU1046
 3336 0040 0020     		movs	r0, #0
 3337              	.LVL297:
1332:Drivers/STM32F7xx_HAL_Driver/Src/stm32f7xx_ll_usb.c **** 
 3338              		.loc 1 1332 1 view .LVU1047
 3339 0042 5DF8044B 		ldr	r4, [sp], #4
 3340              	.LCFI32:
 3341              		.cfi_remember_state
 3342              		.cfi_restore 4
 3343              		.cfi_def_cfa_offset 0
 3344 0046 7047     		bx	lr
 3345              	.LVL298:
 3346              	.L218:
 3347              	.LCFI33:
 3348              		.cfi_restore_state
1326:Drivers/STM32F7xx_HAL_Driver/Src/stm32f7xx_ll_usb.c ****     /* EP enable */
 3349              		.loc 1 1326 5 is_stmt 1 view .LVU1048
1326:Drivers/STM32F7xx_HAL_Driver/Src/stm32f7xx_ll_usb.c ****     /* EP enable */
 3350              		.loc 1 1326 29 is_stmt 0 view .LVU1049
 3351 0048 C0F8142B 		str	r2, [r0, #2836]
1328:Drivers/STM32F7xx_HAL_Driver/Src/stm32f7xx_ll_usb.c ****   }
 3352              		.loc 1 1328 5 is_stmt 1 view .LVU1050
1328:Drivers/STM32F7xx_HAL_Driver/Src/stm32f7xx_ll_usb.c ****   }
 3353              		.loc 1 1328 29 is_stmt 0 view .LVU1051
 3354 004c D0F8003B 		ldr	r3, [r0, #2816]
 3355 0050 43F08023 		orr	r3, r3, #-2147450880
 3356 0054 C0F8003B 		str	r3, [r0, #2816]
 3357 0058 F2E7     		b	.L216
 3358              	.L220:
 3359 005a 00BF     		.align	2
 3360              	.L219:
 3361 005c 0A30544F 		.word	1330917386
 3362              		.cfi_endproc
 3363              	.LFE173:
 3365              		.section	.text.USB_InitFSLSPClkSel,"ax",%progbits
 3366              		.align	1
 3367              		.global	USB_InitFSLSPClkSel
 3368              		.syntax unified
 3369              		.thumb
 3370              		.thumb_func
 3371              		.fpu fpv5-d16
 3373              	USB_InitFSLSPClkSel:
ARM GAS  /tmp/cc8xco1Q.s 			page 101


 3374              	.LVL299:
 3375              	.LFB176:
1368:Drivers/STM32F7xx_HAL_Driver/Src/stm32f7xx_ll_usb.c **** 
1369:Drivers/STM32F7xx_HAL_Driver/Src/stm32f7xx_ll_usb.c **** #ifdef USB_HS_PHYC
1370:Drivers/STM32F7xx_HAL_Driver/Src/stm32f7xx_ll_usb.c **** /**
1371:Drivers/STM32F7xx_HAL_Driver/Src/stm32f7xx_ll_usb.c ****   * @brief  Enables control of a High Speed USB PHYs
1372:Drivers/STM32F7xx_HAL_Driver/Src/stm32f7xx_ll_usb.c ****   *         Init the low level hardware : GPIO, CLOCK, NVIC...
1373:Drivers/STM32F7xx_HAL_Driver/Src/stm32f7xx_ll_usb.c ****   * @param  USBx  Selected device
1374:Drivers/STM32F7xx_HAL_Driver/Src/stm32f7xx_ll_usb.c ****   * @retval HAL status
1375:Drivers/STM32F7xx_HAL_Driver/Src/stm32f7xx_ll_usb.c ****   */
1376:Drivers/STM32F7xx_HAL_Driver/Src/stm32f7xx_ll_usb.c **** static HAL_StatusTypeDef USB_HS_PHYCInit(USB_OTG_GlobalTypeDef *USBx)
1377:Drivers/STM32F7xx_HAL_Driver/Src/stm32f7xx_ll_usb.c **** {
1378:Drivers/STM32F7xx_HAL_Driver/Src/stm32f7xx_ll_usb.c ****   UNUSED(USBx);
1379:Drivers/STM32F7xx_HAL_Driver/Src/stm32f7xx_ll_usb.c ****   uint32_t count = 0U;
1380:Drivers/STM32F7xx_HAL_Driver/Src/stm32f7xx_ll_usb.c **** 
1381:Drivers/STM32F7xx_HAL_Driver/Src/stm32f7xx_ll_usb.c ****   /* Enable LDO */
1382:Drivers/STM32F7xx_HAL_Driver/Src/stm32f7xx_ll_usb.c ****   USB_HS_PHYC->USB_HS_PHYC_LDO |= USB_HS_PHYC_LDO_ENABLE;
1383:Drivers/STM32F7xx_HAL_Driver/Src/stm32f7xx_ll_usb.c **** 
1384:Drivers/STM32F7xx_HAL_Driver/Src/stm32f7xx_ll_usb.c ****   /* wait for LDO Ready */
1385:Drivers/STM32F7xx_HAL_Driver/Src/stm32f7xx_ll_usb.c ****   while ((USB_HS_PHYC->USB_HS_PHYC_LDO & USB_HS_PHYC_LDO_STATUS) == 0U)
1386:Drivers/STM32F7xx_HAL_Driver/Src/stm32f7xx_ll_usb.c ****   {
1387:Drivers/STM32F7xx_HAL_Driver/Src/stm32f7xx_ll_usb.c ****     if (++count > 200000U)
1388:Drivers/STM32F7xx_HAL_Driver/Src/stm32f7xx_ll_usb.c ****     {
1389:Drivers/STM32F7xx_HAL_Driver/Src/stm32f7xx_ll_usb.c ****       return HAL_TIMEOUT;
1390:Drivers/STM32F7xx_HAL_Driver/Src/stm32f7xx_ll_usb.c ****     }
1391:Drivers/STM32F7xx_HAL_Driver/Src/stm32f7xx_ll_usb.c ****   }
1392:Drivers/STM32F7xx_HAL_Driver/Src/stm32f7xx_ll_usb.c **** 
1393:Drivers/STM32F7xx_HAL_Driver/Src/stm32f7xx_ll_usb.c ****   /* Controls PHY frequency operation selection */
1394:Drivers/STM32F7xx_HAL_Driver/Src/stm32f7xx_ll_usb.c ****   if (HSE_VALUE == 12000000U) /* HSE = 12MHz */
1395:Drivers/STM32F7xx_HAL_Driver/Src/stm32f7xx_ll_usb.c ****   {
1396:Drivers/STM32F7xx_HAL_Driver/Src/stm32f7xx_ll_usb.c ****     USB_HS_PHYC->USB_HS_PHYC_PLL = (0x0U << 1);
1397:Drivers/STM32F7xx_HAL_Driver/Src/stm32f7xx_ll_usb.c ****   }
1398:Drivers/STM32F7xx_HAL_Driver/Src/stm32f7xx_ll_usb.c ****   else if (HSE_VALUE == 12500000U) /* HSE = 12.5MHz */
1399:Drivers/STM32F7xx_HAL_Driver/Src/stm32f7xx_ll_usb.c ****   {
1400:Drivers/STM32F7xx_HAL_Driver/Src/stm32f7xx_ll_usb.c ****     USB_HS_PHYC->USB_HS_PHYC_PLL = (0x2U << 1);
1401:Drivers/STM32F7xx_HAL_Driver/Src/stm32f7xx_ll_usb.c ****   }
1402:Drivers/STM32F7xx_HAL_Driver/Src/stm32f7xx_ll_usb.c ****   else if (HSE_VALUE == 16000000U) /* HSE = 16MHz */
1403:Drivers/STM32F7xx_HAL_Driver/Src/stm32f7xx_ll_usb.c ****   {
1404:Drivers/STM32F7xx_HAL_Driver/Src/stm32f7xx_ll_usb.c ****     USB_HS_PHYC->USB_HS_PHYC_PLL = (0x3U << 1);
1405:Drivers/STM32F7xx_HAL_Driver/Src/stm32f7xx_ll_usb.c ****   }
1406:Drivers/STM32F7xx_HAL_Driver/Src/stm32f7xx_ll_usb.c ****   else if (HSE_VALUE == 24000000U) /* HSE = 24MHz */
1407:Drivers/STM32F7xx_HAL_Driver/Src/stm32f7xx_ll_usb.c ****   {
1408:Drivers/STM32F7xx_HAL_Driver/Src/stm32f7xx_ll_usb.c ****     USB_HS_PHYC->USB_HS_PHYC_PLL = (0x4U << 1);
1409:Drivers/STM32F7xx_HAL_Driver/Src/stm32f7xx_ll_usb.c ****   }
1410:Drivers/STM32F7xx_HAL_Driver/Src/stm32f7xx_ll_usb.c ****   else if (HSE_VALUE == 25000000U) /* HSE = 25MHz */
1411:Drivers/STM32F7xx_HAL_Driver/Src/stm32f7xx_ll_usb.c ****   {
1412:Drivers/STM32F7xx_HAL_Driver/Src/stm32f7xx_ll_usb.c ****     USB_HS_PHYC->USB_HS_PHYC_PLL = (0x5U << 1);
1413:Drivers/STM32F7xx_HAL_Driver/Src/stm32f7xx_ll_usb.c ****   }
1414:Drivers/STM32F7xx_HAL_Driver/Src/stm32f7xx_ll_usb.c ****   else if (HSE_VALUE == 32000000U) /* HSE = 32MHz */
1415:Drivers/STM32F7xx_HAL_Driver/Src/stm32f7xx_ll_usb.c ****   {
1416:Drivers/STM32F7xx_HAL_Driver/Src/stm32f7xx_ll_usb.c ****     USB_HS_PHYC->USB_HS_PHYC_PLL = (0x7U << 1);
1417:Drivers/STM32F7xx_HAL_Driver/Src/stm32f7xx_ll_usb.c ****   }
1418:Drivers/STM32F7xx_HAL_Driver/Src/stm32f7xx_ll_usb.c ****   else
1419:Drivers/STM32F7xx_HAL_Driver/Src/stm32f7xx_ll_usb.c ****   {
1420:Drivers/STM32F7xx_HAL_Driver/Src/stm32f7xx_ll_usb.c ****     /* ... */
1421:Drivers/STM32F7xx_HAL_Driver/Src/stm32f7xx_ll_usb.c ****   }
1422:Drivers/STM32F7xx_HAL_Driver/Src/stm32f7xx_ll_usb.c **** 
ARM GAS  /tmp/cc8xco1Q.s 			page 102


1423:Drivers/STM32F7xx_HAL_Driver/Src/stm32f7xx_ll_usb.c ****   /* Control the tuning interface of the High Speed PHY */
1424:Drivers/STM32F7xx_HAL_Driver/Src/stm32f7xx_ll_usb.c ****   USB_HS_PHYC->USB_HS_PHYC_TUNE |= USB_HS_PHYC_TUNE_VALUE;
1425:Drivers/STM32F7xx_HAL_Driver/Src/stm32f7xx_ll_usb.c **** 
1426:Drivers/STM32F7xx_HAL_Driver/Src/stm32f7xx_ll_usb.c ****   /* Enable PLL internal PHY */
1427:Drivers/STM32F7xx_HAL_Driver/Src/stm32f7xx_ll_usb.c ****   USB_HS_PHYC->USB_HS_PHYC_PLL |= USB_HS_PHYC_PLL_PLLEN;
1428:Drivers/STM32F7xx_HAL_Driver/Src/stm32f7xx_ll_usb.c **** 
1429:Drivers/STM32F7xx_HAL_Driver/Src/stm32f7xx_ll_usb.c ****   /* 2ms Delay required to get internal phy clock stable */
1430:Drivers/STM32F7xx_HAL_Driver/Src/stm32f7xx_ll_usb.c ****   HAL_Delay(2U);
1431:Drivers/STM32F7xx_HAL_Driver/Src/stm32f7xx_ll_usb.c **** 
1432:Drivers/STM32F7xx_HAL_Driver/Src/stm32f7xx_ll_usb.c ****   return HAL_OK;
1433:Drivers/STM32F7xx_HAL_Driver/Src/stm32f7xx_ll_usb.c **** }
1434:Drivers/STM32F7xx_HAL_Driver/Src/stm32f7xx_ll_usb.c **** 
1435:Drivers/STM32F7xx_HAL_Driver/Src/stm32f7xx_ll_usb.c **** #endif /* USB_HS_PHYC */
1436:Drivers/STM32F7xx_HAL_Driver/Src/stm32f7xx_ll_usb.c **** /**
1437:Drivers/STM32F7xx_HAL_Driver/Src/stm32f7xx_ll_usb.c ****   * @brief  USB_HostInit : Initializes the USB OTG controller registers
1438:Drivers/STM32F7xx_HAL_Driver/Src/stm32f7xx_ll_usb.c ****   *         for Host mode
1439:Drivers/STM32F7xx_HAL_Driver/Src/stm32f7xx_ll_usb.c ****   * @param  USBx  Selected device
1440:Drivers/STM32F7xx_HAL_Driver/Src/stm32f7xx_ll_usb.c ****   * @param  cfg   pointer to a USB_OTG_CfgTypeDef structure that contains
1441:Drivers/STM32F7xx_HAL_Driver/Src/stm32f7xx_ll_usb.c ****   *         the configuration information for the specified USBx peripheral.
1442:Drivers/STM32F7xx_HAL_Driver/Src/stm32f7xx_ll_usb.c ****   * @retval HAL status
1443:Drivers/STM32F7xx_HAL_Driver/Src/stm32f7xx_ll_usb.c ****   */
1444:Drivers/STM32F7xx_HAL_Driver/Src/stm32f7xx_ll_usb.c **** HAL_StatusTypeDef USB_HostInit(USB_OTG_GlobalTypeDef *USBx, USB_OTG_CfgTypeDef cfg)
1445:Drivers/STM32F7xx_HAL_Driver/Src/stm32f7xx_ll_usb.c **** {
1446:Drivers/STM32F7xx_HAL_Driver/Src/stm32f7xx_ll_usb.c ****   uint32_t USBx_BASE = (uint32_t)USBx;
1447:Drivers/STM32F7xx_HAL_Driver/Src/stm32f7xx_ll_usb.c ****   uint32_t i;
1448:Drivers/STM32F7xx_HAL_Driver/Src/stm32f7xx_ll_usb.c **** 
1449:Drivers/STM32F7xx_HAL_Driver/Src/stm32f7xx_ll_usb.c ****   /* Restart the Phy Clock */
1450:Drivers/STM32F7xx_HAL_Driver/Src/stm32f7xx_ll_usb.c ****   USBx_PCGCCTL = 0U;
1451:Drivers/STM32F7xx_HAL_Driver/Src/stm32f7xx_ll_usb.c **** 
1452:Drivers/STM32F7xx_HAL_Driver/Src/stm32f7xx_ll_usb.c ****   /* Disable VBUS sensing */
1453:Drivers/STM32F7xx_HAL_Driver/Src/stm32f7xx_ll_usb.c ****   USBx->GCCFG &= ~(USB_OTG_GCCFG_VBDEN);
1454:Drivers/STM32F7xx_HAL_Driver/Src/stm32f7xx_ll_usb.c **** 
1455:Drivers/STM32F7xx_HAL_Driver/Src/stm32f7xx_ll_usb.c ****   if ((USBx->CID & (0x1U << 8)) != 0U)
1456:Drivers/STM32F7xx_HAL_Driver/Src/stm32f7xx_ll_usb.c ****   {
1457:Drivers/STM32F7xx_HAL_Driver/Src/stm32f7xx_ll_usb.c ****     if (cfg.speed == USBH_FSLS_SPEED)
1458:Drivers/STM32F7xx_HAL_Driver/Src/stm32f7xx_ll_usb.c ****     {
1459:Drivers/STM32F7xx_HAL_Driver/Src/stm32f7xx_ll_usb.c ****       /* Force Device Enumeration to FS/LS mode only */
1460:Drivers/STM32F7xx_HAL_Driver/Src/stm32f7xx_ll_usb.c ****       USBx_HOST->HCFG |= USB_OTG_HCFG_FSLSS;
1461:Drivers/STM32F7xx_HAL_Driver/Src/stm32f7xx_ll_usb.c ****     }
1462:Drivers/STM32F7xx_HAL_Driver/Src/stm32f7xx_ll_usb.c ****     else
1463:Drivers/STM32F7xx_HAL_Driver/Src/stm32f7xx_ll_usb.c ****     {
1464:Drivers/STM32F7xx_HAL_Driver/Src/stm32f7xx_ll_usb.c ****       /* Set default Max speed support */
1465:Drivers/STM32F7xx_HAL_Driver/Src/stm32f7xx_ll_usb.c ****       USBx_HOST->HCFG &= ~(USB_OTG_HCFG_FSLSS);
1466:Drivers/STM32F7xx_HAL_Driver/Src/stm32f7xx_ll_usb.c ****     }
1467:Drivers/STM32F7xx_HAL_Driver/Src/stm32f7xx_ll_usb.c ****   }
1468:Drivers/STM32F7xx_HAL_Driver/Src/stm32f7xx_ll_usb.c ****   else
1469:Drivers/STM32F7xx_HAL_Driver/Src/stm32f7xx_ll_usb.c ****   {
1470:Drivers/STM32F7xx_HAL_Driver/Src/stm32f7xx_ll_usb.c ****     /* Set default Max speed support */
1471:Drivers/STM32F7xx_HAL_Driver/Src/stm32f7xx_ll_usb.c ****     USBx_HOST->HCFG &= ~(USB_OTG_HCFG_FSLSS);
1472:Drivers/STM32F7xx_HAL_Driver/Src/stm32f7xx_ll_usb.c ****   }
1473:Drivers/STM32F7xx_HAL_Driver/Src/stm32f7xx_ll_usb.c **** 
1474:Drivers/STM32F7xx_HAL_Driver/Src/stm32f7xx_ll_usb.c ****   /* Make sure the FIFOs are flushed. */
1475:Drivers/STM32F7xx_HAL_Driver/Src/stm32f7xx_ll_usb.c ****   (void)USB_FlushTxFifo(USBx, 0x10U); /* all Tx FIFOs */
1476:Drivers/STM32F7xx_HAL_Driver/Src/stm32f7xx_ll_usb.c ****   (void)USB_FlushRxFifo(USBx);
1477:Drivers/STM32F7xx_HAL_Driver/Src/stm32f7xx_ll_usb.c **** 
1478:Drivers/STM32F7xx_HAL_Driver/Src/stm32f7xx_ll_usb.c ****   /* Clear all pending HC Interrupts */
1479:Drivers/STM32F7xx_HAL_Driver/Src/stm32f7xx_ll_usb.c ****   for (i = 0U; i < cfg.Host_channels; i++)
ARM GAS  /tmp/cc8xco1Q.s 			page 103


1480:Drivers/STM32F7xx_HAL_Driver/Src/stm32f7xx_ll_usb.c ****   {
1481:Drivers/STM32F7xx_HAL_Driver/Src/stm32f7xx_ll_usb.c ****     USBx_HC(i)->HCINT = 0xFFFFFFFFU;
1482:Drivers/STM32F7xx_HAL_Driver/Src/stm32f7xx_ll_usb.c ****     USBx_HC(i)->HCINTMSK = 0U;
1483:Drivers/STM32F7xx_HAL_Driver/Src/stm32f7xx_ll_usb.c ****   }
1484:Drivers/STM32F7xx_HAL_Driver/Src/stm32f7xx_ll_usb.c **** 
1485:Drivers/STM32F7xx_HAL_Driver/Src/stm32f7xx_ll_usb.c ****   /* Enable VBUS driving */
1486:Drivers/STM32F7xx_HAL_Driver/Src/stm32f7xx_ll_usb.c ****   (void)USB_DriveVbus(USBx, 1U);
1487:Drivers/STM32F7xx_HAL_Driver/Src/stm32f7xx_ll_usb.c **** 
1488:Drivers/STM32F7xx_HAL_Driver/Src/stm32f7xx_ll_usb.c ****   HAL_Delay(200U);
1489:Drivers/STM32F7xx_HAL_Driver/Src/stm32f7xx_ll_usb.c **** 
1490:Drivers/STM32F7xx_HAL_Driver/Src/stm32f7xx_ll_usb.c ****   /* Disable all interrupts. */
1491:Drivers/STM32F7xx_HAL_Driver/Src/stm32f7xx_ll_usb.c ****   USBx->GINTMSK = 0U;
1492:Drivers/STM32F7xx_HAL_Driver/Src/stm32f7xx_ll_usb.c **** 
1493:Drivers/STM32F7xx_HAL_Driver/Src/stm32f7xx_ll_usb.c ****   /* Clear any pending interrupts */
1494:Drivers/STM32F7xx_HAL_Driver/Src/stm32f7xx_ll_usb.c ****   USBx->GINTSTS = 0xFFFFFFFFU;
1495:Drivers/STM32F7xx_HAL_Driver/Src/stm32f7xx_ll_usb.c **** 
1496:Drivers/STM32F7xx_HAL_Driver/Src/stm32f7xx_ll_usb.c ****   if ((USBx->CID & (0x1U << 8)) != 0U)
1497:Drivers/STM32F7xx_HAL_Driver/Src/stm32f7xx_ll_usb.c ****   {
1498:Drivers/STM32F7xx_HAL_Driver/Src/stm32f7xx_ll_usb.c ****     /* set Rx FIFO size */
1499:Drivers/STM32F7xx_HAL_Driver/Src/stm32f7xx_ll_usb.c ****     USBx->GRXFSIZ  = 0x200U;
1500:Drivers/STM32F7xx_HAL_Driver/Src/stm32f7xx_ll_usb.c ****     USBx->DIEPTXF0_HNPTXFSIZ = (uint32_t)(((0x100U << 16) & USB_OTG_NPTXFD) | 0x200U);
1501:Drivers/STM32F7xx_HAL_Driver/Src/stm32f7xx_ll_usb.c ****     USBx->HPTXFSIZ = (uint32_t)(((0xE0U << 16) & USB_OTG_HPTXFSIZ_PTXFD) | 0x300U);
1502:Drivers/STM32F7xx_HAL_Driver/Src/stm32f7xx_ll_usb.c ****   }
1503:Drivers/STM32F7xx_HAL_Driver/Src/stm32f7xx_ll_usb.c ****   else
1504:Drivers/STM32F7xx_HAL_Driver/Src/stm32f7xx_ll_usb.c ****   {
1505:Drivers/STM32F7xx_HAL_Driver/Src/stm32f7xx_ll_usb.c ****     /* set Rx FIFO size */
1506:Drivers/STM32F7xx_HAL_Driver/Src/stm32f7xx_ll_usb.c ****     USBx->GRXFSIZ  = 0x80U;
1507:Drivers/STM32F7xx_HAL_Driver/Src/stm32f7xx_ll_usb.c ****     USBx->DIEPTXF0_HNPTXFSIZ = (uint32_t)(((0x60U << 16) & USB_OTG_NPTXFD) | 0x80U);
1508:Drivers/STM32F7xx_HAL_Driver/Src/stm32f7xx_ll_usb.c ****     USBx->HPTXFSIZ = (uint32_t)(((0x40U << 16)& USB_OTG_HPTXFSIZ_PTXFD) | 0xE0U);
1509:Drivers/STM32F7xx_HAL_Driver/Src/stm32f7xx_ll_usb.c ****   }
1510:Drivers/STM32F7xx_HAL_Driver/Src/stm32f7xx_ll_usb.c **** 
1511:Drivers/STM32F7xx_HAL_Driver/Src/stm32f7xx_ll_usb.c ****   /* Enable the common interrupts */
1512:Drivers/STM32F7xx_HAL_Driver/Src/stm32f7xx_ll_usb.c ****   if (cfg.dma_enable == 0U)
1513:Drivers/STM32F7xx_HAL_Driver/Src/stm32f7xx_ll_usb.c ****   {
1514:Drivers/STM32F7xx_HAL_Driver/Src/stm32f7xx_ll_usb.c ****     USBx->GINTMSK |= USB_OTG_GINTMSK_RXFLVLM;
1515:Drivers/STM32F7xx_HAL_Driver/Src/stm32f7xx_ll_usb.c ****   }
1516:Drivers/STM32F7xx_HAL_Driver/Src/stm32f7xx_ll_usb.c **** 
1517:Drivers/STM32F7xx_HAL_Driver/Src/stm32f7xx_ll_usb.c ****   /* Enable interrupts matching to the Host mode ONLY */
1518:Drivers/STM32F7xx_HAL_Driver/Src/stm32f7xx_ll_usb.c ****   USBx->GINTMSK |= (USB_OTG_GINTMSK_PRTIM            | USB_OTG_GINTMSK_HCIM | \
1519:Drivers/STM32F7xx_HAL_Driver/Src/stm32f7xx_ll_usb.c ****                     USB_OTG_GINTMSK_SOFM             | USB_OTG_GINTSTS_DISCINT | \
1520:Drivers/STM32F7xx_HAL_Driver/Src/stm32f7xx_ll_usb.c ****                     USB_OTG_GINTMSK_PXFRM_IISOOXFRM  | USB_OTG_GINTMSK_WUIM);
1521:Drivers/STM32F7xx_HAL_Driver/Src/stm32f7xx_ll_usb.c **** 
1522:Drivers/STM32F7xx_HAL_Driver/Src/stm32f7xx_ll_usb.c ****   return HAL_OK;
1523:Drivers/STM32F7xx_HAL_Driver/Src/stm32f7xx_ll_usb.c **** }
1524:Drivers/STM32F7xx_HAL_Driver/Src/stm32f7xx_ll_usb.c **** 
1525:Drivers/STM32F7xx_HAL_Driver/Src/stm32f7xx_ll_usb.c **** /**
1526:Drivers/STM32F7xx_HAL_Driver/Src/stm32f7xx_ll_usb.c ****   * @brief  USB_InitFSLSPClkSel : Initializes the FSLSPClkSel field of the
1527:Drivers/STM32F7xx_HAL_Driver/Src/stm32f7xx_ll_usb.c ****   *         HCFG register on the PHY type and set the right frame interval
1528:Drivers/STM32F7xx_HAL_Driver/Src/stm32f7xx_ll_usb.c ****   * @param  USBx  Selected device
1529:Drivers/STM32F7xx_HAL_Driver/Src/stm32f7xx_ll_usb.c ****   * @param  freq  clock frequency
1530:Drivers/STM32F7xx_HAL_Driver/Src/stm32f7xx_ll_usb.c ****   *          This parameter can be one of these values:
1531:Drivers/STM32F7xx_HAL_Driver/Src/stm32f7xx_ll_usb.c ****   *           HCFG_48_MHZ : Full Speed 48 MHz Clock
1532:Drivers/STM32F7xx_HAL_Driver/Src/stm32f7xx_ll_usb.c ****   *           HCFG_6_MHZ : Low Speed 6 MHz Clock
1533:Drivers/STM32F7xx_HAL_Driver/Src/stm32f7xx_ll_usb.c ****   * @retval HAL status
1534:Drivers/STM32F7xx_HAL_Driver/Src/stm32f7xx_ll_usb.c ****   */
1535:Drivers/STM32F7xx_HAL_Driver/Src/stm32f7xx_ll_usb.c **** HAL_StatusTypeDef USB_InitFSLSPClkSel(USB_OTG_GlobalTypeDef *USBx, uint8_t freq)
1536:Drivers/STM32F7xx_HAL_Driver/Src/stm32f7xx_ll_usb.c **** {
ARM GAS  /tmp/cc8xco1Q.s 			page 104


 3376              		.loc 1 1536 1 is_stmt 1 view -0
 3377              		.cfi_startproc
 3378              		@ args = 0, pretend = 0, frame = 0
 3379              		@ frame_needed = 0, uses_anonymous_args = 0
 3380              		@ link register save eliminated.
1537:Drivers/STM32F7xx_HAL_Driver/Src/stm32f7xx_ll_usb.c ****   uint32_t USBx_BASE = (uint32_t)USBx;
 3381              		.loc 1 1537 3 view .LVU1053
1538:Drivers/STM32F7xx_HAL_Driver/Src/stm32f7xx_ll_usb.c **** 
1539:Drivers/STM32F7xx_HAL_Driver/Src/stm32f7xx_ll_usb.c ****   USBx_HOST->HCFG &= ~(USB_OTG_HCFG_FSLSPCS);
 3382              		.loc 1 1539 3 view .LVU1054
 3383              		.loc 1 1539 19 is_stmt 0 view .LVU1055
 3384 0000 00F5806C 		add	ip, r0, #1024
 3385 0004 D0F80034 		ldr	r3, [r0, #1024]
 3386 0008 23F00303 		bic	r3, r3, #3
 3387 000c C0F80034 		str	r3, [r0, #1024]
1540:Drivers/STM32F7xx_HAL_Driver/Src/stm32f7xx_ll_usb.c ****   USBx_HOST->HCFG |= (uint32_t)freq & USB_OTG_HCFG_FSLSPCS;
 3388              		.loc 1 1540 3 is_stmt 1 view .LVU1056
 3389              		.loc 1 1540 19 is_stmt 0 view .LVU1057
 3390 0010 D0F80034 		ldr	r3, [r0, #1024]
 3391              		.loc 1 1540 37 view .LVU1058
 3392 0014 01F00302 		and	r2, r1, #3
 3393              		.loc 1 1540 19 view .LVU1059
 3394 0018 1343     		orrs	r3, r3, r2
 3395 001a C0F80034 		str	r3, [r0, #1024]
1541:Drivers/STM32F7xx_HAL_Driver/Src/stm32f7xx_ll_usb.c **** 
1542:Drivers/STM32F7xx_HAL_Driver/Src/stm32f7xx_ll_usb.c ****   if (freq == HCFG_48_MHZ)
 3396              		.loc 1 1542 3 is_stmt 1 view .LVU1060
 3397              		.loc 1 1542 6 is_stmt 0 view .LVU1061
 3398 001e 0129     		cmp	r1, #1
 3399 0020 03D0     		beq	.L224
1543:Drivers/STM32F7xx_HAL_Driver/Src/stm32f7xx_ll_usb.c ****   {
1544:Drivers/STM32F7xx_HAL_Driver/Src/stm32f7xx_ll_usb.c ****     USBx_HOST->HFIR = 48000U;
1545:Drivers/STM32F7xx_HAL_Driver/Src/stm32f7xx_ll_usb.c ****   }
1546:Drivers/STM32F7xx_HAL_Driver/Src/stm32f7xx_ll_usb.c ****   else if (freq == HCFG_6_MHZ)
 3400              		.loc 1 1546 8 is_stmt 1 view .LVU1062
 3401              		.loc 1 1546 11 is_stmt 0 view .LVU1063
 3402 0022 0229     		cmp	r1, #2
 3403 0024 06D0     		beq	.L225
 3404              	.L223:
1547:Drivers/STM32F7xx_HAL_Driver/Src/stm32f7xx_ll_usb.c ****   {
1548:Drivers/STM32F7xx_HAL_Driver/Src/stm32f7xx_ll_usb.c ****     USBx_HOST->HFIR = 6000U;
1549:Drivers/STM32F7xx_HAL_Driver/Src/stm32f7xx_ll_usb.c ****   }
1550:Drivers/STM32F7xx_HAL_Driver/Src/stm32f7xx_ll_usb.c ****   else
1551:Drivers/STM32F7xx_HAL_Driver/Src/stm32f7xx_ll_usb.c ****   {
1552:Drivers/STM32F7xx_HAL_Driver/Src/stm32f7xx_ll_usb.c ****     /* ... */
1553:Drivers/STM32F7xx_HAL_Driver/Src/stm32f7xx_ll_usb.c ****   }
 3405              		.loc 1 1553 3 is_stmt 1 view .LVU1064
1554:Drivers/STM32F7xx_HAL_Driver/Src/stm32f7xx_ll_usb.c **** 
1555:Drivers/STM32F7xx_HAL_Driver/Src/stm32f7xx_ll_usb.c ****   return HAL_OK;
 3406              		.loc 1 1555 3 view .LVU1065
1556:Drivers/STM32F7xx_HAL_Driver/Src/stm32f7xx_ll_usb.c **** }
 3407              		.loc 1 1556 1 is_stmt 0 view .LVU1066
 3408 0026 0020     		movs	r0, #0
 3409              	.LVL300:
 3410              		.loc 1 1556 1 view .LVU1067
 3411 0028 7047     		bx	lr
 3412              	.LVL301:
ARM GAS  /tmp/cc8xco1Q.s 			page 105


 3413              	.L224:
1544:Drivers/STM32F7xx_HAL_Driver/Src/stm32f7xx_ll_usb.c ****   }
 3414              		.loc 1 1544 5 is_stmt 1 view .LVU1068
1544:Drivers/STM32F7xx_HAL_Driver/Src/stm32f7xx_ll_usb.c ****   }
 3415              		.loc 1 1544 21 is_stmt 0 view .LVU1069
 3416 002a 4BF68033 		movw	r3, #48000
 3417 002e CCF80430 		str	r3, [ip, #4]
 3418 0032 F8E7     		b	.L223
 3419              	.L225:
1548:Drivers/STM32F7xx_HAL_Driver/Src/stm32f7xx_ll_usb.c ****   }
 3420              		.loc 1 1548 5 is_stmt 1 view .LVU1070
1548:Drivers/STM32F7xx_HAL_Driver/Src/stm32f7xx_ll_usb.c ****   }
 3421              		.loc 1 1548 21 is_stmt 0 view .LVU1071
 3422 0034 41F27073 		movw	r3, #6000
 3423 0038 CCF80430 		str	r3, [ip, #4]
 3424 003c F3E7     		b	.L223
 3425              		.cfi_endproc
 3426              	.LFE176:
 3428              		.section	.text.USB_ResetPort,"ax",%progbits
 3429              		.align	1
 3430              		.global	USB_ResetPort
 3431              		.syntax unified
 3432              		.thumb
 3433              		.thumb_func
 3434              		.fpu fpv5-d16
 3436              	USB_ResetPort:
 3437              	.LVL302:
 3438              	.LFB177:
1557:Drivers/STM32F7xx_HAL_Driver/Src/stm32f7xx_ll_usb.c **** 
1558:Drivers/STM32F7xx_HAL_Driver/Src/stm32f7xx_ll_usb.c **** /**
1559:Drivers/STM32F7xx_HAL_Driver/Src/stm32f7xx_ll_usb.c **** * @brief  USB_OTG_ResetPort : Reset Host Port
1560:Drivers/STM32F7xx_HAL_Driver/Src/stm32f7xx_ll_usb.c ****   * @param  USBx  Selected device
1561:Drivers/STM32F7xx_HAL_Driver/Src/stm32f7xx_ll_usb.c ****   * @retval HAL status
1562:Drivers/STM32F7xx_HAL_Driver/Src/stm32f7xx_ll_usb.c ****   * @note (1)The application must wait at least 10 ms
1563:Drivers/STM32F7xx_HAL_Driver/Src/stm32f7xx_ll_usb.c ****   *   before clearing the reset bit.
1564:Drivers/STM32F7xx_HAL_Driver/Src/stm32f7xx_ll_usb.c ****   */
1565:Drivers/STM32F7xx_HAL_Driver/Src/stm32f7xx_ll_usb.c **** HAL_StatusTypeDef USB_ResetPort(USB_OTG_GlobalTypeDef *USBx)
1566:Drivers/STM32F7xx_HAL_Driver/Src/stm32f7xx_ll_usb.c **** {
 3439              		.loc 1 1566 1 is_stmt 1 view -0
 3440              		.cfi_startproc
 3441              		@ args = 0, pretend = 0, frame = 8
 3442              		@ frame_needed = 0, uses_anonymous_args = 0
 3443              		.loc 1 1566 1 is_stmt 0 view .LVU1073
 3444 0000 30B5     		push	{r4, r5, lr}
 3445              	.LCFI34:
 3446              		.cfi_def_cfa_offset 12
 3447              		.cfi_offset 4, -12
 3448              		.cfi_offset 5, -8
 3449              		.cfi_offset 14, -4
 3450 0002 83B0     		sub	sp, sp, #12
 3451              	.LCFI35:
 3452              		.cfi_def_cfa_offset 24
 3453 0004 0446     		mov	r4, r0
1567:Drivers/STM32F7xx_HAL_Driver/Src/stm32f7xx_ll_usb.c ****   uint32_t USBx_BASE = (uint32_t)USBx;
 3454              		.loc 1 1567 3 is_stmt 1 view .LVU1074
 3455              	.LVL303:
1568:Drivers/STM32F7xx_HAL_Driver/Src/stm32f7xx_ll_usb.c **** 
ARM GAS  /tmp/cc8xco1Q.s 			page 106


1569:Drivers/STM32F7xx_HAL_Driver/Src/stm32f7xx_ll_usb.c ****   __IO uint32_t hprt0 = 0U;
 3456              		.loc 1 1569 3 view .LVU1075
 3457              		.loc 1 1569 17 is_stmt 0 view .LVU1076
 3458 0006 0025     		movs	r5, #0
 3459 0008 0195     		str	r5, [sp, #4]
1570:Drivers/STM32F7xx_HAL_Driver/Src/stm32f7xx_ll_usb.c **** 
1571:Drivers/STM32F7xx_HAL_Driver/Src/stm32f7xx_ll_usb.c ****   hprt0 = USBx_HPRT0;
 3460              		.loc 1 1571 3 is_stmt 1 view .LVU1077
 3461              		.loc 1 1571 11 is_stmt 0 view .LVU1078
 3462 000a D0F84034 		ldr	r3, [r0, #1088]
 3463              		.loc 1 1571 9 view .LVU1079
 3464 000e 0193     		str	r3, [sp, #4]
1572:Drivers/STM32F7xx_HAL_Driver/Src/stm32f7xx_ll_usb.c **** 
1573:Drivers/STM32F7xx_HAL_Driver/Src/stm32f7xx_ll_usb.c ****   hprt0 &= ~(USB_OTG_HPRT_PENA | USB_OTG_HPRT_PCDET |
 3465              		.loc 1 1573 3 is_stmt 1 view .LVU1080
 3466              		.loc 1 1573 9 is_stmt 0 view .LVU1081
 3467 0010 019B     		ldr	r3, [sp, #4]
 3468 0012 23F02E03 		bic	r3, r3, #46
 3469 0016 0193     		str	r3, [sp, #4]
1574:Drivers/STM32F7xx_HAL_Driver/Src/stm32f7xx_ll_usb.c ****              USB_OTG_HPRT_PENCHNG | USB_OTG_HPRT_POCCHNG);
1575:Drivers/STM32F7xx_HAL_Driver/Src/stm32f7xx_ll_usb.c **** 
1576:Drivers/STM32F7xx_HAL_Driver/Src/stm32f7xx_ll_usb.c ****   USBx_HPRT0 = (USB_OTG_HPRT_PRST | hprt0);
 3470              		.loc 1 1576 3 is_stmt 1 view .LVU1082
 3471              		.loc 1 1576 35 is_stmt 0 view .LVU1083
 3472 0018 019B     		ldr	r3, [sp, #4]
 3473 001a 43F48073 		orr	r3, r3, #256
 3474              		.loc 1 1576 14 view .LVU1084
 3475 001e C0F84034 		str	r3, [r0, #1088]
1577:Drivers/STM32F7xx_HAL_Driver/Src/stm32f7xx_ll_usb.c ****   HAL_Delay(100U);                                 /* See Note #1 */
 3476              		.loc 1 1577 3 is_stmt 1 view .LVU1085
 3477 0022 6420     		movs	r0, #100
 3478              	.LVL304:
 3479              		.loc 1 1577 3 is_stmt 0 view .LVU1086
 3480 0024 FFF7FEFF 		bl	HAL_Delay
 3481              	.LVL305:
1578:Drivers/STM32F7xx_HAL_Driver/Src/stm32f7xx_ll_usb.c ****   USBx_HPRT0 = ((~USB_OTG_HPRT_PRST) & hprt0);
 3482              		.loc 1 1578 3 is_stmt 1 view .LVU1087
 3483              		.loc 1 1578 38 is_stmt 0 view .LVU1088
 3484 0028 019B     		ldr	r3, [sp, #4]
 3485 002a 23F48073 		bic	r3, r3, #256
 3486              		.loc 1 1578 14 view .LVU1089
 3487 002e C4F84034 		str	r3, [r4, #1088]
1579:Drivers/STM32F7xx_HAL_Driver/Src/stm32f7xx_ll_usb.c ****   HAL_Delay(10U);
 3488              		.loc 1 1579 3 is_stmt 1 view .LVU1090
 3489 0032 0A20     		movs	r0, #10
 3490 0034 FFF7FEFF 		bl	HAL_Delay
 3491              	.LVL306:
1580:Drivers/STM32F7xx_HAL_Driver/Src/stm32f7xx_ll_usb.c **** 
1581:Drivers/STM32F7xx_HAL_Driver/Src/stm32f7xx_ll_usb.c ****   return HAL_OK;
 3492              		.loc 1 1581 3 view .LVU1091
1582:Drivers/STM32F7xx_HAL_Driver/Src/stm32f7xx_ll_usb.c **** }
 3493              		.loc 1 1582 1 is_stmt 0 view .LVU1092
 3494 0038 2846     		mov	r0, r5
 3495 003a 03B0     		add	sp, sp, #12
 3496              	.LCFI36:
 3497              		.cfi_def_cfa_offset 12
 3498              		@ sp needed
ARM GAS  /tmp/cc8xco1Q.s 			page 107


 3499 003c 30BD     		pop	{r4, r5, pc}
 3500              		.loc 1 1582 1 view .LVU1093
 3501              		.cfi_endproc
 3502              	.LFE177:
 3504              		.section	.text.USB_DriveVbus,"ax",%progbits
 3505              		.align	1
 3506              		.global	USB_DriveVbus
 3507              		.syntax unified
 3508              		.thumb
 3509              		.thumb_func
 3510              		.fpu fpv5-d16
 3512              	USB_DriveVbus:
 3513              	.LVL307:
 3514              	.LFB178:
1583:Drivers/STM32F7xx_HAL_Driver/Src/stm32f7xx_ll_usb.c **** 
1584:Drivers/STM32F7xx_HAL_Driver/Src/stm32f7xx_ll_usb.c **** /**
1585:Drivers/STM32F7xx_HAL_Driver/Src/stm32f7xx_ll_usb.c ****   * @brief  USB_DriveVbus : activate or de-activate vbus
1586:Drivers/STM32F7xx_HAL_Driver/Src/stm32f7xx_ll_usb.c ****   * @param  state  VBUS state
1587:Drivers/STM32F7xx_HAL_Driver/Src/stm32f7xx_ll_usb.c ****   *          This parameter can be one of these values:
1588:Drivers/STM32F7xx_HAL_Driver/Src/stm32f7xx_ll_usb.c ****   *           0 : VBUS Active
1589:Drivers/STM32F7xx_HAL_Driver/Src/stm32f7xx_ll_usb.c ****   *           1 : VBUS Inactive
1590:Drivers/STM32F7xx_HAL_Driver/Src/stm32f7xx_ll_usb.c ****   * @retval HAL status
1591:Drivers/STM32F7xx_HAL_Driver/Src/stm32f7xx_ll_usb.c **** */
1592:Drivers/STM32F7xx_HAL_Driver/Src/stm32f7xx_ll_usb.c **** HAL_StatusTypeDef USB_DriveVbus(USB_OTG_GlobalTypeDef *USBx, uint8_t state)
1593:Drivers/STM32F7xx_HAL_Driver/Src/stm32f7xx_ll_usb.c **** {
 3515              		.loc 1 1593 1 is_stmt 1 view -0
 3516              		.cfi_startproc
 3517              		@ args = 0, pretend = 0, frame = 8
 3518              		@ frame_needed = 0, uses_anonymous_args = 0
 3519              		@ link register save eliminated.
 3520              		.loc 1 1593 1 is_stmt 0 view .LVU1095
 3521 0000 82B0     		sub	sp, sp, #8
 3522              	.LCFI37:
 3523              		.cfi_def_cfa_offset 8
1594:Drivers/STM32F7xx_HAL_Driver/Src/stm32f7xx_ll_usb.c ****   uint32_t USBx_BASE = (uint32_t)USBx;
 3524              		.loc 1 1594 3 is_stmt 1 view .LVU1096
 3525              	.LVL308:
1595:Drivers/STM32F7xx_HAL_Driver/Src/stm32f7xx_ll_usb.c ****   __IO uint32_t hprt0 = 0U;
 3526              		.loc 1 1595 3 view .LVU1097
 3527              		.loc 1 1595 17 is_stmt 0 view .LVU1098
 3528 0002 0023     		movs	r3, #0
 3529 0004 0193     		str	r3, [sp, #4]
1596:Drivers/STM32F7xx_HAL_Driver/Src/stm32f7xx_ll_usb.c **** 
1597:Drivers/STM32F7xx_HAL_Driver/Src/stm32f7xx_ll_usb.c ****   hprt0 = USBx_HPRT0;
 3530              		.loc 1 1597 3 is_stmt 1 view .LVU1099
 3531              		.loc 1 1597 11 is_stmt 0 view .LVU1100
 3532 0006 D0F84034 		ldr	r3, [r0, #1088]
 3533              		.loc 1 1597 9 view .LVU1101
 3534 000a 0193     		str	r3, [sp, #4]
1598:Drivers/STM32F7xx_HAL_Driver/Src/stm32f7xx_ll_usb.c **** 
1599:Drivers/STM32F7xx_HAL_Driver/Src/stm32f7xx_ll_usb.c ****   hprt0 &= ~(USB_OTG_HPRT_PENA | USB_OTG_HPRT_PCDET |
 3535              		.loc 1 1599 3 is_stmt 1 view .LVU1102
 3536              		.loc 1 1599 9 is_stmt 0 view .LVU1103
 3537 000c 019B     		ldr	r3, [sp, #4]
 3538 000e 23F02E03 		bic	r3, r3, #46
 3539 0012 0193     		str	r3, [sp, #4]
1600:Drivers/STM32F7xx_HAL_Driver/Src/stm32f7xx_ll_usb.c ****              USB_OTG_HPRT_PENCHNG | USB_OTG_HPRT_POCCHNG);
ARM GAS  /tmp/cc8xco1Q.s 			page 108


1601:Drivers/STM32F7xx_HAL_Driver/Src/stm32f7xx_ll_usb.c **** 
1602:Drivers/STM32F7xx_HAL_Driver/Src/stm32f7xx_ll_usb.c ****   if (((hprt0 & USB_OTG_HPRT_PPWR) == 0U) && (state == 1U))
 3540              		.loc 1 1602 3 is_stmt 1 view .LVU1104
 3541              		.loc 1 1602 15 is_stmt 0 view .LVU1105
 3542 0014 019B     		ldr	r3, [sp, #4]
 3543              		.loc 1 1602 6 view .LVU1106
 3544 0016 13F4805F 		tst	r3, #4096
 3545 001a 01D1     		bne	.L229
 3546              		.loc 1 1602 43 discriminator 1 view .LVU1107
 3547 001c 0129     		cmp	r1, #1
 3548 001e 0CD0     		beq	.L232
 3549              	.L229:
1603:Drivers/STM32F7xx_HAL_Driver/Src/stm32f7xx_ll_usb.c ****   {
1604:Drivers/STM32F7xx_HAL_Driver/Src/stm32f7xx_ll_usb.c ****     USBx_HPRT0 = (USB_OTG_HPRT_PPWR | hprt0);
1605:Drivers/STM32F7xx_HAL_Driver/Src/stm32f7xx_ll_usb.c ****   }
1606:Drivers/STM32F7xx_HAL_Driver/Src/stm32f7xx_ll_usb.c ****   if (((hprt0 & USB_OTG_HPRT_PPWR) == USB_OTG_HPRT_PPWR) && (state == 0U))
 3550              		.loc 1 1606 3 is_stmt 1 view .LVU1108
 3551              		.loc 1 1606 15 is_stmt 0 view .LVU1109
 3552 0020 019B     		ldr	r3, [sp, #4]
 3553              		.loc 1 1606 6 view .LVU1110
 3554 0022 13F4805F 		tst	r3, #4096
 3555 0026 05D0     		beq	.L230
 3556              		.loc 1 1606 58 discriminator 1 view .LVU1111
 3557 0028 21B9     		cbnz	r1, .L230
1607:Drivers/STM32F7xx_HAL_Driver/Src/stm32f7xx_ll_usb.c ****   {
1608:Drivers/STM32F7xx_HAL_Driver/Src/stm32f7xx_ll_usb.c ****     USBx_HPRT0 = ((~USB_OTG_HPRT_PPWR) & hprt0);
 3558              		.loc 1 1608 5 is_stmt 1 view .LVU1112
 3559              		.loc 1 1608 40 is_stmt 0 view .LVU1113
 3560 002a 019B     		ldr	r3, [sp, #4]
 3561 002c 23F48053 		bic	r3, r3, #4096
 3562              		.loc 1 1608 16 view .LVU1114
 3563 0030 C0F84034 		str	r3, [r0, #1088]
 3564              	.L230:
1609:Drivers/STM32F7xx_HAL_Driver/Src/stm32f7xx_ll_usb.c ****   }
1610:Drivers/STM32F7xx_HAL_Driver/Src/stm32f7xx_ll_usb.c ****   return HAL_OK;
 3565              		.loc 1 1610 3 is_stmt 1 view .LVU1115
1611:Drivers/STM32F7xx_HAL_Driver/Src/stm32f7xx_ll_usb.c **** }
 3566              		.loc 1 1611 1 is_stmt 0 view .LVU1116
 3567 0034 0020     		movs	r0, #0
 3568              	.LVL309:
 3569              		.loc 1 1611 1 view .LVU1117
 3570 0036 02B0     		add	sp, sp, #8
 3571              	.LCFI38:
 3572              		.cfi_remember_state
 3573              		.cfi_def_cfa_offset 0
 3574              		@ sp needed
 3575 0038 7047     		bx	lr
 3576              	.LVL310:
 3577              	.L232:
 3578              	.LCFI39:
 3579              		.cfi_restore_state
1604:Drivers/STM32F7xx_HAL_Driver/Src/stm32f7xx_ll_usb.c ****   }
 3580              		.loc 1 1604 5 is_stmt 1 view .LVU1118
1604:Drivers/STM32F7xx_HAL_Driver/Src/stm32f7xx_ll_usb.c ****   }
 3581              		.loc 1 1604 37 is_stmt 0 view .LVU1119
 3582 003a 019B     		ldr	r3, [sp, #4]
 3583 003c 43F48053 		orr	r3, r3, #4096
ARM GAS  /tmp/cc8xco1Q.s 			page 109


1604:Drivers/STM32F7xx_HAL_Driver/Src/stm32f7xx_ll_usb.c ****   }
 3584              		.loc 1 1604 16 view .LVU1120
 3585 0040 C0F84034 		str	r3, [r0, #1088]
 3586 0044 ECE7     		b	.L229
 3587              		.cfi_endproc
 3588              	.LFE178:
 3590              		.section	.text.USB_HostInit,"ax",%progbits
 3591              		.align	1
 3592              		.global	USB_HostInit
 3593              		.syntax unified
 3594              		.thumb
 3595              		.thumb_func
 3596              		.fpu fpv5-d16
 3598              	USB_HostInit:
 3599              	.LVL311:
 3600              	.LFB175:
1445:Drivers/STM32F7xx_HAL_Driver/Src/stm32f7xx_ll_usb.c ****   uint32_t USBx_BASE = (uint32_t)USBx;
 3601              		.loc 1 1445 1 is_stmt 1 view -0
 3602              		.cfi_startproc
 3603              		@ args = 56, pretend = 16, frame = 0
 3604              		@ frame_needed = 0, uses_anonymous_args = 0
1445:Drivers/STM32F7xx_HAL_Driver/Src/stm32f7xx_ll_usb.c ****   uint32_t USBx_BASE = (uint32_t)USBx;
 3605              		.loc 1 1445 1 is_stmt 0 view .LVU1122
 3606 0000 84B0     		sub	sp, sp, #16
 3607              	.LCFI40:
 3608              		.cfi_def_cfa_offset 16
 3609 0002 10B5     		push	{r4, lr}
 3610              	.LCFI41:
 3611              		.cfi_def_cfa_offset 24
 3612              		.cfi_offset 4, -24
 3613              		.cfi_offset 14, -20
 3614 0004 0446     		mov	r4, r0
 3615 0006 03A8     		add	r0, sp, #12
 3616 0008 80E80E00 		stm	r0, {r1, r2, r3}
1446:Drivers/STM32F7xx_HAL_Driver/Src/stm32f7xx_ll_usb.c ****   uint32_t i;
 3617              		.loc 1 1446 3 is_stmt 1 view .LVU1123
 3618              	.LVL312:
1447:Drivers/STM32F7xx_HAL_Driver/Src/stm32f7xx_ll_usb.c **** 
 3619              		.loc 1 1447 3 view .LVU1124
1450:Drivers/STM32F7xx_HAL_Driver/Src/stm32f7xx_ll_usb.c **** 
 3620              		.loc 1 1450 3 view .LVU1125
1450:Drivers/STM32F7xx_HAL_Driver/Src/stm32f7xx_ll_usb.c **** 
 3621              		.loc 1 1450 16 is_stmt 0 view .LVU1126
 3622 000c 0023     		movs	r3, #0
 3623 000e C4F8003E 		str	r3, [r4, #3584]
1453:Drivers/STM32F7xx_HAL_Driver/Src/stm32f7xx_ll_usb.c **** 
 3624              		.loc 1 1453 3 is_stmt 1 view .LVU1127
1453:Drivers/STM32F7xx_HAL_Driver/Src/stm32f7xx_ll_usb.c **** 
 3625              		.loc 1 1453 15 is_stmt 0 view .LVU1128
 3626 0012 A36B     		ldr	r3, [r4, #56]
 3627 0014 23F40013 		bic	r3, r3, #2097152
 3628 0018 A363     		str	r3, [r4, #56]
1455:Drivers/STM32F7xx_HAL_Driver/Src/stm32f7xx_ll_usb.c ****   {
 3629              		.loc 1 1455 3 is_stmt 1 view .LVU1129
1455:Drivers/STM32F7xx_HAL_Driver/Src/stm32f7xx_ll_usb.c ****   {
 3630              		.loc 1 1455 12 is_stmt 0 view .LVU1130
 3631 001a E36B     		ldr	r3, [r4, #60]
ARM GAS  /tmp/cc8xco1Q.s 			page 110


1455:Drivers/STM32F7xx_HAL_Driver/Src/stm32f7xx_ll_usb.c ****   {
 3632              		.loc 1 1455 6 view .LVU1131
 3633 001c 13F4807F 		tst	r3, #256
 3634 0020 10D0     		beq	.L234
1457:Drivers/STM32F7xx_HAL_Driver/Src/stm32f7xx_ll_usb.c ****     {
 3635              		.loc 1 1457 5 is_stmt 1 view .LVU1132
1457:Drivers/STM32F7xx_HAL_Driver/Src/stm32f7xx_ll_usb.c ****     {
 3636              		.loc 1 1457 12 is_stmt 0 view .LVU1133
 3637 0022 059B     		ldr	r3, [sp, #20]
1457:Drivers/STM32F7xx_HAL_Driver/Src/stm32f7xx_ll_usb.c ****     {
 3638              		.loc 1 1457 8 view .LVU1134
 3639 0024 012B     		cmp	r3, #1
 3640 0026 06D0     		beq	.L243
1465:Drivers/STM32F7xx_HAL_Driver/Src/stm32f7xx_ll_usb.c ****     }
 3641              		.loc 1 1465 7 is_stmt 1 view .LVU1135
1465:Drivers/STM32F7xx_HAL_Driver/Src/stm32f7xx_ll_usb.c ****     }
 3642              		.loc 1 1465 23 is_stmt 0 view .LVU1136
 3643 0028 D4F80034 		ldr	r3, [r4, #1024]
 3644 002c 23F00403 		bic	r3, r3, #4
 3645 0030 C4F80034 		str	r3, [r4, #1024]
 3646 0034 0CE0     		b	.L236
 3647              	.L243:
1460:Drivers/STM32F7xx_HAL_Driver/Src/stm32f7xx_ll_usb.c ****     }
 3648              		.loc 1 1460 7 is_stmt 1 view .LVU1137
1460:Drivers/STM32F7xx_HAL_Driver/Src/stm32f7xx_ll_usb.c ****     }
 3649              		.loc 1 1460 23 is_stmt 0 view .LVU1138
 3650 0036 D4F80034 		ldr	r3, [r4, #1024]
 3651 003a 43F00403 		orr	r3, r3, #4
 3652 003e C4F80034 		str	r3, [r4, #1024]
 3653 0042 05E0     		b	.L236
 3654              	.L234:
1471:Drivers/STM32F7xx_HAL_Driver/Src/stm32f7xx_ll_usb.c ****   }
 3655              		.loc 1 1471 5 is_stmt 1 view .LVU1139
1471:Drivers/STM32F7xx_HAL_Driver/Src/stm32f7xx_ll_usb.c ****   }
 3656              		.loc 1 1471 21 is_stmt 0 view .LVU1140
 3657 0044 D4F80034 		ldr	r3, [r4, #1024]
 3658 0048 23F00403 		bic	r3, r3, #4
 3659 004c C4F80034 		str	r3, [r4, #1024]
 3660              	.L236:
1475:Drivers/STM32F7xx_HAL_Driver/Src/stm32f7xx_ll_usb.c ****   (void)USB_FlushRxFifo(USBx);
 3661              		.loc 1 1475 3 is_stmt 1 view .LVU1141
1475:Drivers/STM32F7xx_HAL_Driver/Src/stm32f7xx_ll_usb.c ****   (void)USB_FlushRxFifo(USBx);
 3662              		.loc 1 1475 9 is_stmt 0 view .LVU1142
 3663 0050 1021     		movs	r1, #16
 3664 0052 2046     		mov	r0, r4
 3665              	.LVL313:
1475:Drivers/STM32F7xx_HAL_Driver/Src/stm32f7xx_ll_usb.c ****   (void)USB_FlushRxFifo(USBx);
 3666              		.loc 1 1475 9 view .LVU1143
 3667 0054 FFF7FEFF 		bl	USB_FlushTxFifo
 3668              	.LVL314:
1476:Drivers/STM32F7xx_HAL_Driver/Src/stm32f7xx_ll_usb.c **** 
 3669              		.loc 1 1476 3 is_stmt 1 view .LVU1144
1476:Drivers/STM32F7xx_HAL_Driver/Src/stm32f7xx_ll_usb.c **** 
 3670              		.loc 1 1476 9 is_stmt 0 view .LVU1145
 3671 0058 2046     		mov	r0, r4
 3672 005a FFF7FEFF 		bl	USB_FlushRxFifo
 3673              	.LVL315:
ARM GAS  /tmp/cc8xco1Q.s 			page 111


1479:Drivers/STM32F7xx_HAL_Driver/Src/stm32f7xx_ll_usb.c ****   {
 3674              		.loc 1 1479 3 is_stmt 1 view .LVU1146
1479:Drivers/STM32F7xx_HAL_Driver/Src/stm32f7xx_ll_usb.c ****   {
 3675              		.loc 1 1479 10 is_stmt 0 view .LVU1147
 3676 005e 0022     		movs	r2, #0
1479:Drivers/STM32F7xx_HAL_Driver/Src/stm32f7xx_ll_usb.c ****   {
 3677              		.loc 1 1479 3 view .LVU1148
 3678 0060 09E0     		b	.L237
 3679              	.LVL316:
 3680              	.L238:
1481:Drivers/STM32F7xx_HAL_Driver/Src/stm32f7xx_ll_usb.c ****     USBx_HC(i)->HCINTMSK = 0U;
 3681              		.loc 1 1481 5 is_stmt 1 discriminator 3 view .LVU1149
 3682 0062 04EB4213 		add	r3, r4, r2, lsl #5
1481:Drivers/STM32F7xx_HAL_Driver/Src/stm32f7xx_ll_usb.c ****     USBx_HC(i)->HCINTMSK = 0U;
 3683              		.loc 1 1481 23 is_stmt 0 discriminator 3 view .LVU1150
 3684 0066 4FF0FF31 		mov	r1, #-1
 3685 006a C3F80815 		str	r1, [r3, #1288]
1482:Drivers/STM32F7xx_HAL_Driver/Src/stm32f7xx_ll_usb.c ****   }
 3686              		.loc 1 1482 5 is_stmt 1 discriminator 3 view .LVU1151
1482:Drivers/STM32F7xx_HAL_Driver/Src/stm32f7xx_ll_usb.c ****   }
 3687              		.loc 1 1482 26 is_stmt 0 discriminator 3 view .LVU1152
 3688 006e 0021     		movs	r1, #0
 3689 0070 C3F80C15 		str	r1, [r3, #1292]
1479:Drivers/STM32F7xx_HAL_Driver/Src/stm32f7xx_ll_usb.c ****   {
 3690              		.loc 1 1479 39 is_stmt 1 discriminator 3 view .LVU1153
1479:Drivers/STM32F7xx_HAL_Driver/Src/stm32f7xx_ll_usb.c ****   {
 3691              		.loc 1 1479 40 is_stmt 0 discriminator 3 view .LVU1154
 3692 0074 0132     		adds	r2, r2, #1
 3693              	.LVL317:
 3694              	.L237:
1479:Drivers/STM32F7xx_HAL_Driver/Src/stm32f7xx_ll_usb.c ****   {
 3695              		.loc 1 1479 16 is_stmt 1 discriminator 1 view .LVU1155
1479:Drivers/STM32F7xx_HAL_Driver/Src/stm32f7xx_ll_usb.c ****   {
 3696              		.loc 1 1479 23 is_stmt 0 discriminator 1 view .LVU1156
 3697 0076 049B     		ldr	r3, [sp, #16]
1479:Drivers/STM32F7xx_HAL_Driver/Src/stm32f7xx_ll_usb.c ****   {
 3698              		.loc 1 1479 3 discriminator 1 view .LVU1157
 3699 0078 9342     		cmp	r3, r2
 3700 007a F2D8     		bhi	.L238
1486:Drivers/STM32F7xx_HAL_Driver/Src/stm32f7xx_ll_usb.c **** 
 3701              		.loc 1 1486 3 is_stmt 1 view .LVU1158
1486:Drivers/STM32F7xx_HAL_Driver/Src/stm32f7xx_ll_usb.c **** 
 3702              		.loc 1 1486 9 is_stmt 0 view .LVU1159
 3703 007c 0121     		movs	r1, #1
 3704 007e 2046     		mov	r0, r4
 3705 0080 FFF7FEFF 		bl	USB_DriveVbus
 3706              	.LVL318:
1488:Drivers/STM32F7xx_HAL_Driver/Src/stm32f7xx_ll_usb.c **** 
 3707              		.loc 1 1488 3 is_stmt 1 view .LVU1160
 3708 0084 C820     		movs	r0, #200
 3709 0086 FFF7FEFF 		bl	HAL_Delay
 3710              	.LVL319:
1491:Drivers/STM32F7xx_HAL_Driver/Src/stm32f7xx_ll_usb.c **** 
 3711              		.loc 1 1491 3 view .LVU1161
1491:Drivers/STM32F7xx_HAL_Driver/Src/stm32f7xx_ll_usb.c **** 
 3712              		.loc 1 1491 17 is_stmt 0 view .LVU1162
 3713 008a 0023     		movs	r3, #0
ARM GAS  /tmp/cc8xco1Q.s 			page 112


 3714 008c A361     		str	r3, [r4, #24]
1494:Drivers/STM32F7xx_HAL_Driver/Src/stm32f7xx_ll_usb.c **** 
 3715              		.loc 1 1494 3 is_stmt 1 view .LVU1163
1494:Drivers/STM32F7xx_HAL_Driver/Src/stm32f7xx_ll_usb.c **** 
 3716              		.loc 1 1494 17 is_stmt 0 view .LVU1164
 3717 008e 4FF0FF33 		mov	r3, #-1
 3718 0092 6361     		str	r3, [r4, #20]
1496:Drivers/STM32F7xx_HAL_Driver/Src/stm32f7xx_ll_usb.c ****   {
 3719              		.loc 1 1496 3 is_stmt 1 view .LVU1165
1496:Drivers/STM32F7xx_HAL_Driver/Src/stm32f7xx_ll_usb.c ****   {
 3720              		.loc 1 1496 12 is_stmt 0 view .LVU1166
 3721 0094 E36B     		ldr	r3, [r4, #60]
1496:Drivers/STM32F7xx_HAL_Driver/Src/stm32f7xx_ll_usb.c ****   {
 3722              		.loc 1 1496 6 view .LVU1167
 3723 0096 13F4807F 		tst	r3, #256
 3724 009a 17D0     		beq	.L239
1499:Drivers/STM32F7xx_HAL_Driver/Src/stm32f7xx_ll_usb.c ****     USBx->DIEPTXF0_HNPTXFSIZ = (uint32_t)(((0x100U << 16) & USB_OTG_NPTXFD) | 0x200U);
 3725              		.loc 1 1499 5 is_stmt 1 view .LVU1168
1499:Drivers/STM32F7xx_HAL_Driver/Src/stm32f7xx_ll_usb.c ****     USBx->DIEPTXF0_HNPTXFSIZ = (uint32_t)(((0x100U << 16) & USB_OTG_NPTXFD) | 0x200U);
 3726              		.loc 1 1499 20 is_stmt 0 view .LVU1169
 3727 009c 4FF40073 		mov	r3, #512
 3728 00a0 6362     		str	r3, [r4, #36]
1500:Drivers/STM32F7xx_HAL_Driver/Src/stm32f7xx_ll_usb.c ****     USBx->HPTXFSIZ = (uint32_t)(((0xE0U << 16) & USB_OTG_HPTXFSIZ_PTXFD) | 0x300U);
 3729              		.loc 1 1500 5 is_stmt 1 view .LVU1170
1500:Drivers/STM32F7xx_HAL_Driver/Src/stm32f7xx_ll_usb.c ****     USBx->HPTXFSIZ = (uint32_t)(((0xE0U << 16) & USB_OTG_HPTXFSIZ_PTXFD) | 0x300U);
 3730              		.loc 1 1500 30 is_stmt 0 view .LVU1171
 3731 00a2 03F18073 		add	r3, r3, #16777216
 3732 00a6 A362     		str	r3, [r4, #40]
1501:Drivers/STM32F7xx_HAL_Driver/Src/stm32f7xx_ll_usb.c ****   }
 3733              		.loc 1 1501 5 is_stmt 1 view .LVU1172
1501:Drivers/STM32F7xx_HAL_Driver/Src/stm32f7xx_ll_usb.c ****   }
 3734              		.loc 1 1501 20 is_stmt 0 view .LVU1173
 3735 00a8 0D4B     		ldr	r3, .L244
 3736 00aa C4F80031 		str	r3, [r4, #256]
 3737              	.L240:
1512:Drivers/STM32F7xx_HAL_Driver/Src/stm32f7xx_ll_usb.c ****   {
 3738              		.loc 1 1512 3 is_stmt 1 view .LVU1174
1512:Drivers/STM32F7xx_HAL_Driver/Src/stm32f7xx_ll_usb.c ****   {
 3739              		.loc 1 1512 10 is_stmt 0 view .LVU1175
 3740 00ae 069B     		ldr	r3, [sp, #24]
1512:Drivers/STM32F7xx_HAL_Driver/Src/stm32f7xx_ll_usb.c ****   {
 3741              		.loc 1 1512 6 view .LVU1176
 3742 00b0 1BB9     		cbnz	r3, .L241
1514:Drivers/STM32F7xx_HAL_Driver/Src/stm32f7xx_ll_usb.c ****   }
 3743              		.loc 1 1514 5 is_stmt 1 view .LVU1177
1514:Drivers/STM32F7xx_HAL_Driver/Src/stm32f7xx_ll_usb.c ****   }
 3744              		.loc 1 1514 19 is_stmt 0 view .LVU1178
 3745 00b2 A369     		ldr	r3, [r4, #24]
 3746 00b4 43F01003 		orr	r3, r3, #16
 3747 00b8 A361     		str	r3, [r4, #24]
 3748              	.L241:
1518:Drivers/STM32F7xx_HAL_Driver/Src/stm32f7xx_ll_usb.c ****                     USB_OTG_GINTMSK_SOFM             | USB_OTG_GINTSTS_DISCINT | \
 3749              		.loc 1 1518 3 is_stmt 1 view .LVU1179
1518:Drivers/STM32F7xx_HAL_Driver/Src/stm32f7xx_ll_usb.c ****                     USB_OTG_GINTMSK_SOFM             | USB_OTG_GINTSTS_DISCINT | \
 3750              		.loc 1 1518 17 is_stmt 0 view .LVU1180
 3751 00ba A269     		ldr	r2, [r4, #24]
 3752 00bc 094B     		ldr	r3, .L244+4
ARM GAS  /tmp/cc8xco1Q.s 			page 113


 3753 00be 1343     		orrs	r3, r3, r2
 3754 00c0 A361     		str	r3, [r4, #24]
1522:Drivers/STM32F7xx_HAL_Driver/Src/stm32f7xx_ll_usb.c **** }
 3755              		.loc 1 1522 3 is_stmt 1 view .LVU1181
1523:Drivers/STM32F7xx_HAL_Driver/Src/stm32f7xx_ll_usb.c **** 
 3756              		.loc 1 1523 1 is_stmt 0 view .LVU1182
 3757 00c2 0020     		movs	r0, #0
 3758 00c4 BDE81040 		pop	{r4, lr}
 3759              	.LCFI42:
 3760              		.cfi_remember_state
 3761              		.cfi_restore 14
 3762              		.cfi_restore 4
 3763              		.cfi_def_cfa_offset 16
 3764              	.LVL320:
1523:Drivers/STM32F7xx_HAL_Driver/Src/stm32f7xx_ll_usb.c **** 
 3765              		.loc 1 1523 1 view .LVU1183
 3766 00c8 04B0     		add	sp, sp, #16
 3767              	.LCFI43:
 3768              		.cfi_def_cfa_offset 0
 3769 00ca 7047     		bx	lr
 3770              	.LVL321:
 3771              	.L239:
 3772              	.LCFI44:
 3773              		.cfi_restore_state
1506:Drivers/STM32F7xx_HAL_Driver/Src/stm32f7xx_ll_usb.c ****     USBx->DIEPTXF0_HNPTXFSIZ = (uint32_t)(((0x60U << 16) & USB_OTG_NPTXFD) | 0x80U);
 3774              		.loc 1 1506 5 is_stmt 1 view .LVU1184
1506:Drivers/STM32F7xx_HAL_Driver/Src/stm32f7xx_ll_usb.c ****     USBx->DIEPTXF0_HNPTXFSIZ = (uint32_t)(((0x60U << 16) & USB_OTG_NPTXFD) | 0x80U);
 3775              		.loc 1 1506 20 is_stmt 0 view .LVU1185
 3776 00cc 8023     		movs	r3, #128
 3777 00ce 6362     		str	r3, [r4, #36]
1507:Drivers/STM32F7xx_HAL_Driver/Src/stm32f7xx_ll_usb.c ****     USBx->HPTXFSIZ = (uint32_t)(((0x40U << 16)& USB_OTG_HPTXFSIZ_PTXFD) | 0xE0U);
 3778              		.loc 1 1507 5 is_stmt 1 view .LVU1186
1507:Drivers/STM32F7xx_HAL_Driver/Src/stm32f7xx_ll_usb.c ****     USBx->HPTXFSIZ = (uint32_t)(((0x40U << 16)& USB_OTG_HPTXFSIZ_PTXFD) | 0xE0U);
 3779              		.loc 1 1507 30 is_stmt 0 view .LVU1187
 3780 00d0 03F5C003 		add	r3, r3, #6291456
 3781 00d4 A362     		str	r3, [r4, #40]
1508:Drivers/STM32F7xx_HAL_Driver/Src/stm32f7xx_ll_usb.c ****   }
 3782              		.loc 1 1508 5 is_stmt 1 view .LVU1188
1508:Drivers/STM32F7xx_HAL_Driver/Src/stm32f7xx_ll_usb.c ****   }
 3783              		.loc 1 1508 20 is_stmt 0 view .LVU1189
 3784 00d6 044B     		ldr	r3, .L244+8
 3785 00d8 C4F80031 		str	r3, [r4, #256]
 3786 00dc E7E7     		b	.L240
 3787              	.L245:
 3788 00de 00BF     		.align	2
 3789              	.L244:
 3790 00e0 0003E000 		.word	14680832
 3791 00e4 080020A3 		.word	-1558183928
 3792 00e8 E0004000 		.word	4194528
 3793              		.cfi_endproc
 3794              	.LFE175:
 3796              		.section	.text.USB_GetHostSpeed,"ax",%progbits
 3797              		.align	1
 3798              		.global	USB_GetHostSpeed
 3799              		.syntax unified
 3800              		.thumb
 3801              		.thumb_func
ARM GAS  /tmp/cc8xco1Q.s 			page 114


 3802              		.fpu fpv5-d16
 3804              	USB_GetHostSpeed:
 3805              	.LVL322:
 3806              	.LFB179:
1612:Drivers/STM32F7xx_HAL_Driver/Src/stm32f7xx_ll_usb.c **** 
1613:Drivers/STM32F7xx_HAL_Driver/Src/stm32f7xx_ll_usb.c **** /**
1614:Drivers/STM32F7xx_HAL_Driver/Src/stm32f7xx_ll_usb.c ****   * @brief  Return Host Core speed
1615:Drivers/STM32F7xx_HAL_Driver/Src/stm32f7xx_ll_usb.c ****   * @param  USBx  Selected device
1616:Drivers/STM32F7xx_HAL_Driver/Src/stm32f7xx_ll_usb.c ****   * @retval speed : Host speed
1617:Drivers/STM32F7xx_HAL_Driver/Src/stm32f7xx_ll_usb.c ****   *          This parameter can be one of these values:
1618:Drivers/STM32F7xx_HAL_Driver/Src/stm32f7xx_ll_usb.c ****   *            @arg HCD_SPEED_HIGH: High speed mode
1619:Drivers/STM32F7xx_HAL_Driver/Src/stm32f7xx_ll_usb.c ****   *            @arg HCD_SPEED_FULL: Full speed mode
1620:Drivers/STM32F7xx_HAL_Driver/Src/stm32f7xx_ll_usb.c ****   *            @arg HCD_SPEED_LOW: Low speed mode
1621:Drivers/STM32F7xx_HAL_Driver/Src/stm32f7xx_ll_usb.c ****   */
1622:Drivers/STM32F7xx_HAL_Driver/Src/stm32f7xx_ll_usb.c **** uint32_t USB_GetHostSpeed(USB_OTG_GlobalTypeDef *USBx)
1623:Drivers/STM32F7xx_HAL_Driver/Src/stm32f7xx_ll_usb.c **** {
 3807              		.loc 1 1623 1 is_stmt 1 view -0
 3808              		.cfi_startproc
 3809              		@ args = 0, pretend = 0, frame = 8
 3810              		@ frame_needed = 0, uses_anonymous_args = 0
 3811              		@ link register save eliminated.
 3812              		.loc 1 1623 1 is_stmt 0 view .LVU1191
 3813 0000 82B0     		sub	sp, sp, #8
 3814              	.LCFI45:
 3815              		.cfi_def_cfa_offset 8
1624:Drivers/STM32F7xx_HAL_Driver/Src/stm32f7xx_ll_usb.c ****   uint32_t USBx_BASE = (uint32_t)USBx;
 3816              		.loc 1 1624 3 is_stmt 1 view .LVU1192
 3817              	.LVL323:
1625:Drivers/STM32F7xx_HAL_Driver/Src/stm32f7xx_ll_usb.c ****   __IO uint32_t hprt0 = 0U;
 3818              		.loc 1 1625 3 view .LVU1193
 3819              		.loc 1 1625 17 is_stmt 0 view .LVU1194
 3820 0002 0023     		movs	r3, #0
 3821 0004 0193     		str	r3, [sp, #4]
1626:Drivers/STM32F7xx_HAL_Driver/Src/stm32f7xx_ll_usb.c **** 
1627:Drivers/STM32F7xx_HAL_Driver/Src/stm32f7xx_ll_usb.c ****   hprt0 = USBx_HPRT0;
 3822              		.loc 1 1627 3 is_stmt 1 view .LVU1195
 3823              		.loc 1 1627 11 is_stmt 0 view .LVU1196
 3824 0006 D0F84034 		ldr	r3, [r0, #1088]
 3825              		.loc 1 1627 9 view .LVU1197
 3826 000a 0193     		str	r3, [sp, #4]
1628:Drivers/STM32F7xx_HAL_Driver/Src/stm32f7xx_ll_usb.c ****   return ((hprt0 & USB_OTG_HPRT_PSPD) >> 17);
 3827              		.loc 1 1628 3 is_stmt 1 view .LVU1198
 3828              		.loc 1 1628 39 is_stmt 0 view .LVU1199
 3829 000c 0198     		ldr	r0, [sp, #4]
 3830              	.LVL324:
1629:Drivers/STM32F7xx_HAL_Driver/Src/stm32f7xx_ll_usb.c **** }
 3831              		.loc 1 1629 1 view .LVU1200
 3832 000e C0F34140 		ubfx	r0, r0, #17, #2
 3833 0012 02B0     		add	sp, sp, #8
 3834              	.LCFI46:
 3835              		.cfi_def_cfa_offset 0
 3836              		@ sp needed
 3837 0014 7047     		bx	lr
 3838              		.cfi_endproc
 3839              	.LFE179:
 3841              		.section	.text.USB_GetCurrentFrame,"ax",%progbits
 3842              		.align	1
ARM GAS  /tmp/cc8xco1Q.s 			page 115


 3843              		.global	USB_GetCurrentFrame
 3844              		.syntax unified
 3845              		.thumb
 3846              		.thumb_func
 3847              		.fpu fpv5-d16
 3849              	USB_GetCurrentFrame:
 3850              	.LVL325:
 3851              	.LFB180:
1630:Drivers/STM32F7xx_HAL_Driver/Src/stm32f7xx_ll_usb.c **** 
1631:Drivers/STM32F7xx_HAL_Driver/Src/stm32f7xx_ll_usb.c **** /**
1632:Drivers/STM32F7xx_HAL_Driver/Src/stm32f7xx_ll_usb.c ****   * @brief  Return Host Current Frame number
1633:Drivers/STM32F7xx_HAL_Driver/Src/stm32f7xx_ll_usb.c ****   * @param  USBx  Selected device
1634:Drivers/STM32F7xx_HAL_Driver/Src/stm32f7xx_ll_usb.c ****   * @retval current frame number
1635:Drivers/STM32F7xx_HAL_Driver/Src/stm32f7xx_ll_usb.c **** */
1636:Drivers/STM32F7xx_HAL_Driver/Src/stm32f7xx_ll_usb.c **** uint32_t USB_GetCurrentFrame(USB_OTG_GlobalTypeDef *USBx)
1637:Drivers/STM32F7xx_HAL_Driver/Src/stm32f7xx_ll_usb.c **** {
 3852              		.loc 1 1637 1 is_stmt 1 view -0
 3853              		.cfi_startproc
 3854              		@ args = 0, pretend = 0, frame = 0
 3855              		@ frame_needed = 0, uses_anonymous_args = 0
 3856              		@ link register save eliminated.
1638:Drivers/STM32F7xx_HAL_Driver/Src/stm32f7xx_ll_usb.c ****   uint32_t USBx_BASE = (uint32_t)USBx;
 3857              		.loc 1 1638 3 view .LVU1202
1639:Drivers/STM32F7xx_HAL_Driver/Src/stm32f7xx_ll_usb.c **** 
1640:Drivers/STM32F7xx_HAL_Driver/Src/stm32f7xx_ll_usb.c ****   return (USBx_HOST->HFNUM & USB_OTG_HFNUM_FRNUM);
 3858              		.loc 1 1640 3 view .LVU1203
 3859              		.loc 1 1640 11 is_stmt 0 view .LVU1204
 3860 0000 00F58060 		add	r0, r0, #1024
 3861              	.LVL326:
 3862              		.loc 1 1640 20 view .LVU1205
 3863 0004 8068     		ldr	r0, [r0, #8]
 3864              	.LVL327:
1641:Drivers/STM32F7xx_HAL_Driver/Src/stm32f7xx_ll_usb.c **** }
 3865              		.loc 1 1641 1 view .LVU1206
 3866 0006 80B2     		uxth	r0, r0
 3867 0008 7047     		bx	lr
 3868              		.cfi_endproc
 3869              	.LFE180:
 3871              		.section	.text.USB_HC_Init,"ax",%progbits
 3872              		.align	1
 3873              		.global	USB_HC_Init
 3874              		.syntax unified
 3875              		.thumb
 3876              		.thumb_func
 3877              		.fpu fpv5-d16
 3879              	USB_HC_Init:
 3880              	.LVL328:
 3881              	.LFB181:
1642:Drivers/STM32F7xx_HAL_Driver/Src/stm32f7xx_ll_usb.c **** 
1643:Drivers/STM32F7xx_HAL_Driver/Src/stm32f7xx_ll_usb.c **** /**
1644:Drivers/STM32F7xx_HAL_Driver/Src/stm32f7xx_ll_usb.c ****   * @brief  Initialize a host channel
1645:Drivers/STM32F7xx_HAL_Driver/Src/stm32f7xx_ll_usb.c ****   * @param  USBx  Selected device
1646:Drivers/STM32F7xx_HAL_Driver/Src/stm32f7xx_ll_usb.c ****   * @param  ch_num  Channel number
1647:Drivers/STM32F7xx_HAL_Driver/Src/stm32f7xx_ll_usb.c ****   *         This parameter can be a value from 1 to 15
1648:Drivers/STM32F7xx_HAL_Driver/Src/stm32f7xx_ll_usb.c ****   * @param  epnum  Endpoint number
1649:Drivers/STM32F7xx_HAL_Driver/Src/stm32f7xx_ll_usb.c ****   *          This parameter can be a value from 1 to 15
1650:Drivers/STM32F7xx_HAL_Driver/Src/stm32f7xx_ll_usb.c ****   * @param  dev_address  Current device address
ARM GAS  /tmp/cc8xco1Q.s 			page 116


1651:Drivers/STM32F7xx_HAL_Driver/Src/stm32f7xx_ll_usb.c ****   *          This parameter can be a value from 0 to 255
1652:Drivers/STM32F7xx_HAL_Driver/Src/stm32f7xx_ll_usb.c ****   * @param  speed  Current device speed
1653:Drivers/STM32F7xx_HAL_Driver/Src/stm32f7xx_ll_usb.c ****   *          This parameter can be one of these values:
1654:Drivers/STM32F7xx_HAL_Driver/Src/stm32f7xx_ll_usb.c ****   *            @arg USB_OTG_SPEED_HIGH: High speed mode
1655:Drivers/STM32F7xx_HAL_Driver/Src/stm32f7xx_ll_usb.c ****   *            @arg USB_OTG_SPEED_FULL: Full speed mode
1656:Drivers/STM32F7xx_HAL_Driver/Src/stm32f7xx_ll_usb.c ****   *            @arg USB_OTG_SPEED_LOW: Low speed mode
1657:Drivers/STM32F7xx_HAL_Driver/Src/stm32f7xx_ll_usb.c ****   * @param  ep_type  Endpoint Type
1658:Drivers/STM32F7xx_HAL_Driver/Src/stm32f7xx_ll_usb.c ****   *          This parameter can be one of these values:
1659:Drivers/STM32F7xx_HAL_Driver/Src/stm32f7xx_ll_usb.c ****   *            @arg EP_TYPE_CTRL: Control type
1660:Drivers/STM32F7xx_HAL_Driver/Src/stm32f7xx_ll_usb.c ****   *            @arg EP_TYPE_ISOC: Isochronous type
1661:Drivers/STM32F7xx_HAL_Driver/Src/stm32f7xx_ll_usb.c ****   *            @arg EP_TYPE_BULK: Bulk type
1662:Drivers/STM32F7xx_HAL_Driver/Src/stm32f7xx_ll_usb.c ****   *            @arg EP_TYPE_INTR: Interrupt type
1663:Drivers/STM32F7xx_HAL_Driver/Src/stm32f7xx_ll_usb.c ****   * @param  mps  Max Packet Size
1664:Drivers/STM32F7xx_HAL_Driver/Src/stm32f7xx_ll_usb.c ****   *          This parameter can be a value from 0 to32K
1665:Drivers/STM32F7xx_HAL_Driver/Src/stm32f7xx_ll_usb.c ****   * @retval HAL state
1666:Drivers/STM32F7xx_HAL_Driver/Src/stm32f7xx_ll_usb.c ****   */
1667:Drivers/STM32F7xx_HAL_Driver/Src/stm32f7xx_ll_usb.c **** HAL_StatusTypeDef USB_HC_Init(USB_OTG_GlobalTypeDef *USBx,
1668:Drivers/STM32F7xx_HAL_Driver/Src/stm32f7xx_ll_usb.c ****                               uint8_t ch_num,
1669:Drivers/STM32F7xx_HAL_Driver/Src/stm32f7xx_ll_usb.c ****                               uint8_t epnum,
1670:Drivers/STM32F7xx_HAL_Driver/Src/stm32f7xx_ll_usb.c ****                               uint8_t dev_address,
1671:Drivers/STM32F7xx_HAL_Driver/Src/stm32f7xx_ll_usb.c ****                               uint8_t speed,
1672:Drivers/STM32F7xx_HAL_Driver/Src/stm32f7xx_ll_usb.c ****                               uint8_t ep_type,
1673:Drivers/STM32F7xx_HAL_Driver/Src/stm32f7xx_ll_usb.c ****                               uint16_t mps)
1674:Drivers/STM32F7xx_HAL_Driver/Src/stm32f7xx_ll_usb.c **** {
 3882              		.loc 1 1674 1 is_stmt 1 view -0
 3883              		.cfi_startproc
 3884              		@ args = 12, pretend = 0, frame = 0
 3885              		@ frame_needed = 0, uses_anonymous_args = 0
 3886              		.loc 1 1674 1 is_stmt 0 view .LVU1208
 3887 0000 F0B5     		push	{r4, r5, r6, r7, lr}
 3888              	.LCFI47:
 3889              		.cfi_def_cfa_offset 20
 3890              		.cfi_offset 4, -20
 3891              		.cfi_offset 5, -16
 3892              		.cfi_offset 6, -12
 3893              		.cfi_offset 7, -8
 3894              		.cfi_offset 14, -4
 3895 0002 0446     		mov	r4, r0
 3896 0004 9DF818C0 		ldrb	ip, [sp, #24]	@ zero_extendqisi2
1675:Drivers/STM32F7xx_HAL_Driver/Src/stm32f7xx_ll_usb.c ****   HAL_StatusTypeDef ret = HAL_OK;
 3897              		.loc 1 1675 3 is_stmt 1 view .LVU1209
 3898              	.LVL329:
1676:Drivers/STM32F7xx_HAL_Driver/Src/stm32f7xx_ll_usb.c ****   uint32_t USBx_BASE = (uint32_t)USBx;
 3899              		.loc 1 1676 3 view .LVU1210
1677:Drivers/STM32F7xx_HAL_Driver/Src/stm32f7xx_ll_usb.c ****   uint32_t HCcharEpDir, HCcharLowSpeed;
 3900              		.loc 1 1677 3 view .LVU1211
1678:Drivers/STM32F7xx_HAL_Driver/Src/stm32f7xx_ll_usb.c **** 
1679:Drivers/STM32F7xx_HAL_Driver/Src/stm32f7xx_ll_usb.c ****   /* Clear old interrupt conditions for this host channel. */
1680:Drivers/STM32F7xx_HAL_Driver/Src/stm32f7xx_ll_usb.c ****   USBx_HC((uint32_t)ch_num)->HCINT = 0xFFFFFFFFU;
 3901              		.loc 1 1680 3 view .LVU1212
 3902 0008 00EB411E 		add	lr, r0, r1, lsl #5
 3903 000c 0EF5A060 		add	r0, lr, #1280
 3904              	.LVL330:
 3905              		.loc 1 1680 36 is_stmt 0 view .LVU1213
 3906 0010 4FF0FF35 		mov	r5, #-1
 3907 0014 8560     		str	r5, [r0, #8]
1681:Drivers/STM32F7xx_HAL_Driver/Src/stm32f7xx_ll_usb.c **** 
ARM GAS  /tmp/cc8xco1Q.s 			page 117


1682:Drivers/STM32F7xx_HAL_Driver/Src/stm32f7xx_ll_usb.c ****   /* Enable channel interrupts required for this transfer. */
1683:Drivers/STM32F7xx_HAL_Driver/Src/stm32f7xx_ll_usb.c ****   switch (ep_type)
 3908              		.loc 1 1683 3 is_stmt 1 view .LVU1214
 3909 0016 BCF1030F 		cmp	ip, #3
 3910 001a 64D8     		bhi	.L259
 3911 001c DFE80CF0 		tbb	[pc, ip]
 3912              	.L252:
 3913 0020 02       		.byte	(.L253-.L252)/2
 3914 0021 55       		.byte	(.L254-.L252)/2
 3915 0022 02       		.byte	(.L253-.L252)/2
 3916 0023 18       		.byte	(.L251-.L252)/2
 3917              		.p2align 1
 3918              	.L253:
1684:Drivers/STM32F7xx_HAL_Driver/Src/stm32f7xx_ll_usb.c ****   {
1685:Drivers/STM32F7xx_HAL_Driver/Src/stm32f7xx_ll_usb.c ****     case EP_TYPE_CTRL:
1686:Drivers/STM32F7xx_HAL_Driver/Src/stm32f7xx_ll_usb.c ****     case EP_TYPE_BULK:
1687:Drivers/STM32F7xx_HAL_Driver/Src/stm32f7xx_ll_usb.c ****       USBx_HC((uint32_t)ch_num)->HCINTMSK = USB_OTG_HCINTMSK_XFRCM  |
 3919              		.loc 1 1687 7 view .LVU1215
 3920              		.loc 1 1687 43 is_stmt 0 view .LVU1216
 3921 0024 40F29D45 		movw	r5, #1181
 3922 0028 C560     		str	r5, [r0, #12]
1688:Drivers/STM32F7xx_HAL_Driver/Src/stm32f7xx_ll_usb.c ****                                             USB_OTG_HCINTMSK_STALLM |
1689:Drivers/STM32F7xx_HAL_Driver/Src/stm32f7xx_ll_usb.c ****                                             USB_OTG_HCINTMSK_TXERRM |
1690:Drivers/STM32F7xx_HAL_Driver/Src/stm32f7xx_ll_usb.c ****                                             USB_OTG_HCINTMSK_DTERRM |
1691:Drivers/STM32F7xx_HAL_Driver/Src/stm32f7xx_ll_usb.c ****                                             USB_OTG_HCINTMSK_AHBERR |
1692:Drivers/STM32F7xx_HAL_Driver/Src/stm32f7xx_ll_usb.c ****                                             USB_OTG_HCINTMSK_NAKM;
1693:Drivers/STM32F7xx_HAL_Driver/Src/stm32f7xx_ll_usb.c **** 
1694:Drivers/STM32F7xx_HAL_Driver/Src/stm32f7xx_ll_usb.c ****       if ((epnum & 0x80U) == 0x80U)
 3923              		.loc 1 1694 7 is_stmt 1 view .LVU1217
 3924              		.loc 1 1694 10 is_stmt 0 view .LVU1218
 3925 002a 12F0800F 		tst	r2, #128
 3926 002e 09D1     		bne	.L266
1695:Drivers/STM32F7xx_HAL_Driver/Src/stm32f7xx_ll_usb.c ****       {
1696:Drivers/STM32F7xx_HAL_Driver/Src/stm32f7xx_ll_usb.c ****         USBx_HC((uint32_t)ch_num)->HCINTMSK |= USB_OTG_HCINTMSK_BBERRM;
1697:Drivers/STM32F7xx_HAL_Driver/Src/stm32f7xx_ll_usb.c ****       }
1698:Drivers/STM32F7xx_HAL_Driver/Src/stm32f7xx_ll_usb.c ****       else
1699:Drivers/STM32F7xx_HAL_Driver/Src/stm32f7xx_ll_usb.c ****       {
1700:Drivers/STM32F7xx_HAL_Driver/Src/stm32f7xx_ll_usb.c ****         if ((USBx->CID & (0x1U << 8)) != 0U)
 3927              		.loc 1 1700 9 is_stmt 1 view .LVU1219
 3928              		.loc 1 1700 18 is_stmt 0 view .LVU1220
 3929 0030 E56B     		ldr	r5, [r4, #60]
 3930              		.loc 1 1700 12 view .LVU1221
 3931 0032 15F4807F 		tst	r5, #256
 3932 0036 58D0     		beq	.L260
1701:Drivers/STM32F7xx_HAL_Driver/Src/stm32f7xx_ll_usb.c ****         {
1702:Drivers/STM32F7xx_HAL_Driver/Src/stm32f7xx_ll_usb.c ****           USBx_HC((uint32_t)ch_num)->HCINTMSK |= (USB_OTG_HCINTMSK_NYET | USB_OTG_HCINTMSK_ACKM);
 3933              		.loc 1 1702 11 is_stmt 1 view .LVU1222
 3934              		.loc 1 1702 47 is_stmt 0 view .LVU1223
 3935 0038 C568     		ldr	r5, [r0, #12]
 3936 003a 45F06005 		orr	r5, r5, #96
 3937 003e C560     		str	r5, [r0, #12]
1675:Drivers/STM32F7xx_HAL_Driver/Src/stm32f7xx_ll_usb.c ****   uint32_t USBx_BASE = (uint32_t)USBx;
 3938              		.loc 1 1675 21 view .LVU1224
 3939 0040 0020     		movs	r0, #0
 3940 0042 0CE0     		b	.L250
 3941              	.L266:
1696:Drivers/STM32F7xx_HAL_Driver/Src/stm32f7xx_ll_usb.c ****       }
ARM GAS  /tmp/cc8xco1Q.s 			page 118


 3942              		.loc 1 1696 9 is_stmt 1 view .LVU1225
1696:Drivers/STM32F7xx_HAL_Driver/Src/stm32f7xx_ll_usb.c ****       }
 3943              		.loc 1 1696 45 is_stmt 0 view .LVU1226
 3944 0044 C568     		ldr	r5, [r0, #12]
 3945 0046 45F48075 		orr	r5, r5, #256
 3946 004a C560     		str	r5, [r0, #12]
1675:Drivers/STM32F7xx_HAL_Driver/Src/stm32f7xx_ll_usb.c ****   uint32_t USBx_BASE = (uint32_t)USBx;
 3947              		.loc 1 1675 21 view .LVU1227
 3948 004c 0020     		movs	r0, #0
 3949 004e 06E0     		b	.L250
 3950              	.L251:
1703:Drivers/STM32F7xx_HAL_Driver/Src/stm32f7xx_ll_usb.c ****         }
1704:Drivers/STM32F7xx_HAL_Driver/Src/stm32f7xx_ll_usb.c ****       }
1705:Drivers/STM32F7xx_HAL_Driver/Src/stm32f7xx_ll_usb.c ****       break;
1706:Drivers/STM32F7xx_HAL_Driver/Src/stm32f7xx_ll_usb.c **** 
1707:Drivers/STM32F7xx_HAL_Driver/Src/stm32f7xx_ll_usb.c ****     case EP_TYPE_INTR:
1708:Drivers/STM32F7xx_HAL_Driver/Src/stm32f7xx_ll_usb.c ****       USBx_HC((uint32_t)ch_num)->HCINTMSK = USB_OTG_HCINTMSK_XFRCM  |
 3951              		.loc 1 1708 7 is_stmt 1 view .LVU1228
 3952              		.loc 1 1708 43 is_stmt 0 view .LVU1229
 3953 0050 40F29D65 		movw	r5, #1693
 3954 0054 C560     		str	r5, [r0, #12]
1709:Drivers/STM32F7xx_HAL_Driver/Src/stm32f7xx_ll_usb.c ****                                             USB_OTG_HCINTMSK_STALLM |
1710:Drivers/STM32F7xx_HAL_Driver/Src/stm32f7xx_ll_usb.c ****                                             USB_OTG_HCINTMSK_TXERRM |
1711:Drivers/STM32F7xx_HAL_Driver/Src/stm32f7xx_ll_usb.c ****                                             USB_OTG_HCINTMSK_DTERRM |
1712:Drivers/STM32F7xx_HAL_Driver/Src/stm32f7xx_ll_usb.c ****                                             USB_OTG_HCINTMSK_NAKM   |
1713:Drivers/STM32F7xx_HAL_Driver/Src/stm32f7xx_ll_usb.c ****                                             USB_OTG_HCINTMSK_AHBERR |
1714:Drivers/STM32F7xx_HAL_Driver/Src/stm32f7xx_ll_usb.c ****                                             USB_OTG_HCINTMSK_FRMORM;
1715:Drivers/STM32F7xx_HAL_Driver/Src/stm32f7xx_ll_usb.c **** 
1716:Drivers/STM32F7xx_HAL_Driver/Src/stm32f7xx_ll_usb.c ****       if ((epnum & 0x80U) == 0x80U)
 3955              		.loc 1 1716 7 is_stmt 1 view .LVU1230
 3956              		.loc 1 1716 10 is_stmt 0 view .LVU1231
 3957 0056 12F0800F 		tst	r2, #128
 3958 005a 30D1     		bne	.L267
1675:Drivers/STM32F7xx_HAL_Driver/Src/stm32f7xx_ll_usb.c ****   uint32_t USBx_BASE = (uint32_t)USBx;
 3959              		.loc 1 1675 21 view .LVU1232
 3960 005c 0020     		movs	r0, #0
 3961              	.L250:
 3962              	.LVL331:
1717:Drivers/STM32F7xx_HAL_Driver/Src/stm32f7xx_ll_usb.c ****       {
1718:Drivers/STM32F7xx_HAL_Driver/Src/stm32f7xx_ll_usb.c ****         USBx_HC((uint32_t)ch_num)->HCINTMSK |= USB_OTG_HCINTMSK_BBERRM;
1719:Drivers/STM32F7xx_HAL_Driver/Src/stm32f7xx_ll_usb.c ****       }
1720:Drivers/STM32F7xx_HAL_Driver/Src/stm32f7xx_ll_usb.c **** 
1721:Drivers/STM32F7xx_HAL_Driver/Src/stm32f7xx_ll_usb.c ****       break;
1722:Drivers/STM32F7xx_HAL_Driver/Src/stm32f7xx_ll_usb.c **** 
1723:Drivers/STM32F7xx_HAL_Driver/Src/stm32f7xx_ll_usb.c ****     case EP_TYPE_ISOC:
1724:Drivers/STM32F7xx_HAL_Driver/Src/stm32f7xx_ll_usb.c ****       USBx_HC((uint32_t)ch_num)->HCINTMSK = USB_OTG_HCINTMSK_XFRCM  |
1725:Drivers/STM32F7xx_HAL_Driver/Src/stm32f7xx_ll_usb.c ****                                             USB_OTG_HCINTMSK_ACKM   |
1726:Drivers/STM32F7xx_HAL_Driver/Src/stm32f7xx_ll_usb.c ****                                             USB_OTG_HCINTMSK_AHBERR |
1727:Drivers/STM32F7xx_HAL_Driver/Src/stm32f7xx_ll_usb.c ****                                             USB_OTG_HCINTMSK_FRMORM;
1728:Drivers/STM32F7xx_HAL_Driver/Src/stm32f7xx_ll_usb.c **** 
1729:Drivers/STM32F7xx_HAL_Driver/Src/stm32f7xx_ll_usb.c ****       if ((epnum & 0x80U) == 0x80U)
1730:Drivers/STM32F7xx_HAL_Driver/Src/stm32f7xx_ll_usb.c ****       {
1731:Drivers/STM32F7xx_HAL_Driver/Src/stm32f7xx_ll_usb.c ****         USBx_HC((uint32_t)ch_num)->HCINTMSK |= (USB_OTG_HCINTMSK_TXERRM | USB_OTG_HCINTMSK_BBERRM);
1732:Drivers/STM32F7xx_HAL_Driver/Src/stm32f7xx_ll_usb.c ****       }
1733:Drivers/STM32F7xx_HAL_Driver/Src/stm32f7xx_ll_usb.c ****       break;
1734:Drivers/STM32F7xx_HAL_Driver/Src/stm32f7xx_ll_usb.c **** 
1735:Drivers/STM32F7xx_HAL_Driver/Src/stm32f7xx_ll_usb.c ****     default:
ARM GAS  /tmp/cc8xco1Q.s 			page 119


1736:Drivers/STM32F7xx_HAL_Driver/Src/stm32f7xx_ll_usb.c ****       ret = HAL_ERROR;
1737:Drivers/STM32F7xx_HAL_Driver/Src/stm32f7xx_ll_usb.c ****       break;
1738:Drivers/STM32F7xx_HAL_Driver/Src/stm32f7xx_ll_usb.c ****   }
1739:Drivers/STM32F7xx_HAL_Driver/Src/stm32f7xx_ll_usb.c **** 
1740:Drivers/STM32F7xx_HAL_Driver/Src/stm32f7xx_ll_usb.c ****   /* Enable the top level host channel interrupt. */
1741:Drivers/STM32F7xx_HAL_Driver/Src/stm32f7xx_ll_usb.c ****   USBx_HOST->HAINTMSK |= 1UL << (ch_num & 0xFU);
 3963              		.loc 1 1741 3 is_stmt 1 view .LVU1233
 3964              		.loc 1 1741 23 is_stmt 0 view .LVU1234
 3965 005e D4F81854 		ldr	r5, [r4, #1048]
 3966              		.loc 1 1741 41 view .LVU1235
 3967 0062 01F00F01 		and	r1, r1, #15
 3968              	.LVL332:
 3969              		.loc 1 1741 30 view .LVU1236
 3970 0066 0126     		movs	r6, #1
 3971 0068 06FA01F1 		lsl	r1, r6, r1
 3972              		.loc 1 1741 23 view .LVU1237
 3973 006c 2943     		orrs	r1, r1, r5
 3974 006e C4F81814 		str	r1, [r4, #1048]
1742:Drivers/STM32F7xx_HAL_Driver/Src/stm32f7xx_ll_usb.c **** 
1743:Drivers/STM32F7xx_HAL_Driver/Src/stm32f7xx_ll_usb.c ****   /* Make sure host channel interrupts are enabled. */
1744:Drivers/STM32F7xx_HAL_Driver/Src/stm32f7xx_ll_usb.c ****   USBx->GINTMSK |= USB_OTG_GINTMSK_HCIM;
 3975              		.loc 1 1744 3 is_stmt 1 view .LVU1238
 3976              		.loc 1 1744 17 is_stmt 0 view .LVU1239
 3977 0072 A169     		ldr	r1, [r4, #24]
 3978 0074 41F00071 		orr	r1, r1, #33554432
 3979 0078 A161     		str	r1, [r4, #24]
1745:Drivers/STM32F7xx_HAL_Driver/Src/stm32f7xx_ll_usb.c **** 
1746:Drivers/STM32F7xx_HAL_Driver/Src/stm32f7xx_ll_usb.c ****   /* Program the HCCHAR register */
1747:Drivers/STM32F7xx_HAL_Driver/Src/stm32f7xx_ll_usb.c ****   if ((epnum & 0x80U) == 0x80U)
 3980              		.loc 1 1747 3 is_stmt 1 view .LVU1240
 3981              		.loc 1 1747 6 is_stmt 0 view .LVU1241
 3982 007a 12F0800F 		tst	r2, #128
 3983 007e 36D1     		bne	.L268
1748:Drivers/STM32F7xx_HAL_Driver/Src/stm32f7xx_ll_usb.c ****   {
1749:Drivers/STM32F7xx_HAL_Driver/Src/stm32f7xx_ll_usb.c ****     HCcharEpDir = (0x1U << 15) & USB_OTG_HCCHAR_EPDIR;
1750:Drivers/STM32F7xx_HAL_Driver/Src/stm32f7xx_ll_usb.c ****   }
1751:Drivers/STM32F7xx_HAL_Driver/Src/stm32f7xx_ll_usb.c ****   else
1752:Drivers/STM32F7xx_HAL_Driver/Src/stm32f7xx_ll_usb.c ****   {
1753:Drivers/STM32F7xx_HAL_Driver/Src/stm32f7xx_ll_usb.c ****     HCcharEpDir = 0U;
 3984              		.loc 1 1753 17 view .LVU1242
 3985 0080 0024     		movs	r4, #0
 3986              	.LVL333:
 3987              	.L256:
1754:Drivers/STM32F7xx_HAL_Driver/Src/stm32f7xx_ll_usb.c ****   }
1755:Drivers/STM32F7xx_HAL_Driver/Src/stm32f7xx_ll_usb.c **** 
1756:Drivers/STM32F7xx_HAL_Driver/Src/stm32f7xx_ll_usb.c ****   if (speed == HPRT0_PRTSPD_LOW_SPEED)
 3988              		.loc 1 1756 3 is_stmt 1 view .LVU1243
 3989              		.loc 1 1756 6 is_stmt 0 view .LVU1244
 3990 0082 9DF81410 		ldrb	r1, [sp, #20]	@ zero_extendqisi2
 3991 0086 0229     		cmp	r1, #2
 3992 0088 34D0     		beq	.L269
1757:Drivers/STM32F7xx_HAL_Driver/Src/stm32f7xx_ll_usb.c ****   {
1758:Drivers/STM32F7xx_HAL_Driver/Src/stm32f7xx_ll_usb.c ****     HCcharLowSpeed = (0x1U << 17) & USB_OTG_HCCHAR_LSDEV;
1759:Drivers/STM32F7xx_HAL_Driver/Src/stm32f7xx_ll_usb.c ****   }
1760:Drivers/STM32F7xx_HAL_Driver/Src/stm32f7xx_ll_usb.c ****   else
1761:Drivers/STM32F7xx_HAL_Driver/Src/stm32f7xx_ll_usb.c ****   {
1762:Drivers/STM32F7xx_HAL_Driver/Src/stm32f7xx_ll_usb.c ****     HCcharLowSpeed = 0U;
ARM GAS  /tmp/cc8xco1Q.s 			page 120


 3993              		.loc 1 1762 20 view .LVU1245
 3994 008a 0021     		movs	r1, #0
 3995              	.L257:
 3996              	.LVL334:
1763:Drivers/STM32F7xx_HAL_Driver/Src/stm32f7xx_ll_usb.c ****   }
1764:Drivers/STM32F7xx_HAL_Driver/Src/stm32f7xx_ll_usb.c **** 
1765:Drivers/STM32F7xx_HAL_Driver/Src/stm32f7xx_ll_usb.c ****   USBx_HC((uint32_t)ch_num)->HCCHAR = (((uint32_t)dev_address << 22) & USB_OTG_HCCHAR_DAD) |
 3997              		.loc 1 1765 3 is_stmt 1 view .LVU1246
 3998              		.loc 1 1765 63 is_stmt 0 view .LVU1247
 3999 008c 9B05     		lsls	r3, r3, #22
 4000              	.LVL335:
 4001              		.loc 1 1765 70 view .LVU1248
 4002 008e 03F0FE53 		and	r3, r3, #532676608
1766:Drivers/STM32F7xx_HAL_Driver/Src/stm32f7xx_ll_usb.c ****                                       ((((uint32_t)epnum & 0x7FU) << 11) & USB_OTG_HCCHAR_EPNUM) |
 4003              		.loc 1 1766 67 view .LVU1249
 4004 0092 D202     		lsls	r2, r2, #11
 4005              	.LVL336:
 4006              		.loc 1 1766 74 view .LVU1250
 4007 0094 02F4F042 		and	r2, r2, #30720
1765:Drivers/STM32F7xx_HAL_Driver/Src/stm32f7xx_ll_usb.c ****                                       ((((uint32_t)epnum & 0x7FU) << 11) & USB_OTG_HCCHAR_EPNUM) |
 4008              		.loc 1 1765 92 view .LVU1251
 4009 0098 1343     		orrs	r3, r3, r2
1767:Drivers/STM32F7xx_HAL_Driver/Src/stm32f7xx_ll_usb.c ****                                       (((uint32_t)ep_type << 18) & USB_OTG_HCCHAR_EPTYP) |
 4010              		.loc 1 1767 59 view .LVU1252
 4011 009a 4FEA8C42 		lsl	r2, ip, #18
 4012              		.loc 1 1767 66 view .LVU1253
 4013 009e 02F44022 		and	r2, r2, #786432
1766:Drivers/STM32F7xx_HAL_Driver/Src/stm32f7xx_ll_usb.c ****                                       ((((uint32_t)epnum & 0x7FU) << 11) & USB_OTG_HCCHAR_EPNUM) |
 4014              		.loc 1 1766 98 view .LVU1254
 4015 00a2 1343     		orrs	r3, r3, r2
1768:Drivers/STM32F7xx_HAL_Driver/Src/stm32f7xx_ll_usb.c ****                                       ((uint32_t)mps & USB_OTG_HCCHAR_MPSIZ) | HCcharEpDir | HCchar
 4016              		.loc 1 1768 54 view .LVU1255
 4017 00a4 BDF81C20 		ldrh	r2, [sp, #28]
 4018 00a8 C2F30A02 		ubfx	r2, r2, #0, #11
1767:Drivers/STM32F7xx_HAL_Driver/Src/stm32f7xx_ll_usb.c ****                                       (((uint32_t)ep_type << 18) & USB_OTG_HCCHAR_EPTYP) |
 4019              		.loc 1 1767 90 view .LVU1256
 4020 00ac 1343     		orrs	r3, r3, r2
 4021              		.loc 1 1768 78 view .LVU1257
 4022 00ae 2343     		orrs	r3, r3, r4
 4023              		.loc 1 1768 92 view .LVU1258
 4024 00b0 0B43     		orrs	r3, r3, r1
1765:Drivers/STM32F7xx_HAL_Driver/Src/stm32f7xx_ll_usb.c ****                                       ((((uint32_t)epnum & 0x7FU) << 11) & USB_OTG_HCCHAR_EPNUM) |
 4025              		.loc 1 1765 37 view .LVU1259
 4026 00b2 CEF80035 		str	r3, [lr, #1280]
1769:Drivers/STM32F7xx_HAL_Driver/Src/stm32f7xx_ll_usb.c **** 
1770:Drivers/STM32F7xx_HAL_Driver/Src/stm32f7xx_ll_usb.c ****   if (ep_type == EP_TYPE_INTR)
 4027              		.loc 1 1770 3 is_stmt 1 view .LVU1260
 4028              		.loc 1 1770 6 is_stmt 0 view .LVU1261
 4029 00b6 BCF1030F 		cmp	ip, #3
 4030 00ba 1ED0     		beq	.L270
 4031              	.L258:
1771:Drivers/STM32F7xx_HAL_Driver/Src/stm32f7xx_ll_usb.c ****   {
1772:Drivers/STM32F7xx_HAL_Driver/Src/stm32f7xx_ll_usb.c ****     USBx_HC((uint32_t)ch_num)->HCCHAR |= USB_OTG_HCCHAR_ODDFRM ;
1773:Drivers/STM32F7xx_HAL_Driver/Src/stm32f7xx_ll_usb.c ****   }
1774:Drivers/STM32F7xx_HAL_Driver/Src/stm32f7xx_ll_usb.c **** 
1775:Drivers/STM32F7xx_HAL_Driver/Src/stm32f7xx_ll_usb.c ****   return ret;
 4032              		.loc 1 1775 3 is_stmt 1 view .LVU1262
ARM GAS  /tmp/cc8xco1Q.s 			page 121


1776:Drivers/STM32F7xx_HAL_Driver/Src/stm32f7xx_ll_usb.c **** }
 4033              		.loc 1 1776 1 is_stmt 0 view .LVU1263
 4034 00bc F0BD     		pop	{r4, r5, r6, r7, pc}
 4035              	.LVL337:
 4036              	.L267:
1718:Drivers/STM32F7xx_HAL_Driver/Src/stm32f7xx_ll_usb.c ****       }
 4037              		.loc 1 1718 9 is_stmt 1 view .LVU1264
1718:Drivers/STM32F7xx_HAL_Driver/Src/stm32f7xx_ll_usb.c ****       }
 4038              		.loc 1 1718 45 is_stmt 0 view .LVU1265
 4039 00be C568     		ldr	r5, [r0, #12]
 4040 00c0 45F48075 		orr	r5, r5, #256
 4041 00c4 C560     		str	r5, [r0, #12]
1675:Drivers/STM32F7xx_HAL_Driver/Src/stm32f7xx_ll_usb.c ****   uint32_t USBx_BASE = (uint32_t)USBx;
 4042              		.loc 1 1675 21 view .LVU1266
 4043 00c6 0020     		movs	r0, #0
 4044 00c8 C9E7     		b	.L250
 4045              	.L254:
1724:Drivers/STM32F7xx_HAL_Driver/Src/stm32f7xx_ll_usb.c ****                                             USB_OTG_HCINTMSK_ACKM   |
 4046              		.loc 1 1724 7 is_stmt 1 view .LVU1267
1724:Drivers/STM32F7xx_HAL_Driver/Src/stm32f7xx_ll_usb.c ****                                             USB_OTG_HCINTMSK_ACKM   |
 4047              		.loc 1 1724 43 is_stmt 0 view .LVU1268
 4048 00ca 40F22525 		movw	r5, #549
 4049 00ce C560     		str	r5, [r0, #12]
1729:Drivers/STM32F7xx_HAL_Driver/Src/stm32f7xx_ll_usb.c ****       {
 4050              		.loc 1 1729 7 is_stmt 1 view .LVU1269
1729:Drivers/STM32F7xx_HAL_Driver/Src/stm32f7xx_ll_usb.c ****       {
 4051              		.loc 1 1729 10 is_stmt 0 view .LVU1270
 4052 00d0 12F0800F 		tst	r2, #128
 4053 00d4 01D1     		bne	.L271
1675:Drivers/STM32F7xx_HAL_Driver/Src/stm32f7xx_ll_usb.c ****   uint32_t USBx_BASE = (uint32_t)USBx;
 4054              		.loc 1 1675 21 view .LVU1271
 4055 00d6 0020     		movs	r0, #0
 4056 00d8 C1E7     		b	.L250
 4057              	.L271:
1731:Drivers/STM32F7xx_HAL_Driver/Src/stm32f7xx_ll_usb.c ****       }
 4058              		.loc 1 1731 9 is_stmt 1 view .LVU1272
1731:Drivers/STM32F7xx_HAL_Driver/Src/stm32f7xx_ll_usb.c ****       }
 4059              		.loc 1 1731 45 is_stmt 0 view .LVU1273
 4060 00da C568     		ldr	r5, [r0, #12]
 4061 00dc 45F4C075 		orr	r5, r5, #384
 4062 00e0 C560     		str	r5, [r0, #12]
1675:Drivers/STM32F7xx_HAL_Driver/Src/stm32f7xx_ll_usb.c ****   uint32_t USBx_BASE = (uint32_t)USBx;
 4063              		.loc 1 1675 21 view .LVU1274
 4064 00e2 0020     		movs	r0, #0
 4065 00e4 BBE7     		b	.L250
 4066              	.L259:
1680:Drivers/STM32F7xx_HAL_Driver/Src/stm32f7xx_ll_usb.c **** 
 4067              		.loc 1 1680 36 view .LVU1275
 4068 00e6 0120     		movs	r0, #1
 4069 00e8 B9E7     		b	.L250
 4070              	.L260:
1675:Drivers/STM32F7xx_HAL_Driver/Src/stm32f7xx_ll_usb.c ****   uint32_t USBx_BASE = (uint32_t)USBx;
 4071              		.loc 1 1675 21 view .LVU1276
 4072 00ea 0020     		movs	r0, #0
 4073 00ec B7E7     		b	.L250
 4074              	.LVL338:
 4075              	.L268:
ARM GAS  /tmp/cc8xco1Q.s 			page 122


1749:Drivers/STM32F7xx_HAL_Driver/Src/stm32f7xx_ll_usb.c ****   }
 4076              		.loc 1 1749 17 view .LVU1277
 4077 00ee 4FF40044 		mov	r4, #32768
 4078              	.LVL339:
1749:Drivers/STM32F7xx_HAL_Driver/Src/stm32f7xx_ll_usb.c ****   }
 4079              		.loc 1 1749 17 view .LVU1278
 4080 00f2 C6E7     		b	.L256
 4081              	.LVL340:
 4082              	.L269:
1758:Drivers/STM32F7xx_HAL_Driver/Src/stm32f7xx_ll_usb.c ****   }
 4083              		.loc 1 1758 20 view .LVU1279
 4084 00f4 4FF40031 		mov	r1, #131072
 4085 00f8 C8E7     		b	.L257
 4086              	.LVL341:
 4087              	.L270:
1772:Drivers/STM32F7xx_HAL_Driver/Src/stm32f7xx_ll_usb.c ****   }
 4088              		.loc 1 1772 5 is_stmt 1 view .LVU1280
1772:Drivers/STM32F7xx_HAL_Driver/Src/stm32f7xx_ll_usb.c ****   }
 4089              		.loc 1 1772 39 is_stmt 0 view .LVU1281
 4090 00fa DEF80035 		ldr	r3, [lr, #1280]
 4091 00fe 43F00053 		orr	r3, r3, #536870912
 4092 0102 CEF80035 		str	r3, [lr, #1280]
 4093 0106 D9E7     		b	.L258
 4094              		.cfi_endproc
 4095              	.LFE181:
 4097              		.section	.text.USB_HC_ReadInterrupt,"ax",%progbits
 4098              		.align	1
 4099              		.global	USB_HC_ReadInterrupt
 4100              		.syntax unified
 4101              		.thumb
 4102              		.thumb_func
 4103              		.fpu fpv5-d16
 4105              	USB_HC_ReadInterrupt:
 4106              	.LVL342:
 4107              	.LFB183:
1777:Drivers/STM32F7xx_HAL_Driver/Src/stm32f7xx_ll_usb.c **** 
1778:Drivers/STM32F7xx_HAL_Driver/Src/stm32f7xx_ll_usb.c **** /**
1779:Drivers/STM32F7xx_HAL_Driver/Src/stm32f7xx_ll_usb.c ****   * @brief  Start a transfer over a host channel
1780:Drivers/STM32F7xx_HAL_Driver/Src/stm32f7xx_ll_usb.c ****   * @param  USBx  Selected device
1781:Drivers/STM32F7xx_HAL_Driver/Src/stm32f7xx_ll_usb.c ****   * @param  hc  pointer to host channel structure
1782:Drivers/STM32F7xx_HAL_Driver/Src/stm32f7xx_ll_usb.c ****   * @param  dma USB dma enabled or disabled
1783:Drivers/STM32F7xx_HAL_Driver/Src/stm32f7xx_ll_usb.c ****   *          This parameter can be one of these values:
1784:Drivers/STM32F7xx_HAL_Driver/Src/stm32f7xx_ll_usb.c ****   *           0 : DMA feature not used
1785:Drivers/STM32F7xx_HAL_Driver/Src/stm32f7xx_ll_usb.c ****   *           1 : DMA feature used
1786:Drivers/STM32F7xx_HAL_Driver/Src/stm32f7xx_ll_usb.c ****   * @retval HAL state
1787:Drivers/STM32F7xx_HAL_Driver/Src/stm32f7xx_ll_usb.c ****   */
1788:Drivers/STM32F7xx_HAL_Driver/Src/stm32f7xx_ll_usb.c **** HAL_StatusTypeDef USB_HC_StartXfer(USB_OTG_GlobalTypeDef *USBx, USB_OTG_HCTypeDef *hc, uint8_t dma)
1789:Drivers/STM32F7xx_HAL_Driver/Src/stm32f7xx_ll_usb.c **** {
1790:Drivers/STM32F7xx_HAL_Driver/Src/stm32f7xx_ll_usb.c ****   uint32_t USBx_BASE = (uint32_t)USBx;
1791:Drivers/STM32F7xx_HAL_Driver/Src/stm32f7xx_ll_usb.c ****   uint32_t ch_num = (uint32_t)hc->ch_num;
1792:Drivers/STM32F7xx_HAL_Driver/Src/stm32f7xx_ll_usb.c ****   static __IO uint32_t tmpreg = 0U;
1793:Drivers/STM32F7xx_HAL_Driver/Src/stm32f7xx_ll_usb.c ****   uint8_t  is_oddframe;
1794:Drivers/STM32F7xx_HAL_Driver/Src/stm32f7xx_ll_usb.c ****   uint16_t len_words;
1795:Drivers/STM32F7xx_HAL_Driver/Src/stm32f7xx_ll_usb.c ****   uint16_t num_packets;
1796:Drivers/STM32F7xx_HAL_Driver/Src/stm32f7xx_ll_usb.c ****   uint16_t max_hc_pkt_count = 256U;
1797:Drivers/STM32F7xx_HAL_Driver/Src/stm32f7xx_ll_usb.c **** 
1798:Drivers/STM32F7xx_HAL_Driver/Src/stm32f7xx_ll_usb.c ****   if (((USBx->CID & (0x1U << 8)) != 0U) && (hc->speed == USBH_HS_SPEED))
ARM GAS  /tmp/cc8xco1Q.s 			page 123


1799:Drivers/STM32F7xx_HAL_Driver/Src/stm32f7xx_ll_usb.c ****   {
1800:Drivers/STM32F7xx_HAL_Driver/Src/stm32f7xx_ll_usb.c ****     if ((dma == 0U) && (hc->do_ping == 1U))
1801:Drivers/STM32F7xx_HAL_Driver/Src/stm32f7xx_ll_usb.c ****     {
1802:Drivers/STM32F7xx_HAL_Driver/Src/stm32f7xx_ll_usb.c ****       (void)USB_DoPing(USBx, hc->ch_num);
1803:Drivers/STM32F7xx_HAL_Driver/Src/stm32f7xx_ll_usb.c ****       return HAL_OK;
1804:Drivers/STM32F7xx_HAL_Driver/Src/stm32f7xx_ll_usb.c ****     }
1805:Drivers/STM32F7xx_HAL_Driver/Src/stm32f7xx_ll_usb.c ****     else if (dma == 1U)
1806:Drivers/STM32F7xx_HAL_Driver/Src/stm32f7xx_ll_usb.c ****     {
1807:Drivers/STM32F7xx_HAL_Driver/Src/stm32f7xx_ll_usb.c ****       USBx_HC(ch_num)->HCINTMSK &= ~(USB_OTG_HCINTMSK_NYET | USB_OTG_HCINTMSK_ACKM);
1808:Drivers/STM32F7xx_HAL_Driver/Src/stm32f7xx_ll_usb.c ****       hc->do_ping = 0U;
1809:Drivers/STM32F7xx_HAL_Driver/Src/stm32f7xx_ll_usb.c ****     }
1810:Drivers/STM32F7xx_HAL_Driver/Src/stm32f7xx_ll_usb.c ****     else
1811:Drivers/STM32F7xx_HAL_Driver/Src/stm32f7xx_ll_usb.c ****     {
1812:Drivers/STM32F7xx_HAL_Driver/Src/stm32f7xx_ll_usb.c ****       /* ... */
1813:Drivers/STM32F7xx_HAL_Driver/Src/stm32f7xx_ll_usb.c ****     }
1814:Drivers/STM32F7xx_HAL_Driver/Src/stm32f7xx_ll_usb.c ****   }
1815:Drivers/STM32F7xx_HAL_Driver/Src/stm32f7xx_ll_usb.c **** 
1816:Drivers/STM32F7xx_HAL_Driver/Src/stm32f7xx_ll_usb.c ****   /* Compute the expected number of packets associated to the transfer */
1817:Drivers/STM32F7xx_HAL_Driver/Src/stm32f7xx_ll_usb.c ****   if (hc->xfer_len > 0U)
1818:Drivers/STM32F7xx_HAL_Driver/Src/stm32f7xx_ll_usb.c ****   {
1819:Drivers/STM32F7xx_HAL_Driver/Src/stm32f7xx_ll_usb.c ****     num_packets = (uint16_t)((hc->xfer_len + hc->max_packet - 1U) / hc->max_packet);
1820:Drivers/STM32F7xx_HAL_Driver/Src/stm32f7xx_ll_usb.c **** 
1821:Drivers/STM32F7xx_HAL_Driver/Src/stm32f7xx_ll_usb.c ****     if (num_packets > max_hc_pkt_count)
1822:Drivers/STM32F7xx_HAL_Driver/Src/stm32f7xx_ll_usb.c ****     {
1823:Drivers/STM32F7xx_HAL_Driver/Src/stm32f7xx_ll_usb.c ****       num_packets = max_hc_pkt_count;
1824:Drivers/STM32F7xx_HAL_Driver/Src/stm32f7xx_ll_usb.c ****       hc->xfer_len = (uint32_t)num_packets * hc->max_packet;
1825:Drivers/STM32F7xx_HAL_Driver/Src/stm32f7xx_ll_usb.c ****     }
1826:Drivers/STM32F7xx_HAL_Driver/Src/stm32f7xx_ll_usb.c ****   }
1827:Drivers/STM32F7xx_HAL_Driver/Src/stm32f7xx_ll_usb.c ****   else
1828:Drivers/STM32F7xx_HAL_Driver/Src/stm32f7xx_ll_usb.c ****   {
1829:Drivers/STM32F7xx_HAL_Driver/Src/stm32f7xx_ll_usb.c ****     num_packets = 1U;
1830:Drivers/STM32F7xx_HAL_Driver/Src/stm32f7xx_ll_usb.c ****   }
1831:Drivers/STM32F7xx_HAL_Driver/Src/stm32f7xx_ll_usb.c ****   if (hc->ep_is_in != 0U)
1832:Drivers/STM32F7xx_HAL_Driver/Src/stm32f7xx_ll_usb.c ****   {
1833:Drivers/STM32F7xx_HAL_Driver/Src/stm32f7xx_ll_usb.c ****     hc->xfer_len = (uint32_t)num_packets * hc->max_packet;
1834:Drivers/STM32F7xx_HAL_Driver/Src/stm32f7xx_ll_usb.c ****   }
1835:Drivers/STM32F7xx_HAL_Driver/Src/stm32f7xx_ll_usb.c **** 
1836:Drivers/STM32F7xx_HAL_Driver/Src/stm32f7xx_ll_usb.c ****   /* Initialize the HCTSIZn register */
1837:Drivers/STM32F7xx_HAL_Driver/Src/stm32f7xx_ll_usb.c ****   USBx_HC(ch_num)->HCTSIZ = (hc->xfer_len & USB_OTG_HCTSIZ_XFRSIZ) |
1838:Drivers/STM32F7xx_HAL_Driver/Src/stm32f7xx_ll_usb.c ****                             (((uint32_t)num_packets << 19) & USB_OTG_HCTSIZ_PKTCNT) |
1839:Drivers/STM32F7xx_HAL_Driver/Src/stm32f7xx_ll_usb.c ****                             (((uint32_t)hc->data_pid << 29) & USB_OTG_HCTSIZ_DPID);
1840:Drivers/STM32F7xx_HAL_Driver/Src/stm32f7xx_ll_usb.c **** 
1841:Drivers/STM32F7xx_HAL_Driver/Src/stm32f7xx_ll_usb.c ****   if (dma != 0U)
1842:Drivers/STM32F7xx_HAL_Driver/Src/stm32f7xx_ll_usb.c ****   {
1843:Drivers/STM32F7xx_HAL_Driver/Src/stm32f7xx_ll_usb.c ****     /* xfer_buff MUST be 32-bits aligned */
1844:Drivers/STM32F7xx_HAL_Driver/Src/stm32f7xx_ll_usb.c ****     USBx_HC(ch_num)->HCDMA = (uint32_t)hc->xfer_buff;
1845:Drivers/STM32F7xx_HAL_Driver/Src/stm32f7xx_ll_usb.c ****   }
1846:Drivers/STM32F7xx_HAL_Driver/Src/stm32f7xx_ll_usb.c **** 
1847:Drivers/STM32F7xx_HAL_Driver/Src/stm32f7xx_ll_usb.c ****   is_oddframe = (((uint32_t)USBx_HOST->HFNUM & 0x01U) != 0U) ? 0U : 1U;
1848:Drivers/STM32F7xx_HAL_Driver/Src/stm32f7xx_ll_usb.c ****   USBx_HC(ch_num)->HCCHAR &= ~USB_OTG_HCCHAR_ODDFRM;
1849:Drivers/STM32F7xx_HAL_Driver/Src/stm32f7xx_ll_usb.c ****   USBx_HC(ch_num)->HCCHAR |= (uint32_t)is_oddframe << 29;
1850:Drivers/STM32F7xx_HAL_Driver/Src/stm32f7xx_ll_usb.c **** 
1851:Drivers/STM32F7xx_HAL_Driver/Src/stm32f7xx_ll_usb.c ****   /* Set host channel enable */
1852:Drivers/STM32F7xx_HAL_Driver/Src/stm32f7xx_ll_usb.c ****   tmpreg = USBx_HC(ch_num)->HCCHAR;
1853:Drivers/STM32F7xx_HAL_Driver/Src/stm32f7xx_ll_usb.c ****   tmpreg &= ~USB_OTG_HCCHAR_CHDIS;
1854:Drivers/STM32F7xx_HAL_Driver/Src/stm32f7xx_ll_usb.c **** 
1855:Drivers/STM32F7xx_HAL_Driver/Src/stm32f7xx_ll_usb.c ****   /* make sure to set the correct ep direction */
ARM GAS  /tmp/cc8xco1Q.s 			page 124


1856:Drivers/STM32F7xx_HAL_Driver/Src/stm32f7xx_ll_usb.c ****   if (hc->ep_is_in != 0U)
1857:Drivers/STM32F7xx_HAL_Driver/Src/stm32f7xx_ll_usb.c ****   {
1858:Drivers/STM32F7xx_HAL_Driver/Src/stm32f7xx_ll_usb.c ****     tmpreg |= USB_OTG_HCCHAR_EPDIR;
1859:Drivers/STM32F7xx_HAL_Driver/Src/stm32f7xx_ll_usb.c ****   }
1860:Drivers/STM32F7xx_HAL_Driver/Src/stm32f7xx_ll_usb.c ****   else
1861:Drivers/STM32F7xx_HAL_Driver/Src/stm32f7xx_ll_usb.c ****   {
1862:Drivers/STM32F7xx_HAL_Driver/Src/stm32f7xx_ll_usb.c ****     tmpreg &= ~USB_OTG_HCCHAR_EPDIR;
1863:Drivers/STM32F7xx_HAL_Driver/Src/stm32f7xx_ll_usb.c ****   }
1864:Drivers/STM32F7xx_HAL_Driver/Src/stm32f7xx_ll_usb.c ****   tmpreg |= USB_OTG_HCCHAR_CHENA;
1865:Drivers/STM32F7xx_HAL_Driver/Src/stm32f7xx_ll_usb.c ****   USBx_HC(ch_num)->HCCHAR = tmpreg;
1866:Drivers/STM32F7xx_HAL_Driver/Src/stm32f7xx_ll_usb.c **** 
1867:Drivers/STM32F7xx_HAL_Driver/Src/stm32f7xx_ll_usb.c ****   if (dma == 0U) /* Slave mode */
1868:Drivers/STM32F7xx_HAL_Driver/Src/stm32f7xx_ll_usb.c ****   {
1869:Drivers/STM32F7xx_HAL_Driver/Src/stm32f7xx_ll_usb.c ****     if ((hc->ep_is_in == 0U) && (hc->xfer_len > 0U))
1870:Drivers/STM32F7xx_HAL_Driver/Src/stm32f7xx_ll_usb.c ****     {
1871:Drivers/STM32F7xx_HAL_Driver/Src/stm32f7xx_ll_usb.c ****       switch (hc->ep_type)
1872:Drivers/STM32F7xx_HAL_Driver/Src/stm32f7xx_ll_usb.c ****       {
1873:Drivers/STM32F7xx_HAL_Driver/Src/stm32f7xx_ll_usb.c ****         /* Non periodic transfer */
1874:Drivers/STM32F7xx_HAL_Driver/Src/stm32f7xx_ll_usb.c ****         case EP_TYPE_CTRL:
1875:Drivers/STM32F7xx_HAL_Driver/Src/stm32f7xx_ll_usb.c ****         case EP_TYPE_BULK:
1876:Drivers/STM32F7xx_HAL_Driver/Src/stm32f7xx_ll_usb.c **** 
1877:Drivers/STM32F7xx_HAL_Driver/Src/stm32f7xx_ll_usb.c ****           len_words = (uint16_t)((hc->xfer_len + 3U) / 4U);
1878:Drivers/STM32F7xx_HAL_Driver/Src/stm32f7xx_ll_usb.c **** 
1879:Drivers/STM32F7xx_HAL_Driver/Src/stm32f7xx_ll_usb.c ****           /* check if there is enough space in FIFO space */
1880:Drivers/STM32F7xx_HAL_Driver/Src/stm32f7xx_ll_usb.c ****           if (len_words > (USBx->HNPTXSTS & 0xFFFFU))
1881:Drivers/STM32F7xx_HAL_Driver/Src/stm32f7xx_ll_usb.c ****           {
1882:Drivers/STM32F7xx_HAL_Driver/Src/stm32f7xx_ll_usb.c ****             /* need to process data in nptxfempty interrupt */
1883:Drivers/STM32F7xx_HAL_Driver/Src/stm32f7xx_ll_usb.c ****             USBx->GINTMSK |= USB_OTG_GINTMSK_NPTXFEM;
1884:Drivers/STM32F7xx_HAL_Driver/Src/stm32f7xx_ll_usb.c ****           }
1885:Drivers/STM32F7xx_HAL_Driver/Src/stm32f7xx_ll_usb.c ****           break;
1886:Drivers/STM32F7xx_HAL_Driver/Src/stm32f7xx_ll_usb.c **** 
1887:Drivers/STM32F7xx_HAL_Driver/Src/stm32f7xx_ll_usb.c ****         /* Periodic transfer */
1888:Drivers/STM32F7xx_HAL_Driver/Src/stm32f7xx_ll_usb.c ****         case EP_TYPE_INTR:
1889:Drivers/STM32F7xx_HAL_Driver/Src/stm32f7xx_ll_usb.c ****         case EP_TYPE_ISOC:
1890:Drivers/STM32F7xx_HAL_Driver/Src/stm32f7xx_ll_usb.c ****           len_words = (uint16_t)((hc->xfer_len + 3U) / 4U);
1891:Drivers/STM32F7xx_HAL_Driver/Src/stm32f7xx_ll_usb.c ****           /* check if there is enough space in FIFO space */
1892:Drivers/STM32F7xx_HAL_Driver/Src/stm32f7xx_ll_usb.c ****           if (len_words > (USBx_HOST->HPTXSTS & 0xFFFFU)) /* split the transfer */
1893:Drivers/STM32F7xx_HAL_Driver/Src/stm32f7xx_ll_usb.c ****           {
1894:Drivers/STM32F7xx_HAL_Driver/Src/stm32f7xx_ll_usb.c ****             /* need to process data in ptxfempty interrupt */
1895:Drivers/STM32F7xx_HAL_Driver/Src/stm32f7xx_ll_usb.c ****             USBx->GINTMSK |= USB_OTG_GINTMSK_PTXFEM;
1896:Drivers/STM32F7xx_HAL_Driver/Src/stm32f7xx_ll_usb.c ****           }
1897:Drivers/STM32F7xx_HAL_Driver/Src/stm32f7xx_ll_usb.c ****           break;
1898:Drivers/STM32F7xx_HAL_Driver/Src/stm32f7xx_ll_usb.c **** 
1899:Drivers/STM32F7xx_HAL_Driver/Src/stm32f7xx_ll_usb.c ****         default:
1900:Drivers/STM32F7xx_HAL_Driver/Src/stm32f7xx_ll_usb.c ****           break;
1901:Drivers/STM32F7xx_HAL_Driver/Src/stm32f7xx_ll_usb.c ****       }
1902:Drivers/STM32F7xx_HAL_Driver/Src/stm32f7xx_ll_usb.c **** 
1903:Drivers/STM32F7xx_HAL_Driver/Src/stm32f7xx_ll_usb.c ****       /* Write packet into the Tx FIFO. */
1904:Drivers/STM32F7xx_HAL_Driver/Src/stm32f7xx_ll_usb.c ****       (void)USB_WritePacket(USBx, hc->xfer_buff, hc->ch_num, (uint16_t)hc->xfer_len, 0);
1905:Drivers/STM32F7xx_HAL_Driver/Src/stm32f7xx_ll_usb.c ****     }
1906:Drivers/STM32F7xx_HAL_Driver/Src/stm32f7xx_ll_usb.c ****   }
1907:Drivers/STM32F7xx_HAL_Driver/Src/stm32f7xx_ll_usb.c **** 
1908:Drivers/STM32F7xx_HAL_Driver/Src/stm32f7xx_ll_usb.c ****   return HAL_OK;
1909:Drivers/STM32F7xx_HAL_Driver/Src/stm32f7xx_ll_usb.c **** }
1910:Drivers/STM32F7xx_HAL_Driver/Src/stm32f7xx_ll_usb.c **** 
1911:Drivers/STM32F7xx_HAL_Driver/Src/stm32f7xx_ll_usb.c **** /**
1912:Drivers/STM32F7xx_HAL_Driver/Src/stm32f7xx_ll_usb.c ****   * @brief Read all host channel interrupts status
ARM GAS  /tmp/cc8xco1Q.s 			page 125


1913:Drivers/STM32F7xx_HAL_Driver/Src/stm32f7xx_ll_usb.c ****   * @param  USBx  Selected device
1914:Drivers/STM32F7xx_HAL_Driver/Src/stm32f7xx_ll_usb.c ****   * @retval HAL state
1915:Drivers/STM32F7xx_HAL_Driver/Src/stm32f7xx_ll_usb.c ****   */
1916:Drivers/STM32F7xx_HAL_Driver/Src/stm32f7xx_ll_usb.c **** uint32_t USB_HC_ReadInterrupt(USB_OTG_GlobalTypeDef *USBx)
1917:Drivers/STM32F7xx_HAL_Driver/Src/stm32f7xx_ll_usb.c **** {
 4108              		.loc 1 1917 1 is_stmt 1 view -0
 4109              		.cfi_startproc
 4110              		@ args = 0, pretend = 0, frame = 0
 4111              		@ frame_needed = 0, uses_anonymous_args = 0
 4112              		@ link register save eliminated.
1918:Drivers/STM32F7xx_HAL_Driver/Src/stm32f7xx_ll_usb.c ****   uint32_t USBx_BASE = (uint32_t)USBx;
 4113              		.loc 1 1918 3 view .LVU1283
1919:Drivers/STM32F7xx_HAL_Driver/Src/stm32f7xx_ll_usb.c **** 
1920:Drivers/STM32F7xx_HAL_Driver/Src/stm32f7xx_ll_usb.c ****   return ((USBx_HOST->HAINT) & 0xFFFFU);
 4114              		.loc 1 1920 3 view .LVU1284
 4115              		.loc 1 1920 12 is_stmt 0 view .LVU1285
 4116 0000 00F58060 		add	r0, r0, #1024
 4117              	.LVL343:
 4118              		.loc 1 1920 21 view .LVU1286
 4119 0004 4069     		ldr	r0, [r0, #20]
 4120              	.LVL344:
1921:Drivers/STM32F7xx_HAL_Driver/Src/stm32f7xx_ll_usb.c **** }
 4121              		.loc 1 1921 1 view .LVU1287
 4122 0006 80B2     		uxth	r0, r0
 4123 0008 7047     		bx	lr
 4124              		.cfi_endproc
 4125              	.LFE183:
 4127              		.section	.text.USB_HC_Halt,"ax",%progbits
 4128              		.align	1
 4129              		.global	USB_HC_Halt
 4130              		.syntax unified
 4131              		.thumb
 4132              		.thumb_func
 4133              		.fpu fpv5-d16
 4135              	USB_HC_Halt:
 4136              	.LVL345:
 4137              	.LFB184:
1922:Drivers/STM32F7xx_HAL_Driver/Src/stm32f7xx_ll_usb.c **** 
1923:Drivers/STM32F7xx_HAL_Driver/Src/stm32f7xx_ll_usb.c **** /**
1924:Drivers/STM32F7xx_HAL_Driver/Src/stm32f7xx_ll_usb.c ****   * @brief  Halt a host channel
1925:Drivers/STM32F7xx_HAL_Driver/Src/stm32f7xx_ll_usb.c ****   * @param  USBx  Selected device
1926:Drivers/STM32F7xx_HAL_Driver/Src/stm32f7xx_ll_usb.c ****   * @param  hc_num  Host Channel number
1927:Drivers/STM32F7xx_HAL_Driver/Src/stm32f7xx_ll_usb.c ****   *         This parameter can be a value from 1 to 15
1928:Drivers/STM32F7xx_HAL_Driver/Src/stm32f7xx_ll_usb.c ****   * @retval HAL state
1929:Drivers/STM32F7xx_HAL_Driver/Src/stm32f7xx_ll_usb.c ****   */
1930:Drivers/STM32F7xx_HAL_Driver/Src/stm32f7xx_ll_usb.c **** HAL_StatusTypeDef USB_HC_Halt(USB_OTG_GlobalTypeDef *USBx, uint8_t hc_num)
1931:Drivers/STM32F7xx_HAL_Driver/Src/stm32f7xx_ll_usb.c **** {
 4138              		.loc 1 1931 1 is_stmt 1 view -0
 4139              		.cfi_startproc
 4140              		@ args = 0, pretend = 0, frame = 0
 4141              		@ frame_needed = 0, uses_anonymous_args = 0
 4142              		@ link register save eliminated.
1932:Drivers/STM32F7xx_HAL_Driver/Src/stm32f7xx_ll_usb.c ****   uint32_t USBx_BASE = (uint32_t)USBx;
 4143              		.loc 1 1932 3 view .LVU1289
1933:Drivers/STM32F7xx_HAL_Driver/Src/stm32f7xx_ll_usb.c ****   uint32_t hcnum = (uint32_t)hc_num;
 4144              		.loc 1 1933 3 view .LVU1290
1934:Drivers/STM32F7xx_HAL_Driver/Src/stm32f7xx_ll_usb.c ****   uint32_t count = 0U;
ARM GAS  /tmp/cc8xco1Q.s 			page 126


 4145              		.loc 1 1934 3 view .LVU1291
1935:Drivers/STM32F7xx_HAL_Driver/Src/stm32f7xx_ll_usb.c ****   uint32_t HcEpType = (USBx_HC(hcnum)->HCCHAR & USB_OTG_HCCHAR_EPTYP) >> 18;
 4146              		.loc 1 1935 3 view .LVU1292
 4147              		.loc 1 1935 24 is_stmt 0 view .LVU1293
 4148 0000 00EB4111 		add	r1, r0, r1, lsl #5
 4149              	.LVL346:
 4150              		.loc 1 1935 24 view .LVU1294
 4151 0004 01F5A06C 		add	ip, r1, #1280
 4152              		.loc 1 1935 38 view .LVU1295
 4153 0008 D1F80035 		ldr	r3, [r1, #1280]
 4154              		.loc 1 1935 12 view .LVU1296
 4155 000c C3F38142 		ubfx	r2, r3, #18, #2
 4156              	.LVL347:
1936:Drivers/STM32F7xx_HAL_Driver/Src/stm32f7xx_ll_usb.c **** 
1937:Drivers/STM32F7xx_HAL_Driver/Src/stm32f7xx_ll_usb.c ****   /* Check for space in the request queue to issue the halt. */
1938:Drivers/STM32F7xx_HAL_Driver/Src/stm32f7xx_ll_usb.c ****   if ((HcEpType == HCCHAR_CTRL) || (HcEpType == HCCHAR_BULK))
 4157              		.loc 1 1938 3 is_stmt 1 view .LVU1297
 4158              		.loc 1 1938 17 is_stmt 0 view .LVU1298
 4159 0010 13F4402F 		tst	r3, #786432
 4160 0014 0CBF     		ite	eq
 4161 0016 0123     		moveq	r3, #1
 4162 0018 0023     		movne	r3, #0
 4163              		.loc 1 1938 33 view .LVU1299
 4164 001a 022A     		cmp	r2, #2
 4165 001c 08BF     		it	eq
 4166 001e 43F00103 		orreq	r3, r3, #1
 4167              		.loc 1 1938 6 view .LVU1300
 4168 0022 63B3     		cbz	r3, .L274
1939:Drivers/STM32F7xx_HAL_Driver/Src/stm32f7xx_ll_usb.c ****   {
1940:Drivers/STM32F7xx_HAL_Driver/Src/stm32f7xx_ll_usb.c ****     USBx_HC(hcnum)->HCCHAR |= USB_OTG_HCCHAR_CHDIS;
 4169              		.loc 1 1940 5 is_stmt 1 view .LVU1301
 4170              		.loc 1 1940 28 is_stmt 0 view .LVU1302
 4171 0024 D1F80035 		ldr	r3, [r1, #1280]
 4172 0028 43F08043 		orr	r3, r3, #1073741824
 4173 002c C1F80035 		str	r3, [r1, #1280]
1941:Drivers/STM32F7xx_HAL_Driver/Src/stm32f7xx_ll_usb.c **** 
1942:Drivers/STM32F7xx_HAL_Driver/Src/stm32f7xx_ll_usb.c ****     if ((USBx->HNPTXSTS & (0xFFU << 16)) == 0U)
 4174              		.loc 1 1942 5 is_stmt 1 view .LVU1303
 4175              		.loc 1 1942 14 is_stmt 0 view .LVU1304
 4176 0030 C36A     		ldr	r3, [r0, #44]
 4177              		.loc 1 1942 8 view .LVU1305
 4178 0032 13F47F03 		ands	r3, r3, #16711680
 4179 0036 1AD1     		bne	.L275
1943:Drivers/STM32F7xx_HAL_Driver/Src/stm32f7xx_ll_usb.c ****     {
1944:Drivers/STM32F7xx_HAL_Driver/Src/stm32f7xx_ll_usb.c ****       USBx_HC(hcnum)->HCCHAR &= ~USB_OTG_HCCHAR_CHENA;
 4180              		.loc 1 1944 7 is_stmt 1 view .LVU1306
 4181              		.loc 1 1944 30 is_stmt 0 view .LVU1307
 4182 0038 D1F80025 		ldr	r2, [r1, #1280]
 4183              	.LVL348:
 4184              		.loc 1 1944 30 view .LVU1308
 4185 003c 22F00042 		bic	r2, r2, #-2147483648
 4186 0040 C1F80025 		str	r2, [r1, #1280]
1945:Drivers/STM32F7xx_HAL_Driver/Src/stm32f7xx_ll_usb.c ****       USBx_HC(hcnum)->HCCHAR |= USB_OTG_HCCHAR_CHENA;
 4187              		.loc 1 1945 7 is_stmt 1 view .LVU1309
 4188              		.loc 1 1945 30 is_stmt 0 view .LVU1310
 4189 0044 D1F80025 		ldr	r2, [r1, #1280]
 4190 0048 42F00042 		orr	r2, r2, #-2147483648
ARM GAS  /tmp/cc8xco1Q.s 			page 127


 4191 004c C1F80025 		str	r2, [r1, #1280]
1946:Drivers/STM32F7xx_HAL_Driver/Src/stm32f7xx_ll_usb.c ****       USBx_HC(hcnum)->HCCHAR &= ~USB_OTG_HCCHAR_EPDIR;
 4192              		.loc 1 1946 7 is_stmt 1 view .LVU1311
 4193              		.loc 1 1946 30 is_stmt 0 view .LVU1312
 4194 0050 D1F80025 		ldr	r2, [r1, #1280]
 4195 0054 22F40042 		bic	r2, r2, #32768
 4196 0058 C1F80025 		str	r2, [r1, #1280]
 4197              	.LVL349:
 4198              	.L277:
1947:Drivers/STM32F7xx_HAL_Driver/Src/stm32f7xx_ll_usb.c ****       do
 4199              		.loc 1 1947 7 is_stmt 1 view .LVU1313
1948:Drivers/STM32F7xx_HAL_Driver/Src/stm32f7xx_ll_usb.c ****       {
1949:Drivers/STM32F7xx_HAL_Driver/Src/stm32f7xx_ll_usb.c ****         if (++count > 1000U)
 4200              		.loc 1 1949 9 view .LVU1314
 4201              		.loc 1 1949 12 is_stmt 0 view .LVU1315
 4202 005c 0133     		adds	r3, r3, #1
 4203              	.LVL350:
 4204              		.loc 1 1949 12 view .LVU1316
 4205 005e B3F57A7F 		cmp	r3, #1000
 4206 0062 0AD8     		bhi	.L276
1950:Drivers/STM32F7xx_HAL_Driver/Src/stm32f7xx_ll_usb.c ****         {
1951:Drivers/STM32F7xx_HAL_Driver/Src/stm32f7xx_ll_usb.c ****           break;
1952:Drivers/STM32F7xx_HAL_Driver/Src/stm32f7xx_ll_usb.c ****         }
1953:Drivers/STM32F7xx_HAL_Driver/Src/stm32f7xx_ll_usb.c ****       }
1954:Drivers/STM32F7xx_HAL_Driver/Src/stm32f7xx_ll_usb.c ****       while ((USBx_HC(hcnum)->HCCHAR & USB_OTG_HCCHAR_CHENA) == USB_OTG_HCCHAR_CHENA);
 4207              		.loc 1 1954 13 is_stmt 1 view .LVU1317
 4208              		.loc 1 1954 29 is_stmt 0 view .LVU1318
 4209 0064 DCF80020 		ldr	r2, [ip]
 4210              		.loc 1 1954 7 view .LVU1319
 4211 0068 002A     		cmp	r2, #0
 4212 006a F7DB     		blt	.L277
 4213 006c 05E0     		b	.L276
 4214              	.LVL351:
 4215              	.L275:
1955:Drivers/STM32F7xx_HAL_Driver/Src/stm32f7xx_ll_usb.c ****     }
1956:Drivers/STM32F7xx_HAL_Driver/Src/stm32f7xx_ll_usb.c ****     else
1957:Drivers/STM32F7xx_HAL_Driver/Src/stm32f7xx_ll_usb.c ****     {
1958:Drivers/STM32F7xx_HAL_Driver/Src/stm32f7xx_ll_usb.c ****       USBx_HC(hcnum)->HCCHAR |= USB_OTG_HCCHAR_CHENA;
 4216              		.loc 1 1958 7 is_stmt 1 view .LVU1320
 4217              		.loc 1 1958 30 is_stmt 0 view .LVU1321
 4218 006e D1F80035 		ldr	r3, [r1, #1280]
 4219 0072 43F00043 		orr	r3, r3, #-2147483648
 4220 0076 C1F80035 		str	r3, [r1, #1280]
 4221              	.LVL352:
 4222              	.L276:
1959:Drivers/STM32F7xx_HAL_Driver/Src/stm32f7xx_ll_usb.c ****     }
1960:Drivers/STM32F7xx_HAL_Driver/Src/stm32f7xx_ll_usb.c ****   }
1961:Drivers/STM32F7xx_HAL_Driver/Src/stm32f7xx_ll_usb.c ****   else
1962:Drivers/STM32F7xx_HAL_Driver/Src/stm32f7xx_ll_usb.c ****   {
1963:Drivers/STM32F7xx_HAL_Driver/Src/stm32f7xx_ll_usb.c ****     USBx_HC(hcnum)->HCCHAR |= USB_OTG_HCCHAR_CHDIS;
1964:Drivers/STM32F7xx_HAL_Driver/Src/stm32f7xx_ll_usb.c **** 
1965:Drivers/STM32F7xx_HAL_Driver/Src/stm32f7xx_ll_usb.c ****     if ((USBx_HOST->HPTXSTS & (0xFFU << 16)) == 0U)
1966:Drivers/STM32F7xx_HAL_Driver/Src/stm32f7xx_ll_usb.c ****     {
1967:Drivers/STM32F7xx_HAL_Driver/Src/stm32f7xx_ll_usb.c ****       USBx_HC(hcnum)->HCCHAR &= ~USB_OTG_HCCHAR_CHENA;
1968:Drivers/STM32F7xx_HAL_Driver/Src/stm32f7xx_ll_usb.c ****       USBx_HC(hcnum)->HCCHAR |= USB_OTG_HCCHAR_CHENA;
1969:Drivers/STM32F7xx_HAL_Driver/Src/stm32f7xx_ll_usb.c ****       USBx_HC(hcnum)->HCCHAR &= ~USB_OTG_HCCHAR_EPDIR;
1970:Drivers/STM32F7xx_HAL_Driver/Src/stm32f7xx_ll_usb.c ****       do
ARM GAS  /tmp/cc8xco1Q.s 			page 128


1971:Drivers/STM32F7xx_HAL_Driver/Src/stm32f7xx_ll_usb.c ****       {
1972:Drivers/STM32F7xx_HAL_Driver/Src/stm32f7xx_ll_usb.c ****         if (++count > 1000U)
1973:Drivers/STM32F7xx_HAL_Driver/Src/stm32f7xx_ll_usb.c ****         {
1974:Drivers/STM32F7xx_HAL_Driver/Src/stm32f7xx_ll_usb.c ****           break;
1975:Drivers/STM32F7xx_HAL_Driver/Src/stm32f7xx_ll_usb.c ****         }
1976:Drivers/STM32F7xx_HAL_Driver/Src/stm32f7xx_ll_usb.c ****       }
1977:Drivers/STM32F7xx_HAL_Driver/Src/stm32f7xx_ll_usb.c ****       while ((USBx_HC(hcnum)->HCCHAR & USB_OTG_HCCHAR_CHENA) == USB_OTG_HCCHAR_CHENA);
1978:Drivers/STM32F7xx_HAL_Driver/Src/stm32f7xx_ll_usb.c ****     }
1979:Drivers/STM32F7xx_HAL_Driver/Src/stm32f7xx_ll_usb.c ****     else
1980:Drivers/STM32F7xx_HAL_Driver/Src/stm32f7xx_ll_usb.c ****     {
1981:Drivers/STM32F7xx_HAL_Driver/Src/stm32f7xx_ll_usb.c ****       USBx_HC(hcnum)->HCCHAR |= USB_OTG_HCCHAR_CHENA;
1982:Drivers/STM32F7xx_HAL_Driver/Src/stm32f7xx_ll_usb.c ****     }
1983:Drivers/STM32F7xx_HAL_Driver/Src/stm32f7xx_ll_usb.c ****   }
1984:Drivers/STM32F7xx_HAL_Driver/Src/stm32f7xx_ll_usb.c **** 
1985:Drivers/STM32F7xx_HAL_Driver/Src/stm32f7xx_ll_usb.c ****   return HAL_OK;
 4223              		.loc 1 1985 3 is_stmt 1 view .LVU1322
1986:Drivers/STM32F7xx_HAL_Driver/Src/stm32f7xx_ll_usb.c **** }
 4224              		.loc 1 1986 1 is_stmt 0 view .LVU1323
 4225 007a 0020     		movs	r0, #0
 4226              	.LVL353:
 4227              		.loc 1 1986 1 view .LVU1324
 4228 007c 7047     		bx	lr
 4229              	.LVL354:
 4230              	.L274:
1963:Drivers/STM32F7xx_HAL_Driver/Src/stm32f7xx_ll_usb.c **** 
 4231              		.loc 1 1963 5 is_stmt 1 view .LVU1325
1963:Drivers/STM32F7xx_HAL_Driver/Src/stm32f7xx_ll_usb.c **** 
 4232              		.loc 1 1963 28 is_stmt 0 view .LVU1326
 4233 007e D1F80035 		ldr	r3, [r1, #1280]
 4234 0082 43F08043 		orr	r3, r3, #1073741824
 4235 0086 C1F80035 		str	r3, [r1, #1280]
1965:Drivers/STM32F7xx_HAL_Driver/Src/stm32f7xx_ll_usb.c ****     {
 4236              		.loc 1 1965 5 is_stmt 1 view .LVU1327
1965:Drivers/STM32F7xx_HAL_Driver/Src/stm32f7xx_ll_usb.c ****     {
 4237              		.loc 1 1965 19 is_stmt 0 view .LVU1328
 4238 008a D0F81034 		ldr	r3, [r0, #1040]
1965:Drivers/STM32F7xx_HAL_Driver/Src/stm32f7xx_ll_usb.c ****     {
 4239              		.loc 1 1965 8 view .LVU1329
 4240 008e 13F47F03 		ands	r3, r3, #16711680
 4241 0092 1AD1     		bne	.L278
1967:Drivers/STM32F7xx_HAL_Driver/Src/stm32f7xx_ll_usb.c ****       USBx_HC(hcnum)->HCCHAR |= USB_OTG_HCCHAR_CHENA;
 4242              		.loc 1 1967 7 is_stmt 1 view .LVU1330
1967:Drivers/STM32F7xx_HAL_Driver/Src/stm32f7xx_ll_usb.c ****       USBx_HC(hcnum)->HCCHAR |= USB_OTG_HCCHAR_CHENA;
 4243              		.loc 1 1967 30 is_stmt 0 view .LVU1331
 4244 0094 D1F80025 		ldr	r2, [r1, #1280]
 4245              	.LVL355:
1967:Drivers/STM32F7xx_HAL_Driver/Src/stm32f7xx_ll_usb.c ****       USBx_HC(hcnum)->HCCHAR |= USB_OTG_HCCHAR_CHENA;
 4246              		.loc 1 1967 30 view .LVU1332
 4247 0098 22F00042 		bic	r2, r2, #-2147483648
 4248 009c C1F80025 		str	r2, [r1, #1280]
1968:Drivers/STM32F7xx_HAL_Driver/Src/stm32f7xx_ll_usb.c ****       USBx_HC(hcnum)->HCCHAR &= ~USB_OTG_HCCHAR_EPDIR;
 4249              		.loc 1 1968 7 is_stmt 1 view .LVU1333
1968:Drivers/STM32F7xx_HAL_Driver/Src/stm32f7xx_ll_usb.c ****       USBx_HC(hcnum)->HCCHAR &= ~USB_OTG_HCCHAR_EPDIR;
 4250              		.loc 1 1968 30 is_stmt 0 view .LVU1334
 4251 00a0 D1F80025 		ldr	r2, [r1, #1280]
 4252 00a4 42F00042 		orr	r2, r2, #-2147483648
 4253 00a8 C1F80025 		str	r2, [r1, #1280]
ARM GAS  /tmp/cc8xco1Q.s 			page 129


1969:Drivers/STM32F7xx_HAL_Driver/Src/stm32f7xx_ll_usb.c ****       do
 4254              		.loc 1 1969 7 is_stmt 1 view .LVU1335
1969:Drivers/STM32F7xx_HAL_Driver/Src/stm32f7xx_ll_usb.c ****       do
 4255              		.loc 1 1969 30 is_stmt 0 view .LVU1336
 4256 00ac D1F80025 		ldr	r2, [r1, #1280]
 4257 00b0 22F40042 		bic	r2, r2, #32768
 4258 00b4 C1F80025 		str	r2, [r1, #1280]
 4259              	.LVL356:
 4260              	.L279:
1970:Drivers/STM32F7xx_HAL_Driver/Src/stm32f7xx_ll_usb.c ****       {
 4261              		.loc 1 1970 7 is_stmt 1 view .LVU1337
1972:Drivers/STM32F7xx_HAL_Driver/Src/stm32f7xx_ll_usb.c ****         {
 4262              		.loc 1 1972 9 view .LVU1338
1972:Drivers/STM32F7xx_HAL_Driver/Src/stm32f7xx_ll_usb.c ****         {
 4263              		.loc 1 1972 12 is_stmt 0 view .LVU1339
 4264 00b8 0133     		adds	r3, r3, #1
 4265              	.LVL357:
1972:Drivers/STM32F7xx_HAL_Driver/Src/stm32f7xx_ll_usb.c ****         {
 4266              		.loc 1 1972 12 view .LVU1340
 4267 00ba B3F57A7F 		cmp	r3, #1000
 4268 00be DCD8     		bhi	.L276
1977:Drivers/STM32F7xx_HAL_Driver/Src/stm32f7xx_ll_usb.c ****     }
 4269              		.loc 1 1977 13 is_stmt 1 view .LVU1341
1977:Drivers/STM32F7xx_HAL_Driver/Src/stm32f7xx_ll_usb.c ****     }
 4270              		.loc 1 1977 29 is_stmt 0 view .LVU1342
 4271 00c0 DCF80020 		ldr	r2, [ip]
1977:Drivers/STM32F7xx_HAL_Driver/Src/stm32f7xx_ll_usb.c ****     }
 4272              		.loc 1 1977 7 view .LVU1343
 4273 00c4 002A     		cmp	r2, #0
 4274 00c6 F7DB     		blt	.L279
 4275 00c8 D7E7     		b	.L276
 4276              	.LVL358:
 4277              	.L278:
1981:Drivers/STM32F7xx_HAL_Driver/Src/stm32f7xx_ll_usb.c ****     }
 4278              		.loc 1 1981 7 is_stmt 1 view .LVU1344
1981:Drivers/STM32F7xx_HAL_Driver/Src/stm32f7xx_ll_usb.c ****     }
 4279              		.loc 1 1981 30 is_stmt 0 view .LVU1345
 4280 00ca D1F80035 		ldr	r3, [r1, #1280]
 4281 00ce 43F00043 		orr	r3, r3, #-2147483648
 4282 00d2 C1F80035 		str	r3, [r1, #1280]
 4283 00d6 D0E7     		b	.L276
 4284              		.cfi_endproc
 4285              	.LFE184:
 4287              		.section	.text.USB_DoPing,"ax",%progbits
 4288              		.align	1
 4289              		.global	USB_DoPing
 4290              		.syntax unified
 4291              		.thumb
 4292              		.thumb_func
 4293              		.fpu fpv5-d16
 4295              	USB_DoPing:
 4296              	.LVL359:
 4297              	.LFB185:
1987:Drivers/STM32F7xx_HAL_Driver/Src/stm32f7xx_ll_usb.c **** 
1988:Drivers/STM32F7xx_HAL_Driver/Src/stm32f7xx_ll_usb.c **** /**
1989:Drivers/STM32F7xx_HAL_Driver/Src/stm32f7xx_ll_usb.c ****   * @brief  Initiate Do Ping protocol
1990:Drivers/STM32F7xx_HAL_Driver/Src/stm32f7xx_ll_usb.c ****   * @param  USBx  Selected device
ARM GAS  /tmp/cc8xco1Q.s 			page 130


1991:Drivers/STM32F7xx_HAL_Driver/Src/stm32f7xx_ll_usb.c ****   * @param  hc_num  Host Channel number
1992:Drivers/STM32F7xx_HAL_Driver/Src/stm32f7xx_ll_usb.c ****   *         This parameter can be a value from 1 to 15
1993:Drivers/STM32F7xx_HAL_Driver/Src/stm32f7xx_ll_usb.c ****   * @retval HAL state
1994:Drivers/STM32F7xx_HAL_Driver/Src/stm32f7xx_ll_usb.c ****   */
1995:Drivers/STM32F7xx_HAL_Driver/Src/stm32f7xx_ll_usb.c **** HAL_StatusTypeDef USB_DoPing(USB_OTG_GlobalTypeDef *USBx, uint8_t ch_num)
1996:Drivers/STM32F7xx_HAL_Driver/Src/stm32f7xx_ll_usb.c **** {
 4298              		.loc 1 1996 1 is_stmt 1 view -0
 4299              		.cfi_startproc
 4300              		@ args = 0, pretend = 0, frame = 0
 4301              		@ frame_needed = 0, uses_anonymous_args = 0
 4302              		@ link register save eliminated.
1997:Drivers/STM32F7xx_HAL_Driver/Src/stm32f7xx_ll_usb.c ****   uint32_t USBx_BASE = (uint32_t)USBx;
 4303              		.loc 1 1997 3 view .LVU1347
1998:Drivers/STM32F7xx_HAL_Driver/Src/stm32f7xx_ll_usb.c ****   uint32_t chnum = (uint32_t)ch_num;
 4304              		.loc 1 1998 3 view .LVU1348
1999:Drivers/STM32F7xx_HAL_Driver/Src/stm32f7xx_ll_usb.c ****   uint32_t num_packets = 1U;
 4305              		.loc 1 1999 3 view .LVU1349
2000:Drivers/STM32F7xx_HAL_Driver/Src/stm32f7xx_ll_usb.c ****   uint32_t tmpreg;
 4306              		.loc 1 2000 3 view .LVU1350
2001:Drivers/STM32F7xx_HAL_Driver/Src/stm32f7xx_ll_usb.c **** 
2002:Drivers/STM32F7xx_HAL_Driver/Src/stm32f7xx_ll_usb.c ****   USBx_HC(chnum)->HCTSIZ = ((num_packets << 19) & USB_OTG_HCTSIZ_PKTCNT) |
 4307              		.loc 1 2002 3 view .LVU1351
 4308 0000 00EB4111 		add	r1, r0, r1, lsl #5
 4309              	.LVL360:
 4310              		.loc 1 2002 26 is_stmt 0 view .LVU1352
 4311 0004 064A     		ldr	r2, .L281
 4312 0006 C1F81025 		str	r2, [r1, #1296]
2003:Drivers/STM32F7xx_HAL_Driver/Src/stm32f7xx_ll_usb.c ****                            USB_OTG_HCTSIZ_DOPING;
2004:Drivers/STM32F7xx_HAL_Driver/Src/stm32f7xx_ll_usb.c **** 
2005:Drivers/STM32F7xx_HAL_Driver/Src/stm32f7xx_ll_usb.c ****   /* Set host channel enable */
2006:Drivers/STM32F7xx_HAL_Driver/Src/stm32f7xx_ll_usb.c ****   tmpreg = USBx_HC(chnum)->HCCHAR;
 4313              		.loc 1 2006 3 is_stmt 1 view .LVU1353
 4314              		.loc 1 2006 10 is_stmt 0 view .LVU1354
 4315 000a D1F80035 		ldr	r3, [r1, #1280]
 4316              	.LVL361:
2007:Drivers/STM32F7xx_HAL_Driver/Src/stm32f7xx_ll_usb.c ****   tmpreg &= ~USB_OTG_HCCHAR_CHDIS;
 4317              		.loc 1 2007 3 is_stmt 1 view .LVU1355
 4318              		.loc 1 2007 10 is_stmt 0 view .LVU1356
 4319 000e 23F08043 		bic	r3, r3, #1073741824
 4320              	.LVL362:
2008:Drivers/STM32F7xx_HAL_Driver/Src/stm32f7xx_ll_usb.c ****   tmpreg |= USB_OTG_HCCHAR_CHENA;
 4321              		.loc 1 2008 3 is_stmt 1 view .LVU1357
 4322              		.loc 1 2008 10 is_stmt 0 view .LVU1358
 4323 0012 43F00043 		orr	r3, r3, #-2147483648
 4324              	.LVL363:
2009:Drivers/STM32F7xx_HAL_Driver/Src/stm32f7xx_ll_usb.c ****   USBx_HC(chnum)->HCCHAR = tmpreg;
 4325              		.loc 1 2009 3 is_stmt 1 view .LVU1359
 4326              		.loc 1 2009 26 is_stmt 0 view .LVU1360
 4327 0016 C1F80035 		str	r3, [r1, #1280]
2010:Drivers/STM32F7xx_HAL_Driver/Src/stm32f7xx_ll_usb.c **** 
2011:Drivers/STM32F7xx_HAL_Driver/Src/stm32f7xx_ll_usb.c ****   return HAL_OK;
 4328              		.loc 1 2011 3 is_stmt 1 view .LVU1361
2012:Drivers/STM32F7xx_HAL_Driver/Src/stm32f7xx_ll_usb.c **** }
 4329              		.loc 1 2012 1 is_stmt 0 view .LVU1362
 4330 001a 0020     		movs	r0, #0
 4331              	.LVL364:
 4332              		.loc 1 2012 1 view .LVU1363
ARM GAS  /tmp/cc8xco1Q.s 			page 131


 4333 001c 7047     		bx	lr
 4334              	.L282:
 4335 001e 00BF     		.align	2
 4336              	.L281:
 4337 0020 00000880 		.word	-2146959360
 4338              		.cfi_endproc
 4339              	.LFE185:
 4341              		.section	.text.USB_HC_StartXfer,"ax",%progbits
 4342              		.align	1
 4343              		.global	USB_HC_StartXfer
 4344              		.syntax unified
 4345              		.thumb
 4346              		.thumb_func
 4347              		.fpu fpv5-d16
 4349              	USB_HC_StartXfer:
 4350              	.LVL365:
 4351              	.LFB182:
1789:Drivers/STM32F7xx_HAL_Driver/Src/stm32f7xx_ll_usb.c ****   uint32_t USBx_BASE = (uint32_t)USBx;
 4352              		.loc 1 1789 1 is_stmt 1 view -0
 4353              		.cfi_startproc
 4354              		@ args = 0, pretend = 0, frame = 0
 4355              		@ frame_needed = 0, uses_anonymous_args = 0
1789:Drivers/STM32F7xx_HAL_Driver/Src/stm32f7xx_ll_usb.c ****   uint32_t USBx_BASE = (uint32_t)USBx;
 4356              		.loc 1 1789 1 is_stmt 0 view .LVU1365
 4357 0000 30B5     		push	{r4, r5, lr}
 4358              	.LCFI48:
 4359              		.cfi_def_cfa_offset 12
 4360              		.cfi_offset 4, -12
 4361              		.cfi_offset 5, -8
 4362              		.cfi_offset 14, -4
 4363 0002 83B0     		sub	sp, sp, #12
 4364              	.LCFI49:
 4365              		.cfi_def_cfa_offset 24
1790:Drivers/STM32F7xx_HAL_Driver/Src/stm32f7xx_ll_usb.c ****   uint32_t ch_num = (uint32_t)hc->ch_num;
 4366              		.loc 1 1790 3 is_stmt 1 view .LVU1366
 4367              	.LVL366:
1791:Drivers/STM32F7xx_HAL_Driver/Src/stm32f7xx_ll_usb.c ****   static __IO uint32_t tmpreg = 0U;
 4368              		.loc 1 1791 3 view .LVU1367
1791:Drivers/STM32F7xx_HAL_Driver/Src/stm32f7xx_ll_usb.c ****   static __IO uint32_t tmpreg = 0U;
 4369              		.loc 1 1791 33 is_stmt 0 view .LVU1368
 4370 0004 91F801C0 		ldrb	ip, [r1, #1]	@ zero_extendqisi2
 4371              	.LVL367:
1792:Drivers/STM32F7xx_HAL_Driver/Src/stm32f7xx_ll_usb.c ****   uint8_t  is_oddframe;
 4372              		.loc 1 1792 3 is_stmt 1 view .LVU1369
1793:Drivers/STM32F7xx_HAL_Driver/Src/stm32f7xx_ll_usb.c ****   uint16_t len_words;
 4373              		.loc 1 1793 3 view .LVU1370
1794:Drivers/STM32F7xx_HAL_Driver/Src/stm32f7xx_ll_usb.c ****   uint16_t num_packets;
 4374              		.loc 1 1794 3 view .LVU1371
1795:Drivers/STM32F7xx_HAL_Driver/Src/stm32f7xx_ll_usb.c ****   uint16_t max_hc_pkt_count = 256U;
 4375              		.loc 1 1795 3 view .LVU1372
1796:Drivers/STM32F7xx_HAL_Driver/Src/stm32f7xx_ll_usb.c **** 
 4376              		.loc 1 1796 3 view .LVU1373
1798:Drivers/STM32F7xx_HAL_Driver/Src/stm32f7xx_ll_usb.c ****   {
 4377              		.loc 1 1798 3 view .LVU1374
1798:Drivers/STM32F7xx_HAL_Driver/Src/stm32f7xx_ll_usb.c ****   {
 4378              		.loc 1 1798 13 is_stmt 0 view .LVU1375
 4379 0008 C36B     		ldr	r3, [r0, #60]
ARM GAS  /tmp/cc8xco1Q.s 			page 132


1798:Drivers/STM32F7xx_HAL_Driver/Src/stm32f7xx_ll_usb.c ****   {
 4380              		.loc 1 1798 6 view .LVU1376
 4381 000a 13F4807F 		tst	r3, #256
 4382 000e 07D0     		beq	.L284
1798:Drivers/STM32F7xx_HAL_Driver/Src/stm32f7xx_ll_usb.c ****   {
 4383              		.loc 1 1798 47 discriminator 1 view .LVU1377
 4384 0010 0B79     		ldrb	r3, [r1, #4]	@ zero_extendqisi2
1798:Drivers/STM32F7xx_HAL_Driver/Src/stm32f7xx_ll_usb.c ****   {
 4385              		.loc 1 1798 41 discriminator 1 view .LVU1378
 4386 0012 2BB9     		cbnz	r3, .L284
1800:Drivers/STM32F7xx_HAL_Driver/Src/stm32f7xx_ll_usb.c ****     {
 4387              		.loc 1 1800 5 is_stmt 1 view .LVU1379
1800:Drivers/STM32F7xx_HAL_Driver/Src/stm32f7xx_ll_usb.c ****     {
 4388              		.loc 1 1800 8 is_stmt 0 view .LVU1380
 4389 0014 12B9     		cbnz	r2, .L285
1800:Drivers/STM32F7xx_HAL_Driver/Src/stm32f7xx_ll_usb.c ****     {
 4390              		.loc 1 1800 27 discriminator 1 view .LVU1381
 4391 0016 4B79     		ldrb	r3, [r1, #5]	@ zero_extendqisi2
1800:Drivers/STM32F7xx_HAL_Driver/Src/stm32f7xx_ll_usb.c ****     {
 4392              		.loc 1 1800 21 discriminator 1 view .LVU1382
 4393 0018 012B     		cmp	r3, #1
 4394 001a 11D0     		beq	.L298
 4395              	.L285:
1805:Drivers/STM32F7xx_HAL_Driver/Src/stm32f7xx_ll_usb.c ****     {
 4396              		.loc 1 1805 10 is_stmt 1 view .LVU1383
1805:Drivers/STM32F7xx_HAL_Driver/Src/stm32f7xx_ll_usb.c ****     {
 4397              		.loc 1 1805 13 is_stmt 0 view .LVU1384
 4398 001c 012A     		cmp	r2, #1
 4399 001e 13D0     		beq	.L299
 4400              	.L284:
1813:Drivers/STM32F7xx_HAL_Driver/Src/stm32f7xx_ll_usb.c ****   }
 4401              		.loc 1 1813 5 is_stmt 1 view .LVU1385
1817:Drivers/STM32F7xx_HAL_Driver/Src/stm32f7xx_ll_usb.c ****   {
 4402              		.loc 1 1817 3 view .LVU1386
1817:Drivers/STM32F7xx_HAL_Driver/Src/stm32f7xx_ll_usb.c ****   {
 4403              		.loc 1 1817 9 is_stmt 0 view .LVU1387
 4404 0020 0B69     		ldr	r3, [r1, #16]
1817:Drivers/STM32F7xx_HAL_Driver/Src/stm32f7xx_ll_usb.c ****   {
 4405              		.loc 1 1817 6 view .LVU1388
 4406 0022 E3B1     		cbz	r3, .L296
1819:Drivers/STM32F7xx_HAL_Driver/Src/stm32f7xx_ll_usb.c **** 
 4407              		.loc 1 1819 5 is_stmt 1 view .LVU1389
1819:Drivers/STM32F7xx_HAL_Driver/Src/stm32f7xx_ll_usb.c **** 
 4408              		.loc 1 1819 48 is_stmt 0 view .LVU1390
 4409 0024 0C89     		ldrh	r4, [r1, #8]
1819:Drivers/STM32F7xx_HAL_Driver/Src/stm32f7xx_ll_usb.c **** 
 4410              		.loc 1 1819 44 view .LVU1391
 4411 0026 2344     		add	r3, r3, r4
1819:Drivers/STM32F7xx_HAL_Driver/Src/stm32f7xx_ll_usb.c **** 
 4412              		.loc 1 1819 61 view .LVU1392
 4413 0028 013B     		subs	r3, r3, #1
1819:Drivers/STM32F7xx_HAL_Driver/Src/stm32f7xx_ll_usb.c **** 
 4414              		.loc 1 1819 67 view .LVU1393
 4415 002a B3FBF4F3 		udiv	r3, r3, r4
1819:Drivers/STM32F7xx_HAL_Driver/Src/stm32f7xx_ll_usb.c **** 
 4416              		.loc 1 1819 17 view .LVU1394
 4417 002e 9BB2     		uxth	r3, r3
ARM GAS  /tmp/cc8xco1Q.s 			page 133


 4418              	.LVL368:
1821:Drivers/STM32F7xx_HAL_Driver/Src/stm32f7xx_ll_usb.c ****     {
 4419              		.loc 1 1821 5 is_stmt 1 view .LVU1395
1821:Drivers/STM32F7xx_HAL_Driver/Src/stm32f7xx_ll_usb.c ****     {
 4420              		.loc 1 1821 8 is_stmt 0 view .LVU1396
 4421 0030 B3F5807F 		cmp	r3, #256
 4422 0034 14D9     		bls	.L287
1823:Drivers/STM32F7xx_HAL_Driver/Src/stm32f7xx_ll_usb.c ****       hc->xfer_len = (uint32_t)num_packets * hc->max_packet;
 4423              		.loc 1 1823 7 is_stmt 1 view .LVU1397
 4424              	.LVL369:
1824:Drivers/STM32F7xx_HAL_Driver/Src/stm32f7xx_ll_usb.c ****     }
 4425              		.loc 1 1824 7 view .LVU1398
1824:Drivers/STM32F7xx_HAL_Driver/Src/stm32f7xx_ll_usb.c ****     }
 4426              		.loc 1 1824 44 is_stmt 0 view .LVU1399
 4427 0036 2402     		lsls	r4, r4, #8
1824:Drivers/STM32F7xx_HAL_Driver/Src/stm32f7xx_ll_usb.c ****     }
 4428              		.loc 1 1824 20 view .LVU1400
 4429 0038 0C61     		str	r4, [r1, #16]
1823:Drivers/STM32F7xx_HAL_Driver/Src/stm32f7xx_ll_usb.c ****       hc->xfer_len = (uint32_t)num_packets * hc->max_packet;
 4430              		.loc 1 1823 19 view .LVU1401
 4431 003a 4FF48073 		mov	r3, #256
 4432 003e 0FE0     		b	.L287
 4433              	.LVL370:
 4434              	.L298:
1802:Drivers/STM32F7xx_HAL_Driver/Src/stm32f7xx_ll_usb.c ****       return HAL_OK;
 4435              		.loc 1 1802 7 is_stmt 1 view .LVU1402
1802:Drivers/STM32F7xx_HAL_Driver/Src/stm32f7xx_ll_usb.c ****       return HAL_OK;
 4436              		.loc 1 1802 13 is_stmt 0 view .LVU1403
 4437 0040 6146     		mov	r1, ip
 4438              	.LVL371:
1802:Drivers/STM32F7xx_HAL_Driver/Src/stm32f7xx_ll_usb.c ****       return HAL_OK;
 4439              		.loc 1 1802 13 view .LVU1404
 4440 0042 FFF7FEFF 		bl	USB_DoPing
 4441              	.LVL372:
1803:Drivers/STM32F7xx_HAL_Driver/Src/stm32f7xx_ll_usb.c ****     }
 4442              		.loc 1 1803 7 is_stmt 1 view .LVU1405
1803:Drivers/STM32F7xx_HAL_Driver/Src/stm32f7xx_ll_usb.c ****     }
 4443              		.loc 1 1803 14 is_stmt 0 view .LVU1406
 4444 0046 79E0     		b	.L286
 4445              	.LVL373:
 4446              	.L299:
1807:Drivers/STM32F7xx_HAL_Driver/Src/stm32f7xx_ll_usb.c ****       hc->do_ping = 0U;
 4447              		.loc 1 1807 7 is_stmt 1 view .LVU1407
1807:Drivers/STM32F7xx_HAL_Driver/Src/stm32f7xx_ll_usb.c ****       hc->do_ping = 0U;
 4448              		.loc 1 1807 33 is_stmt 0 view .LVU1408
 4449 0048 00EB4C13 		add	r3, r0, ip, lsl #5
 4450 004c D3F80C45 		ldr	r4, [r3, #1292]
 4451 0050 24F06004 		bic	r4, r4, #96
 4452 0054 C3F80C45 		str	r4, [r3, #1292]
1808:Drivers/STM32F7xx_HAL_Driver/Src/stm32f7xx_ll_usb.c ****     }
 4453              		.loc 1 1808 7 is_stmt 1 view .LVU1409
1808:Drivers/STM32F7xx_HAL_Driver/Src/stm32f7xx_ll_usb.c ****     }
 4454              		.loc 1 1808 19 is_stmt 0 view .LVU1410
 4455 0058 0023     		movs	r3, #0
 4456 005a 4B71     		strb	r3, [r1, #5]
 4457 005c E0E7     		b	.L284
 4458              	.L296:
ARM GAS  /tmp/cc8xco1Q.s 			page 134


1829:Drivers/STM32F7xx_HAL_Driver/Src/stm32f7xx_ll_usb.c ****   }
 4459              		.loc 1 1829 17 view .LVU1411
 4460 005e 0123     		movs	r3, #1
 4461              	.L287:
 4462              	.LVL374:
1831:Drivers/STM32F7xx_HAL_Driver/Src/stm32f7xx_ll_usb.c ****   {
 4463              		.loc 1 1831 3 is_stmt 1 view .LVU1412
1831:Drivers/STM32F7xx_HAL_Driver/Src/stm32f7xx_ll_usb.c ****   {
 4464              		.loc 1 1831 9 is_stmt 0 view .LVU1413
 4465 0060 CC78     		ldrb	r4, [r1, #3]	@ zero_extendqisi2
1831:Drivers/STM32F7xx_HAL_Driver/Src/stm32f7xx_ll_usb.c ****   {
 4466              		.loc 1 1831 6 view .LVU1414
 4467 0062 1CB1     		cbz	r4, .L288
1833:Drivers/STM32F7xx_HAL_Driver/Src/stm32f7xx_ll_usb.c ****   }
 4468              		.loc 1 1833 5 is_stmt 1 view .LVU1415
1833:Drivers/STM32F7xx_HAL_Driver/Src/stm32f7xx_ll_usb.c ****   }
 4469              		.loc 1 1833 46 is_stmt 0 view .LVU1416
 4470 0064 0C89     		ldrh	r4, [r1, #8]
1833:Drivers/STM32F7xx_HAL_Driver/Src/stm32f7xx_ll_usb.c ****   }
 4471              		.loc 1 1833 42 view .LVU1417
 4472 0066 03FB04F4 		mul	r4, r3, r4
1833:Drivers/STM32F7xx_HAL_Driver/Src/stm32f7xx_ll_usb.c ****   }
 4473              		.loc 1 1833 18 view .LVU1418
 4474 006a 0C61     		str	r4, [r1, #16]
 4475              	.L288:
1837:Drivers/STM32F7xx_HAL_Driver/Src/stm32f7xx_ll_usb.c ****                             (((uint32_t)num_packets << 19) & USB_OTG_HCTSIZ_PKTCNT) |
 4476              		.loc 1 1837 3 is_stmt 1 view .LVU1419
1837:Drivers/STM32F7xx_HAL_Driver/Src/stm32f7xx_ll_usb.c ****                             (((uint32_t)num_packets << 19) & USB_OTG_HCTSIZ_PKTCNT) |
 4477              		.loc 1 1837 43 is_stmt 0 view .LVU1420
 4478 006c 0C69     		ldr	r4, [r1, #16]
 4479 006e C4F3120E 		ubfx	lr, r4, #0, #19
1838:Drivers/STM32F7xx_HAL_Driver/Src/stm32f7xx_ll_usb.c ****                             (((uint32_t)hc->data_pid << 29) & USB_OTG_HCTSIZ_DPID);
 4480              		.loc 1 1838 60 view .LVU1421
 4481 0072 3A4C     		ldr	r4, .L300
 4482 0074 04EAC343 		and	r3, r4, r3, lsl #19
 4483              	.LVL375:
1837:Drivers/STM32F7xx_HAL_Driver/Src/stm32f7xx_ll_usb.c ****                             (((uint32_t)num_packets << 19) & USB_OTG_HCTSIZ_PKTCNT) |
 4484              		.loc 1 1837 68 view .LVU1422
 4485 0078 4EEA0303 		orr	r3, lr, r3
1839:Drivers/STM32F7xx_HAL_Driver/Src/stm32f7xx_ll_usb.c **** 
 4486              		.loc 1 1839 43 view .LVU1423
 4487 007c 91F80AE0 		ldrb	lr, [r1, #10]	@ zero_extendqisi2
1839:Drivers/STM32F7xx_HAL_Driver/Src/stm32f7xx_ll_usb.c **** 
 4488              		.loc 1 1839 54 view .LVU1424
 4489 0080 4FEA4E7E 		lsl	lr, lr, #29
1839:Drivers/STM32F7xx_HAL_Driver/Src/stm32f7xx_ll_usb.c **** 
 4490              		.loc 1 1839 61 view .LVU1425
 4491 0084 0EF0C04E 		and	lr, lr, #1610612736
1837:Drivers/STM32F7xx_HAL_Driver/Src/stm32f7xx_ll_usb.c ****                             (((uint32_t)num_packets << 19) & USB_OTG_HCTSIZ_PKTCNT) |
 4492              		.loc 1 1837 3 view .LVU1426
 4493 0088 00EB4C1C 		add	ip, r0, ip, lsl #5
 4494              	.LVL376:
1838:Drivers/STM32F7xx_HAL_Driver/Src/stm32f7xx_ll_usb.c ****                             (((uint32_t)hc->data_pid << 29) & USB_OTG_HCTSIZ_DPID);
 4495              		.loc 1 1838 85 view .LVU1427
 4496 008c 43EA0E03 		orr	r3, r3, lr
1837:Drivers/STM32F7xx_HAL_Driver/Src/stm32f7xx_ll_usb.c ****                             (((uint32_t)num_packets << 19) & USB_OTG_HCTSIZ_PKTCNT) |
 4497              		.loc 1 1837 27 view .LVU1428
ARM GAS  /tmp/cc8xco1Q.s 			page 135


 4498 0090 CCF81035 		str	r3, [ip, #1296]
1841:Drivers/STM32F7xx_HAL_Driver/Src/stm32f7xx_ll_usb.c ****   {
 4499              		.loc 1 1841 3 is_stmt 1 view .LVU1429
1841:Drivers/STM32F7xx_HAL_Driver/Src/stm32f7xx_ll_usb.c ****   {
 4500              		.loc 1 1841 6 is_stmt 0 view .LVU1430
 4501 0094 12B1     		cbz	r2, .L289
1844:Drivers/STM32F7xx_HAL_Driver/Src/stm32f7xx_ll_usb.c ****   }
 4502              		.loc 1 1844 5 is_stmt 1 view .LVU1431
1844:Drivers/STM32F7xx_HAL_Driver/Src/stm32f7xx_ll_usb.c ****   }
 4503              		.loc 1 1844 42 is_stmt 0 view .LVU1432
 4504 0096 CB68     		ldr	r3, [r1, #12]
1844:Drivers/STM32F7xx_HAL_Driver/Src/stm32f7xx_ll_usb.c ****   }
 4505              		.loc 1 1844 28 view .LVU1433
 4506 0098 CCF81435 		str	r3, [ip, #1300]
 4507              	.L289:
1847:Drivers/STM32F7xx_HAL_Driver/Src/stm32f7xx_ll_usb.c ****   USBx_HC(ch_num)->HCCHAR &= ~USB_OTG_HCCHAR_ODDFRM;
 4508              		.loc 1 1847 3 is_stmt 1 view .LVU1434
1847:Drivers/STM32F7xx_HAL_Driver/Src/stm32f7xx_ll_usb.c ****   USBx_HC(ch_num)->HCCHAR &= ~USB_OTG_HCCHAR_ODDFRM;
 4509              		.loc 1 1847 29 is_stmt 0 view .LVU1435
 4510 009c 00F5806E 		add	lr, r0, #1024
1847:Drivers/STM32F7xx_HAL_Driver/Src/stm32f7xx_ll_usb.c ****   USBx_HC(ch_num)->HCCHAR &= ~USB_OTG_HCCHAR_ODDFRM;
 4511              		.loc 1 1847 38 view .LVU1436
 4512 00a0 DEF80830 		ldr	r3, [lr, #8]
1847:Drivers/STM32F7xx_HAL_Driver/Src/stm32f7xx_ll_usb.c ****   USBx_HC(ch_num)->HCCHAR &= ~USB_OTG_HCCHAR_ODDFRM;
 4513              		.loc 1 1847 67 view .LVU1437
 4514 00a4 13F0010F 		tst	r3, #1
 4515 00a8 0CBF     		ite	eq
 4516 00aa 0125     		moveq	r5, #1
 4517 00ac 0025     		movne	r5, #0
 4518              	.LVL377:
1848:Drivers/STM32F7xx_HAL_Driver/Src/stm32f7xx_ll_usb.c ****   USBx_HC(ch_num)->HCCHAR |= (uint32_t)is_oddframe << 29;
 4519              		.loc 1 1848 3 is_stmt 1 view .LVU1438
1848:Drivers/STM32F7xx_HAL_Driver/Src/stm32f7xx_ll_usb.c ****   USBx_HC(ch_num)->HCCHAR |= (uint32_t)is_oddframe << 29;
 4520              		.loc 1 1848 27 is_stmt 0 view .LVU1439
 4521 00ae DCF80045 		ldr	r4, [ip, #1280]
 4522 00b2 24F00054 		bic	r4, r4, #536870912
 4523 00b6 CCF80045 		str	r4, [ip, #1280]
1849:Drivers/STM32F7xx_HAL_Driver/Src/stm32f7xx_ll_usb.c **** 
 4524              		.loc 1 1849 3 is_stmt 1 view .LVU1440
1849:Drivers/STM32F7xx_HAL_Driver/Src/stm32f7xx_ll_usb.c **** 
 4525              		.loc 1 1849 27 is_stmt 0 view .LVU1441
 4526 00ba DCF80035 		ldr	r3, [ip, #1280]
 4527 00be 43EA4573 		orr	r3, r3, r5, lsl #29
 4528 00c2 CCF80035 		str	r3, [ip, #1280]
1852:Drivers/STM32F7xx_HAL_Driver/Src/stm32f7xx_ll_usb.c ****   tmpreg &= ~USB_OTG_HCCHAR_CHDIS;
 4529              		.loc 1 1852 3 is_stmt 1 view .LVU1442
1852:Drivers/STM32F7xx_HAL_Driver/Src/stm32f7xx_ll_usb.c ****   tmpreg &= ~USB_OTG_HCCHAR_CHDIS;
 4530              		.loc 1 1852 27 is_stmt 0 view .LVU1443
 4531 00c6 DCF80045 		ldr	r4, [ip, #1280]
1852:Drivers/STM32F7xx_HAL_Driver/Src/stm32f7xx_ll_usb.c ****   tmpreg &= ~USB_OTG_HCCHAR_CHDIS;
 4532              		.loc 1 1852 10 view .LVU1444
 4533 00ca 254B     		ldr	r3, .L300+4
 4534 00cc 1C60     		str	r4, [r3]
1853:Drivers/STM32F7xx_HAL_Driver/Src/stm32f7xx_ll_usb.c **** 
 4535              		.loc 1 1853 3 is_stmt 1 view .LVU1445
1853:Drivers/STM32F7xx_HAL_Driver/Src/stm32f7xx_ll_usb.c **** 
 4536              		.loc 1 1853 10 is_stmt 0 view .LVU1446
ARM GAS  /tmp/cc8xco1Q.s 			page 136


 4537 00ce 1C68     		ldr	r4, [r3]
 4538 00d0 24F08044 		bic	r4, r4, #1073741824
 4539 00d4 1C60     		str	r4, [r3]
1856:Drivers/STM32F7xx_HAL_Driver/Src/stm32f7xx_ll_usb.c ****   {
 4540              		.loc 1 1856 3 is_stmt 1 view .LVU1447
1856:Drivers/STM32F7xx_HAL_Driver/Src/stm32f7xx_ll_usb.c ****   {
 4541              		.loc 1 1856 9 is_stmt 0 view .LVU1448
 4542 00d6 CB78     		ldrb	r3, [r1, #3]	@ zero_extendqisi2
1856:Drivers/STM32F7xx_HAL_Driver/Src/stm32f7xx_ll_usb.c ****   {
 4543              		.loc 1 1856 6 view .LVU1449
 4544 00d8 C3B1     		cbz	r3, .L290
1858:Drivers/STM32F7xx_HAL_Driver/Src/stm32f7xx_ll_usb.c ****   }
 4545              		.loc 1 1858 5 is_stmt 1 view .LVU1450
1858:Drivers/STM32F7xx_HAL_Driver/Src/stm32f7xx_ll_usb.c ****   }
 4546              		.loc 1 1858 12 is_stmt 0 view .LVU1451
 4547 00da 214C     		ldr	r4, .L300+4
 4548 00dc 2368     		ldr	r3, [r4]
 4549 00de 43F40043 		orr	r3, r3, #32768
 4550 00e2 2360     		str	r3, [r4]
 4551              	.L291:
1864:Drivers/STM32F7xx_HAL_Driver/Src/stm32f7xx_ll_usb.c ****   USBx_HC(ch_num)->HCCHAR = tmpreg;
 4552              		.loc 1 1864 3 is_stmt 1 view .LVU1452
1864:Drivers/STM32F7xx_HAL_Driver/Src/stm32f7xx_ll_usb.c ****   USBx_HC(ch_num)->HCCHAR = tmpreg;
 4553              		.loc 1 1864 10 is_stmt 0 view .LVU1453
 4554 00e4 1E4B     		ldr	r3, .L300+4
 4555 00e6 1C68     		ldr	r4, [r3]
 4556 00e8 44F00044 		orr	r4, r4, #-2147483648
 4557 00ec 1C60     		str	r4, [r3]
1865:Drivers/STM32F7xx_HAL_Driver/Src/stm32f7xx_ll_usb.c **** 
 4558              		.loc 1 1865 3 is_stmt 1 view .LVU1454
1865:Drivers/STM32F7xx_HAL_Driver/Src/stm32f7xx_ll_usb.c **** 
 4559              		.loc 1 1865 27 is_stmt 0 view .LVU1455
 4560 00ee 1B68     		ldr	r3, [r3]
 4561 00f0 CCF80035 		str	r3, [ip, #1280]
1867:Drivers/STM32F7xx_HAL_Driver/Src/stm32f7xx_ll_usb.c ****   {
 4562              		.loc 1 1867 3 is_stmt 1 view .LVU1456
1867:Drivers/STM32F7xx_HAL_Driver/Src/stm32f7xx_ll_usb.c ****   {
 4563              		.loc 1 1867 6 is_stmt 0 view .LVU1457
 4564 00f4 12BB     		cbnz	r2, .L286
1869:Drivers/STM32F7xx_HAL_Driver/Src/stm32f7xx_ll_usb.c ****     {
 4565              		.loc 1 1869 5 is_stmt 1 view .LVU1458
1869:Drivers/STM32F7xx_HAL_Driver/Src/stm32f7xx_ll_usb.c ****     {
 4566              		.loc 1 1869 12 is_stmt 0 view .LVU1459
 4567 00f6 CB78     		ldrb	r3, [r1, #3]	@ zero_extendqisi2
1869:Drivers/STM32F7xx_HAL_Driver/Src/stm32f7xx_ll_usb.c ****     {
 4568              		.loc 1 1869 8 view .LVU1460
 4569 00f8 03BB     		cbnz	r3, .L286
1869:Drivers/STM32F7xx_HAL_Driver/Src/stm32f7xx_ll_usb.c ****     {
 4570              		.loc 1 1869 36 discriminator 1 view .LVU1461
 4571 00fa 0B69     		ldr	r3, [r1, #16]
1869:Drivers/STM32F7xx_HAL_Driver/Src/stm32f7xx_ll_usb.c ****     {
 4572              		.loc 1 1869 30 discriminator 1 view .LVU1462
 4573 00fc F3B1     		cbz	r3, .L286
1871:Drivers/STM32F7xx_HAL_Driver/Src/stm32f7xx_ll_usb.c ****       {
 4574              		.loc 1 1871 7 is_stmt 1 view .LVU1463
1871:Drivers/STM32F7xx_HAL_Driver/Src/stm32f7xx_ll_usb.c ****       {
 4575              		.loc 1 1871 17 is_stmt 0 view .LVU1464
ARM GAS  /tmp/cc8xco1Q.s 			page 137


 4576 00fe CA79     		ldrb	r2, [r1, #7]	@ zero_extendqisi2
 4577              	.LVL378:
1871:Drivers/STM32F7xx_HAL_Driver/Src/stm32f7xx_ll_usb.c ****       {
 4578              		.loc 1 1871 17 view .LVU1465
 4579 0100 032A     		cmp	r2, #3
 4580 0102 14D8     		bhi	.L292
 4581 0104 DFE802F0 		tbb	[pc, r2]
 4582              	.L294:
 4583 0108 08       		.byte	(.L295-.L294)/2
 4584 0109 1D       		.byte	(.L293-.L294)/2
 4585 010a 08       		.byte	(.L295-.L294)/2
 4586 010b 1D       		.byte	(.L293-.L294)/2
 4587              	.LVL379:
 4588              		.p2align 1
 4589              	.L290:
1862:Drivers/STM32F7xx_HAL_Driver/Src/stm32f7xx_ll_usb.c ****   }
 4590              		.loc 1 1862 5 is_stmt 1 view .LVU1466
1862:Drivers/STM32F7xx_HAL_Driver/Src/stm32f7xx_ll_usb.c ****   }
 4591              		.loc 1 1862 12 is_stmt 0 view .LVU1467
 4592 010c 144C     		ldr	r4, .L300+4
 4593 010e 2368     		ldr	r3, [r4]
 4594 0110 23F40043 		bic	r3, r3, #32768
 4595 0114 2360     		str	r3, [r4]
 4596 0116 E5E7     		b	.L291
 4597              	.LVL380:
 4598              	.L295:
1877:Drivers/STM32F7xx_HAL_Driver/Src/stm32f7xx_ll_usb.c **** 
 4599              		.loc 1 1877 11 is_stmt 1 view .LVU1468
1877:Drivers/STM32F7xx_HAL_Driver/Src/stm32f7xx_ll_usb.c **** 
 4600              		.loc 1 1877 48 is_stmt 0 view .LVU1469
 4601 0118 0333     		adds	r3, r3, #3
 4602              	.LVL381:
1880:Drivers/STM32F7xx_HAL_Driver/Src/stm32f7xx_ll_usb.c ****           {
 4603              		.loc 1 1880 11 is_stmt 1 view .LVU1470
1880:Drivers/STM32F7xx_HAL_Driver/Src/stm32f7xx_ll_usb.c ****           {
 4604              		.loc 1 1880 32 is_stmt 0 view .LVU1471
 4605 011a C26A     		ldr	r2, [r0, #44]
1880:Drivers/STM32F7xx_HAL_Driver/Src/stm32f7xx_ll_usb.c ****           {
 4606              		.loc 1 1880 43 view .LVU1472
 4607 011c 92B2     		uxth	r2, r2
1880:Drivers/STM32F7xx_HAL_Driver/Src/stm32f7xx_ll_usb.c ****           {
 4608              		.loc 1 1880 14 view .LVU1473
 4609 011e C3F38F03 		ubfx	r3, r3, #2, #16
 4610              	.LVL382:
1880:Drivers/STM32F7xx_HAL_Driver/Src/stm32f7xx_ll_usb.c ****           {
 4611              		.loc 1 1880 14 view .LVU1474
 4612 0122 9A42     		cmp	r2, r3
 4613 0124 03D2     		bcs	.L292
1883:Drivers/STM32F7xx_HAL_Driver/Src/stm32f7xx_ll_usb.c ****           }
 4614              		.loc 1 1883 13 is_stmt 1 view .LVU1475
1883:Drivers/STM32F7xx_HAL_Driver/Src/stm32f7xx_ll_usb.c ****           }
 4615              		.loc 1 1883 27 is_stmt 0 view .LVU1476
 4616 0126 8369     		ldr	r3, [r0, #24]
 4617 0128 43F02003 		orr	r3, r3, #32
 4618 012c 8361     		str	r3, [r0, #24]
 4619              	.LVL383:
 4620              	.L292:
ARM GAS  /tmp/cc8xco1Q.s 			page 138


1904:Drivers/STM32F7xx_HAL_Driver/Src/stm32f7xx_ll_usb.c ****     }
 4621              		.loc 1 1904 7 is_stmt 1 view .LVU1477
1904:Drivers/STM32F7xx_HAL_Driver/Src/stm32f7xx_ll_usb.c ****     }
 4622              		.loc 1 1904 13 is_stmt 0 view .LVU1478
 4623 012e 0023     		movs	r3, #0
 4624 0130 0093     		str	r3, [sp]
 4625 0132 0B8A     		ldrh	r3, [r1, #16]
 4626 0134 4A78     		ldrb	r2, [r1, #1]	@ zero_extendqisi2
 4627 0136 C968     		ldr	r1, [r1, #12]
 4628              	.LVL384:
1904:Drivers/STM32F7xx_HAL_Driver/Src/stm32f7xx_ll_usb.c ****     }
 4629              		.loc 1 1904 13 view .LVU1479
 4630 0138 FFF7FEFF 		bl	USB_WritePacket
 4631              	.LVL385:
 4632              	.L286:
1909:Drivers/STM32F7xx_HAL_Driver/Src/stm32f7xx_ll_usb.c **** 
 4633              		.loc 1 1909 1 view .LVU1480
 4634 013c 0020     		movs	r0, #0
 4635 013e 03B0     		add	sp, sp, #12
 4636              	.LCFI50:
 4637              		.cfi_remember_state
 4638              		.cfi_def_cfa_offset 12
 4639              		@ sp needed
 4640 0140 30BD     		pop	{r4, r5, pc}
 4641              	.LVL386:
 4642              	.L293:
 4643              	.LCFI51:
 4644              		.cfi_restore_state
1890:Drivers/STM32F7xx_HAL_Driver/Src/stm32f7xx_ll_usb.c ****           /* check if there is enough space in FIFO space */
 4645              		.loc 1 1890 11 is_stmt 1 view .LVU1481
1890:Drivers/STM32F7xx_HAL_Driver/Src/stm32f7xx_ll_usb.c ****           /* check if there is enough space in FIFO space */
 4646              		.loc 1 1890 48 is_stmt 0 view .LVU1482
 4647 0142 0333     		adds	r3, r3, #3
 4648              	.LVL387:
1892:Drivers/STM32F7xx_HAL_Driver/Src/stm32f7xx_ll_usb.c ****           {
 4649              		.loc 1 1892 11 is_stmt 1 view .LVU1483
1892:Drivers/STM32F7xx_HAL_Driver/Src/stm32f7xx_ll_usb.c ****           {
 4650              		.loc 1 1892 37 is_stmt 0 view .LVU1484
 4651 0144 DEF81020 		ldr	r2, [lr, #16]
1892:Drivers/STM32F7xx_HAL_Driver/Src/stm32f7xx_ll_usb.c ****           {
 4652              		.loc 1 1892 47 view .LVU1485
 4653 0148 92B2     		uxth	r2, r2
1892:Drivers/STM32F7xx_HAL_Driver/Src/stm32f7xx_ll_usb.c ****           {
 4654              		.loc 1 1892 14 view .LVU1486
 4655 014a C3F38F03 		ubfx	r3, r3, #2, #16
 4656              	.LVL388:
1892:Drivers/STM32F7xx_HAL_Driver/Src/stm32f7xx_ll_usb.c ****           {
 4657              		.loc 1 1892 14 view .LVU1487
 4658 014e 9A42     		cmp	r2, r3
 4659 0150 EDD2     		bcs	.L292
1895:Drivers/STM32F7xx_HAL_Driver/Src/stm32f7xx_ll_usb.c ****           }
 4660              		.loc 1 1895 13 is_stmt 1 view .LVU1488
1895:Drivers/STM32F7xx_HAL_Driver/Src/stm32f7xx_ll_usb.c ****           }
 4661              		.loc 1 1895 27 is_stmt 0 view .LVU1489
 4662 0152 8369     		ldr	r3, [r0, #24]
 4663 0154 43F08063 		orr	r3, r3, #67108864
 4664 0158 8361     		str	r3, [r0, #24]
ARM GAS  /tmp/cc8xco1Q.s 			page 139


 4665              	.LVL389:
1895:Drivers/STM32F7xx_HAL_Driver/Src/stm32f7xx_ll_usb.c ****           }
 4666              		.loc 1 1895 27 view .LVU1490
 4667 015a E8E7     		b	.L292
 4668              	.L301:
 4669              		.align	2
 4670              	.L300:
 4671 015c 0000F81F 		.word	536346624
 4672 0160 00000000 		.word	.LANCHOR0
 4673              		.cfi_endproc
 4674              	.LFE182:
 4676              		.section	.text.USB_StopHost,"ax",%progbits
 4677              		.align	1
 4678              		.global	USB_StopHost
 4679              		.syntax unified
 4680              		.thumb
 4681              		.thumb_func
 4682              		.fpu fpv5-d16
 4684              	USB_StopHost:
 4685              	.LVL390:
 4686              	.LFB186:
2013:Drivers/STM32F7xx_HAL_Driver/Src/stm32f7xx_ll_usb.c **** 
2014:Drivers/STM32F7xx_HAL_Driver/Src/stm32f7xx_ll_usb.c **** /**
2015:Drivers/STM32F7xx_HAL_Driver/Src/stm32f7xx_ll_usb.c ****   * @brief  Stop Host Core
2016:Drivers/STM32F7xx_HAL_Driver/Src/stm32f7xx_ll_usb.c ****   * @param  USBx  Selected device
2017:Drivers/STM32F7xx_HAL_Driver/Src/stm32f7xx_ll_usb.c ****   * @retval HAL state
2018:Drivers/STM32F7xx_HAL_Driver/Src/stm32f7xx_ll_usb.c ****   */
2019:Drivers/STM32F7xx_HAL_Driver/Src/stm32f7xx_ll_usb.c **** HAL_StatusTypeDef USB_StopHost(USB_OTG_GlobalTypeDef *USBx)
2020:Drivers/STM32F7xx_HAL_Driver/Src/stm32f7xx_ll_usb.c **** {
 4687              		.loc 1 2020 1 is_stmt 1 view -0
 4688              		.cfi_startproc
 4689              		@ args = 0, pretend = 0, frame = 0
 4690              		@ frame_needed = 0, uses_anonymous_args = 0
 4691              		.loc 1 2020 1 is_stmt 0 view .LVU1492
 4692 0000 10B5     		push	{r4, lr}
 4693              	.LCFI52:
 4694              		.cfi_def_cfa_offset 8
 4695              		.cfi_offset 4, -8
 4696              		.cfi_offset 14, -4
 4697 0002 0446     		mov	r4, r0
2021:Drivers/STM32F7xx_HAL_Driver/Src/stm32f7xx_ll_usb.c ****   uint32_t USBx_BASE = (uint32_t)USBx;
 4698              		.loc 1 2021 3 is_stmt 1 view .LVU1493
 4699              	.LVL391:
2022:Drivers/STM32F7xx_HAL_Driver/Src/stm32f7xx_ll_usb.c ****   uint32_t count = 0U;
 4700              		.loc 1 2022 3 view .LVU1494
2023:Drivers/STM32F7xx_HAL_Driver/Src/stm32f7xx_ll_usb.c ****   uint32_t value;
 4701              		.loc 1 2023 3 view .LVU1495
2024:Drivers/STM32F7xx_HAL_Driver/Src/stm32f7xx_ll_usb.c ****   uint32_t i;
 4702              		.loc 1 2024 3 view .LVU1496
2025:Drivers/STM32F7xx_HAL_Driver/Src/stm32f7xx_ll_usb.c **** 
2026:Drivers/STM32F7xx_HAL_Driver/Src/stm32f7xx_ll_usb.c ****   (void)USB_DisableGlobalInt(USBx);
 4703              		.loc 1 2026 3 view .LVU1497
 4704              		.loc 1 2026 9 is_stmt 0 view .LVU1498
 4705 0004 FFF7FEFF 		bl	USB_DisableGlobalInt
 4706              	.LVL392:
2027:Drivers/STM32F7xx_HAL_Driver/Src/stm32f7xx_ll_usb.c **** 
2028:Drivers/STM32F7xx_HAL_Driver/Src/stm32f7xx_ll_usb.c ****   /* Flush FIFO */
ARM GAS  /tmp/cc8xco1Q.s 			page 140


2029:Drivers/STM32F7xx_HAL_Driver/Src/stm32f7xx_ll_usb.c ****   (void)USB_FlushTxFifo(USBx, 0x10U);
 4707              		.loc 1 2029 3 is_stmt 1 view .LVU1499
 4708              		.loc 1 2029 9 is_stmt 0 view .LVU1500
 4709 0008 1021     		movs	r1, #16
 4710 000a 2046     		mov	r0, r4
 4711 000c FFF7FEFF 		bl	USB_FlushTxFifo
 4712              	.LVL393:
2030:Drivers/STM32F7xx_HAL_Driver/Src/stm32f7xx_ll_usb.c ****   (void)USB_FlushRxFifo(USBx);
 4713              		.loc 1 2030 3 is_stmt 1 view .LVU1501
 4714              		.loc 1 2030 9 is_stmt 0 view .LVU1502
 4715 0010 2046     		mov	r0, r4
 4716 0012 FFF7FEFF 		bl	USB_FlushRxFifo
 4717              	.LVL394:
2031:Drivers/STM32F7xx_HAL_Driver/Src/stm32f7xx_ll_usb.c **** 
2032:Drivers/STM32F7xx_HAL_Driver/Src/stm32f7xx_ll_usb.c ****   /* Flush out any leftover queued requests. */
2033:Drivers/STM32F7xx_HAL_Driver/Src/stm32f7xx_ll_usb.c ****   for (i = 0U; i <= 15U; i++)
 4718              		.loc 1 2033 3 is_stmt 1 view .LVU1503
 4719              		.loc 1 2033 10 is_stmt 0 view .LVU1504
 4720 0016 0022     		movs	r2, #0
 4721              		.loc 1 2033 3 view .LVU1505
 4722 0018 0AE0     		b	.L303
 4723              	.LVL395:
 4724              	.L304:
2034:Drivers/STM32F7xx_HAL_Driver/Src/stm32f7xx_ll_usb.c ****   {
2035:Drivers/STM32F7xx_HAL_Driver/Src/stm32f7xx_ll_usb.c ****     value = USBx_HC(i)->HCCHAR;
 4725              		.loc 1 2035 5 is_stmt 1 discriminator 3 view .LVU1506
 4726              		.loc 1 2035 13 is_stmt 0 discriminator 3 view .LVU1507
 4727 001a 04EB4211 		add	r1, r4, r2, lsl #5
 4728              		.loc 1 2035 11 discriminator 3 view .LVU1508
 4729 001e D1F80035 		ldr	r3, [r1, #1280]
 4730              	.LVL396:
2036:Drivers/STM32F7xx_HAL_Driver/Src/stm32f7xx_ll_usb.c ****     value |=  USB_OTG_HCCHAR_CHDIS;
 4731              		.loc 1 2036 5 is_stmt 1 discriminator 3 view .LVU1509
2037:Drivers/STM32F7xx_HAL_Driver/Src/stm32f7xx_ll_usb.c ****     value &= ~USB_OTG_HCCHAR_CHENA;
 4732              		.loc 1 2037 5 discriminator 3 view .LVU1510
2038:Drivers/STM32F7xx_HAL_Driver/Src/stm32f7xx_ll_usb.c ****     value &= ~USB_OTG_HCCHAR_EPDIR;
 4733              		.loc 1 2038 5 discriminator 3 view .LVU1511
 4734 0022 23F08023 		bic	r3, r3, #-2147450880
 4735              	.LVL397:
 4736              		.loc 1 2038 11 is_stmt 0 discriminator 3 view .LVU1512
 4737 0026 43F08043 		orr	r3, r3, #1073741824
 4738              	.LVL398:
2039:Drivers/STM32F7xx_HAL_Driver/Src/stm32f7xx_ll_usb.c ****     USBx_HC(i)->HCCHAR = value;
 4739              		.loc 1 2039 5 is_stmt 1 discriminator 3 view .LVU1513
 4740              		.loc 1 2039 24 is_stmt 0 discriminator 3 view .LVU1514
 4741 002a C1F80035 		str	r3, [r1, #1280]
2033:Drivers/STM32F7xx_HAL_Driver/Src/stm32f7xx_ll_usb.c ****   {
 4742              		.loc 1 2033 26 is_stmt 1 discriminator 3 view .LVU1515
2033:Drivers/STM32F7xx_HAL_Driver/Src/stm32f7xx_ll_usb.c ****   {
 4743              		.loc 1 2033 27 is_stmt 0 discriminator 3 view .LVU1516
 4744 002e 0132     		adds	r2, r2, #1
 4745              	.LVL399:
 4746              	.L303:
2033:Drivers/STM32F7xx_HAL_Driver/Src/stm32f7xx_ll_usb.c ****   {
 4747              		.loc 1 2033 16 is_stmt 1 discriminator 1 view .LVU1517
2033:Drivers/STM32F7xx_HAL_Driver/Src/stm32f7xx_ll_usb.c ****   {
 4748              		.loc 1 2033 3 is_stmt 0 discriminator 1 view .LVU1518
ARM GAS  /tmp/cc8xco1Q.s 			page 141


 4749 0030 0F2A     		cmp	r2, #15
 4750 0032 F2D9     		bls	.L304
2040:Drivers/STM32F7xx_HAL_Driver/Src/stm32f7xx_ll_usb.c ****   }
2041:Drivers/STM32F7xx_HAL_Driver/Src/stm32f7xx_ll_usb.c **** 
2042:Drivers/STM32F7xx_HAL_Driver/Src/stm32f7xx_ll_usb.c ****   /* Halt all channels to put them into a known state. */
2043:Drivers/STM32F7xx_HAL_Driver/Src/stm32f7xx_ll_usb.c ****   for (i = 0U; i <= 15U; i++)
 4751              		.loc 1 2043 10 view .LVU1519
 4752 0034 0020     		movs	r0, #0
2022:Drivers/STM32F7xx_HAL_Driver/Src/stm32f7xx_ll_usb.c ****   uint32_t value;
 4753              		.loc 1 2022 12 view .LVU1520
 4754 0036 0346     		mov	r3, r0
 4755 0038 00E0     		b	.L305
 4756              	.LVL400:
 4757              	.L306:
 4758              		.loc 1 2043 26 is_stmt 1 discriminator 2 view .LVU1521
 4759              		.loc 1 2043 27 is_stmt 0 discriminator 2 view .LVU1522
 4760 003a 0130     		adds	r0, r0, #1
 4761              	.LVL401:
 4762              	.L305:
 4763              		.loc 1 2043 16 is_stmt 1 discriminator 1 view .LVU1523
 4764              		.loc 1 2043 3 is_stmt 0 discriminator 1 view .LVU1524
 4765 003c 0F28     		cmp	r0, #15
 4766 003e 13D8     		bhi	.L310
2044:Drivers/STM32F7xx_HAL_Driver/Src/stm32f7xx_ll_usb.c ****   {
2045:Drivers/STM32F7xx_HAL_Driver/Src/stm32f7xx_ll_usb.c ****     value = USBx_HC(i)->HCCHAR;
 4767              		.loc 1 2045 5 is_stmt 1 view .LVU1525
 4768              		.loc 1 2045 13 is_stmt 0 view .LVU1526
 4769 0040 04EB401C 		add	ip, r4, r0, lsl #5
 4770 0044 0CF5A061 		add	r1, ip, #1280
 4771              		.loc 1 2045 11 view .LVU1527
 4772 0048 DCF80025 		ldr	r2, [ip, #1280]
 4773              	.LVL402:
2046:Drivers/STM32F7xx_HAL_Driver/Src/stm32f7xx_ll_usb.c ****     value |= USB_OTG_HCCHAR_CHDIS;
 4774              		.loc 1 2046 5 is_stmt 1 view .LVU1528
2047:Drivers/STM32F7xx_HAL_Driver/Src/stm32f7xx_ll_usb.c ****     value |= USB_OTG_HCCHAR_CHENA;
 4775              		.loc 1 2047 5 view .LVU1529
2048:Drivers/STM32F7xx_HAL_Driver/Src/stm32f7xx_ll_usb.c ****     value &= ~USB_OTG_HCCHAR_EPDIR;
 4776              		.loc 1 2048 5 view .LVU1530
 4777 004c 22F40042 		bic	r2, r2, #32768
 4778              	.LVL403:
 4779              		.loc 1 2048 11 is_stmt 0 view .LVU1531
 4780 0050 42F04042 		orr	r2, r2, #-1073741824
 4781              	.LVL404:
2049:Drivers/STM32F7xx_HAL_Driver/Src/stm32f7xx_ll_usb.c ****     USBx_HC(i)->HCCHAR = value;
 4782              		.loc 1 2049 5 is_stmt 1 view .LVU1532
 4783              		.loc 1 2049 24 is_stmt 0 view .LVU1533
 4784 0054 CCF80025 		str	r2, [ip, #1280]
 4785              	.LVL405:
 4786              	.L307:
2050:Drivers/STM32F7xx_HAL_Driver/Src/stm32f7xx_ll_usb.c **** 
2051:Drivers/STM32F7xx_HAL_Driver/Src/stm32f7xx_ll_usb.c ****     do
 4787              		.loc 1 2051 5 is_stmt 1 view .LVU1534
2052:Drivers/STM32F7xx_HAL_Driver/Src/stm32f7xx_ll_usb.c ****     {
2053:Drivers/STM32F7xx_HAL_Driver/Src/stm32f7xx_ll_usb.c ****       if (++count > 1000U)
 4788              		.loc 1 2053 7 view .LVU1535
 4789              		.loc 1 2053 10 is_stmt 0 view .LVU1536
 4790 0058 0133     		adds	r3, r3, #1
ARM GAS  /tmp/cc8xco1Q.s 			page 142


 4791              	.LVL406:
 4792              		.loc 1 2053 10 view .LVU1537
 4793 005a B3F57A7F 		cmp	r3, #1000
 4794 005e ECD8     		bhi	.L306
2054:Drivers/STM32F7xx_HAL_Driver/Src/stm32f7xx_ll_usb.c ****       {
2055:Drivers/STM32F7xx_HAL_Driver/Src/stm32f7xx_ll_usb.c ****         break;
2056:Drivers/STM32F7xx_HAL_Driver/Src/stm32f7xx_ll_usb.c ****       }
2057:Drivers/STM32F7xx_HAL_Driver/Src/stm32f7xx_ll_usb.c ****     }
2058:Drivers/STM32F7xx_HAL_Driver/Src/stm32f7xx_ll_usb.c ****     while ((USBx_HC(i)->HCCHAR & USB_OTG_HCCHAR_CHENA) == USB_OTG_HCCHAR_CHENA);
 4795              		.loc 1 2058 11 is_stmt 1 view .LVU1538
 4796              		.loc 1 2058 23 is_stmt 0 view .LVU1539
 4797 0060 0A68     		ldr	r2, [r1]
 4798              		.loc 1 2058 5 view .LVU1540
 4799 0062 002A     		cmp	r2, #0
 4800 0064 F8DB     		blt	.L307
 4801 0066 E8E7     		b	.L306
 4802              	.LVL407:
 4803              	.L310:
2059:Drivers/STM32F7xx_HAL_Driver/Src/stm32f7xx_ll_usb.c ****   }
2060:Drivers/STM32F7xx_HAL_Driver/Src/stm32f7xx_ll_usb.c **** 
2061:Drivers/STM32F7xx_HAL_Driver/Src/stm32f7xx_ll_usb.c ****   /* Clear any pending Host interrupts */
2062:Drivers/STM32F7xx_HAL_Driver/Src/stm32f7xx_ll_usb.c ****   USBx_HOST->HAINT = 0xFFFFFFFFU;
 4804              		.loc 1 2062 3 is_stmt 1 view .LVU1541
 4805              		.loc 1 2062 20 is_stmt 0 view .LVU1542
 4806 0068 4FF0FF33 		mov	r3, #-1
 4807              	.LVL408:
 4808              		.loc 1 2062 20 view .LVU1543
 4809 006c C4F81434 		str	r3, [r4, #1044]
2063:Drivers/STM32F7xx_HAL_Driver/Src/stm32f7xx_ll_usb.c ****   USBx->GINTSTS = 0xFFFFFFFFU;
 4810              		.loc 1 2063 3 is_stmt 1 view .LVU1544
 4811              		.loc 1 2063 17 is_stmt 0 view .LVU1545
 4812 0070 6361     		str	r3, [r4, #20]
2064:Drivers/STM32F7xx_HAL_Driver/Src/stm32f7xx_ll_usb.c **** 
2065:Drivers/STM32F7xx_HAL_Driver/Src/stm32f7xx_ll_usb.c ****   (void)USB_EnableGlobalInt(USBx);
 4813              		.loc 1 2065 3 is_stmt 1 view .LVU1546
 4814              		.loc 1 2065 9 is_stmt 0 view .LVU1547
 4815 0072 2046     		mov	r0, r4
 4816              	.LVL409:
 4817              		.loc 1 2065 9 view .LVU1548
 4818 0074 FFF7FEFF 		bl	USB_EnableGlobalInt
 4819              	.LVL410:
2066:Drivers/STM32F7xx_HAL_Driver/Src/stm32f7xx_ll_usb.c **** 
2067:Drivers/STM32F7xx_HAL_Driver/Src/stm32f7xx_ll_usb.c ****   return HAL_OK;
 4820              		.loc 1 2067 3 is_stmt 1 view .LVU1549
2068:Drivers/STM32F7xx_HAL_Driver/Src/stm32f7xx_ll_usb.c **** }
 4821              		.loc 1 2068 1 is_stmt 0 view .LVU1550
 4822 0078 0020     		movs	r0, #0
 4823 007a 10BD     		pop	{r4, pc}
 4824              		.loc 1 2068 1 view .LVU1551
 4825              		.cfi_endproc
 4826              	.LFE186:
 4828              		.section	.text.USB_ActivateRemoteWakeup,"ax",%progbits
 4829              		.align	1
 4830              		.global	USB_ActivateRemoteWakeup
 4831              		.syntax unified
 4832              		.thumb
 4833              		.thumb_func
ARM GAS  /tmp/cc8xco1Q.s 			page 143


 4834              		.fpu fpv5-d16
 4836              	USB_ActivateRemoteWakeup:
 4837              	.LVL411:
 4838              	.LFB187:
2069:Drivers/STM32F7xx_HAL_Driver/Src/stm32f7xx_ll_usb.c **** 
2070:Drivers/STM32F7xx_HAL_Driver/Src/stm32f7xx_ll_usb.c **** /**
2071:Drivers/STM32F7xx_HAL_Driver/Src/stm32f7xx_ll_usb.c ****   * @brief  USB_ActivateRemoteWakeup active remote wakeup signalling
2072:Drivers/STM32F7xx_HAL_Driver/Src/stm32f7xx_ll_usb.c ****   * @param  USBx Selected device
2073:Drivers/STM32F7xx_HAL_Driver/Src/stm32f7xx_ll_usb.c ****   * @retval HAL status
2074:Drivers/STM32F7xx_HAL_Driver/Src/stm32f7xx_ll_usb.c ****   */
2075:Drivers/STM32F7xx_HAL_Driver/Src/stm32f7xx_ll_usb.c **** HAL_StatusTypeDef USB_ActivateRemoteWakeup(USB_OTG_GlobalTypeDef *USBx)
2076:Drivers/STM32F7xx_HAL_Driver/Src/stm32f7xx_ll_usb.c **** {
 4839              		.loc 1 2076 1 is_stmt 1 view -0
 4840              		.cfi_startproc
 4841              		@ args = 0, pretend = 0, frame = 0
 4842              		@ frame_needed = 0, uses_anonymous_args = 0
 4843              		@ link register save eliminated.
2077:Drivers/STM32F7xx_HAL_Driver/Src/stm32f7xx_ll_usb.c ****   uint32_t USBx_BASE = (uint32_t)USBx;
 4844              		.loc 1 2077 3 view .LVU1553
2078:Drivers/STM32F7xx_HAL_Driver/Src/stm32f7xx_ll_usb.c **** 
2079:Drivers/STM32F7xx_HAL_Driver/Src/stm32f7xx_ll_usb.c ****   if ((USBx_DEVICE->DSTS & USB_OTG_DSTS_SUSPSTS) == USB_OTG_DSTS_SUSPSTS)
 4845              		.loc 1 2079 3 view .LVU1554
 4846              		.loc 1 2079 19 is_stmt 0 view .LVU1555
 4847 0000 D0F80838 		ldr	r3, [r0, #2056]
 4848              		.loc 1 2079 8 view .LVU1556
 4849 0004 00F50060 		add	r0, r0, #2048
 4850              	.LVL412:
 4851              		.loc 1 2079 6 view .LVU1557
 4852 0008 13F0010F 		tst	r3, #1
 4853 000c 03D0     		beq	.L312
2080:Drivers/STM32F7xx_HAL_Driver/Src/stm32f7xx_ll_usb.c ****   {
2081:Drivers/STM32F7xx_HAL_Driver/Src/stm32f7xx_ll_usb.c ****     /* active Remote wakeup signalling */
2082:Drivers/STM32F7xx_HAL_Driver/Src/stm32f7xx_ll_usb.c ****     USBx_DEVICE->DCTL |= USB_OTG_DCTL_RWUSIG;
 4854              		.loc 1 2082 5 is_stmt 1 view .LVU1558
 4855              		.loc 1 2082 23 is_stmt 0 view .LVU1559
 4856 000e 4368     		ldr	r3, [r0, #4]
 4857 0010 43F00103 		orr	r3, r3, #1
 4858 0014 4360     		str	r3, [r0, #4]
 4859              	.L312:
2083:Drivers/STM32F7xx_HAL_Driver/Src/stm32f7xx_ll_usb.c ****   }
2084:Drivers/STM32F7xx_HAL_Driver/Src/stm32f7xx_ll_usb.c **** 
2085:Drivers/STM32F7xx_HAL_Driver/Src/stm32f7xx_ll_usb.c ****   return HAL_OK;
 4860              		.loc 1 2085 3 is_stmt 1 view .LVU1560
2086:Drivers/STM32F7xx_HAL_Driver/Src/stm32f7xx_ll_usb.c **** }
 4861              		.loc 1 2086 1 is_stmt 0 view .LVU1561
 4862 0016 0020     		movs	r0, #0
 4863              	.LVL413:
 4864              		.loc 1 2086 1 view .LVU1562
 4865 0018 7047     		bx	lr
 4866              		.cfi_endproc
 4867              	.LFE187:
 4869              		.section	.text.USB_DeActivateRemoteWakeup,"ax",%progbits
 4870              		.align	1
 4871              		.global	USB_DeActivateRemoteWakeup
 4872              		.syntax unified
 4873              		.thumb
 4874              		.thumb_func
ARM GAS  /tmp/cc8xco1Q.s 			page 144


 4875              		.fpu fpv5-d16
 4877              	USB_DeActivateRemoteWakeup:
 4878              	.LVL414:
 4879              	.LFB188:
2087:Drivers/STM32F7xx_HAL_Driver/Src/stm32f7xx_ll_usb.c **** 
2088:Drivers/STM32F7xx_HAL_Driver/Src/stm32f7xx_ll_usb.c **** /**
2089:Drivers/STM32F7xx_HAL_Driver/Src/stm32f7xx_ll_usb.c ****   * @brief  USB_DeActivateRemoteWakeup de-active remote wakeup signalling
2090:Drivers/STM32F7xx_HAL_Driver/Src/stm32f7xx_ll_usb.c ****   * @param  USBx Selected device
2091:Drivers/STM32F7xx_HAL_Driver/Src/stm32f7xx_ll_usb.c ****   * @retval HAL status
2092:Drivers/STM32F7xx_HAL_Driver/Src/stm32f7xx_ll_usb.c ****   */
2093:Drivers/STM32F7xx_HAL_Driver/Src/stm32f7xx_ll_usb.c **** HAL_StatusTypeDef USB_DeActivateRemoteWakeup(USB_OTG_GlobalTypeDef *USBx)
2094:Drivers/STM32F7xx_HAL_Driver/Src/stm32f7xx_ll_usb.c **** {
 4880              		.loc 1 2094 1 is_stmt 1 view -0
 4881              		.cfi_startproc
 4882              		@ args = 0, pretend = 0, frame = 0
 4883              		@ frame_needed = 0, uses_anonymous_args = 0
 4884              		@ link register save eliminated.
2095:Drivers/STM32F7xx_HAL_Driver/Src/stm32f7xx_ll_usb.c ****   uint32_t USBx_BASE = (uint32_t)USBx;
 4885              		.loc 1 2095 3 view .LVU1564
2096:Drivers/STM32F7xx_HAL_Driver/Src/stm32f7xx_ll_usb.c **** 
2097:Drivers/STM32F7xx_HAL_Driver/Src/stm32f7xx_ll_usb.c ****   /* active Remote wakeup signalling */
2098:Drivers/STM32F7xx_HAL_Driver/Src/stm32f7xx_ll_usb.c ****   USBx_DEVICE->DCTL &= ~(USB_OTG_DCTL_RWUSIG);
 4886              		.loc 1 2098 3 view .LVU1565
 4887              		.loc 1 2098 21 is_stmt 0 view .LVU1566
 4888 0000 D0F80438 		ldr	r3, [r0, #2052]
 4889 0004 23F00103 		bic	r3, r3, #1
 4890 0008 C0F80438 		str	r3, [r0, #2052]
2099:Drivers/STM32F7xx_HAL_Driver/Src/stm32f7xx_ll_usb.c **** 
2100:Drivers/STM32F7xx_HAL_Driver/Src/stm32f7xx_ll_usb.c ****   return HAL_OK;
 4891              		.loc 1 2100 3 is_stmt 1 view .LVU1567
2101:Drivers/STM32F7xx_HAL_Driver/Src/stm32f7xx_ll_usb.c **** }
 4892              		.loc 1 2101 1 is_stmt 0 view .LVU1568
 4893 000c 0020     		movs	r0, #0
 4894              	.LVL415:
 4895              		.loc 1 2101 1 view .LVU1569
 4896 000e 7047     		bx	lr
 4897              		.cfi_endproc
 4898              	.LFE188:
 4900              		.section	.bss.tmpreg.0,"aw",%nobits
 4901              		.align	2
 4902              		.set	.LANCHOR0,. + 0
 4905              	tmpreg.0:
 4906 0000 00000000 		.space	4
 4907              		.text
 4908              	.Letext0:
 4909              		.file 2 "/home/wayne/download/gcc-arm-none-eabi/gcc-arm-none-eabi-10-2020-q4-major/arm-none-eabi/i
 4910              		.file 3 "/home/wayne/download/gcc-arm-none-eabi/gcc-arm-none-eabi-10-2020-q4-major/arm-none-eabi/i
 4911              		.file 4 "Drivers/CMSIS/Include/cmsis_gcc.h"
 4912              		.file 5 "Drivers/CMSIS/Device/ST/STM32F7xx/Include/stm32f767xx.h"
 4913              		.file 6 "Drivers/STM32F7xx_HAL_Driver/Inc/stm32f7xx_hal_def.h"
 4914              		.file 7 "Drivers/STM32F7xx_HAL_Driver/Inc/stm32f7xx_ll_usb.h"
 4915              		.file 8 "Drivers/STM32F7xx_HAL_Driver/Inc/stm32f7xx_hal.h"
ARM GAS  /tmp/cc8xco1Q.s 			page 145


DEFINED SYMBOLS
                            *ABS*:0000000000000000 stm32f7xx_ll_usb.c
     /tmp/cc8xco1Q.s:17     .text.USB_CoreReset:0000000000000000 $t
     /tmp/cc8xco1Q.s:24     .text.USB_CoreReset:0000000000000000 USB_CoreReset
     /tmp/cc8xco1Q.s:101    .text.USB_CoreReset:0000000000000038 $d
     /tmp/cc8xco1Q.s:106    .text.USB_CoreInit:0000000000000000 $t
     /tmp/cc8xco1Q.s:113    .text.USB_CoreInit:0000000000000000 USB_CoreInit
     /tmp/cc8xco1Q.s:235    .text.USB_CoreInit:0000000000000078 $d
     /tmp/cc8xco1Q.s:240    .text.USB_SetTurnaroundTime:0000000000000000 $t
     /tmp/cc8xco1Q.s:247    .text.USB_SetTurnaroundTime:0000000000000000 USB_SetTurnaroundTime
     /tmp/cc8xco1Q.s:427    .text.USB_SetTurnaroundTime:000000000000009c $d
     /tmp/cc8xco1Q.s:449    .text.USB_EnableGlobalInt:0000000000000000 $t
     /tmp/cc8xco1Q.s:456    .text.USB_EnableGlobalInt:0000000000000000 USB_EnableGlobalInt
     /tmp/cc8xco1Q.s:479    .text.USB_DisableGlobalInt:0000000000000000 $t
     /tmp/cc8xco1Q.s:486    .text.USB_DisableGlobalInt:0000000000000000 USB_DisableGlobalInt
     /tmp/cc8xco1Q.s:509    .text.USB_SetCurrentMode:0000000000000000 $t
     /tmp/cc8xco1Q.s:516    .text.USB_SetCurrentMode:0000000000000000 USB_SetCurrentMode
     /tmp/cc8xco1Q.s:577    .text.USB_FlushTxFifo:0000000000000000 $t
     /tmp/cc8xco1Q.s:584    .text.USB_FlushTxFifo:0000000000000000 USB_FlushTxFifo
     /tmp/cc8xco1Q.s:635    .text.USB_FlushTxFifo:0000000000000024 $d
     /tmp/cc8xco1Q.s:640    .text.USB_FlushRxFifo:0000000000000000 $t
     /tmp/cc8xco1Q.s:647    .text.USB_FlushRxFifo:0000000000000000 USB_FlushRxFifo
     /tmp/cc8xco1Q.s:694    .text.USB_FlushRxFifo:0000000000000020 $d
     /tmp/cc8xco1Q.s:699    .text.USB_SetDevSpeed:0000000000000000 $t
     /tmp/cc8xco1Q.s:706    .text.USB_SetDevSpeed:0000000000000000 USB_SetDevSpeed
     /tmp/cc8xco1Q.s:732    .text.USB_DevInit:0000000000000000 $t
     /tmp/cc8xco1Q.s:739    .text.USB_DevInit:0000000000000000 USB_DevInit
     /tmp/cc8xco1Q.s:1129   .text.USB_DevInit:000000000000019c $d
     /tmp/cc8xco1Q.s:1135   .text.USB_GetDevSpeed:0000000000000000 $t
     /tmp/cc8xco1Q.s:1142   .text.USB_GetDevSpeed:0000000000000000 USB_GetDevSpeed
     /tmp/cc8xco1Q.s:1192   .text.USB_ActivateEndpoint:0000000000000000 $t
     /tmp/cc8xco1Q.s:1199   .text.USB_ActivateEndpoint:0000000000000000 USB_ActivateEndpoint
     /tmp/cc8xco1Q.s:1315   .text.USB_ActivateEndpoint:0000000000000098 $d
     /tmp/cc8xco1Q.s:1320   .text.USB_ActivateDedicatedEndpoint:0000000000000000 $t
     /tmp/cc8xco1Q.s:1327   .text.USB_ActivateDedicatedEndpoint:0000000000000000 USB_ActivateDedicatedEndpoint
     /tmp/cc8xco1Q.s:1461   .text.USB_ActivateDedicatedEndpoint:0000000000000098 $d
     /tmp/cc8xco1Q.s:1466   .text.USB_DeactivateEndpoint:0000000000000000 $t
     /tmp/cc8xco1Q.s:1473   .text.USB_DeactivateEndpoint:0000000000000000 USB_DeactivateEndpoint
     /tmp/cc8xco1Q.s:1638   .text.USB_DeactivateEndpoint:00000000000000d8 $d
     /tmp/cc8xco1Q.s:1644   .text.USB_DeactivateDedicatedEndpoint:0000000000000000 $t
     /tmp/cc8xco1Q.s:1651   .text.USB_DeactivateDedicatedEndpoint:0000000000000000 USB_DeactivateDedicatedEndpoint
     /tmp/cc8xco1Q.s:1774   .text.USB_EP0StartXfer:0000000000000000 $t
     /tmp/cc8xco1Q.s:1781   .text.USB_EP0StartXfer:0000000000000000 USB_EP0StartXfer
     /tmp/cc8xco1Q.s:2019   .text.USB_EP0StartXfer:0000000000000114 $d
     /tmp/cc8xco1Q.s:2025   .text.USB_WritePacket:0000000000000000 $t
     /tmp/cc8xco1Q.s:2032   .text.USB_WritePacket:0000000000000000 USB_WritePacket
     /tmp/cc8xco1Q.s:2099   .text.USB_EPStartXfer:0000000000000000 $t
     /tmp/cc8xco1Q.s:2106   .text.USB_EPStartXfer:0000000000000000 USB_EPStartXfer
     /tmp/cc8xco1Q.s:2500   .text.USB_EPStartXfer:0000000000000228 $d
     /tmp/cc8xco1Q.s:2507   .text.USB_ReadPacket:0000000000000000 $t
     /tmp/cc8xco1Q.s:2514   .text.USB_ReadPacket:0000000000000000 USB_ReadPacket
     /tmp/cc8xco1Q.s:2565   .text.USB_EPSetStall:0000000000000000 $t
     /tmp/cc8xco1Q.s:2572   .text.USB_EPSetStall:0000000000000000 USB_EPSetStall
     /tmp/cc8xco1Q.s:2653   .text.USB_EPClearStall:0000000000000000 $t
     /tmp/cc8xco1Q.s:2660   .text.USB_EPClearStall:0000000000000000 USB_EPClearStall
     /tmp/cc8xco1Q.s:2743   .text.USB_StopDevice:0000000000000000 $t
     /tmp/cc8xco1Q.s:2750   .text.USB_StopDevice:0000000000000000 USB_StopDevice
ARM GAS  /tmp/cc8xco1Q.s 			page 146


     /tmp/cc8xco1Q.s:2833   .text.USB_SetDevAddress:0000000000000000 $t
     /tmp/cc8xco1Q.s:2840   .text.USB_SetDevAddress:0000000000000000 USB_SetDevAddress
     /tmp/cc8xco1Q.s:2875   .text.USB_DevConnect:0000000000000000 $t
     /tmp/cc8xco1Q.s:2882   .text.USB_DevConnect:0000000000000000 USB_DevConnect
     /tmp/cc8xco1Q.s:2916   .text.USB_DevDisconnect:0000000000000000 $t
     /tmp/cc8xco1Q.s:2923   .text.USB_DevDisconnect:0000000000000000 USB_DevDisconnect
     /tmp/cc8xco1Q.s:2957   .text.USB_ReadInterrupts:0000000000000000 $t
     /tmp/cc8xco1Q.s:2964   .text.USB_ReadInterrupts:0000000000000000 USB_ReadInterrupts
     /tmp/cc8xco1Q.s:2991   .text.USB_ReadDevAllOutEpInterrupt:0000000000000000 $t
     /tmp/cc8xco1Q.s:2998   .text.USB_ReadDevAllOutEpInterrupt:0000000000000000 USB_ReadDevAllOutEpInterrupt
     /tmp/cc8xco1Q.s:3031   .text.USB_ReadDevAllInEpInterrupt:0000000000000000 $t
     /tmp/cc8xco1Q.s:3038   .text.USB_ReadDevAllInEpInterrupt:0000000000000000 USB_ReadDevAllInEpInterrupt
     /tmp/cc8xco1Q.s:3071   .text.USB_ReadDevOutEPInterrupt:0000000000000000 $t
     /tmp/cc8xco1Q.s:3078   .text.USB_ReadDevOutEPInterrupt:0000000000000000 USB_ReadDevOutEPInterrupt
     /tmp/cc8xco1Q.s:3112   .text.USB_ReadDevInEPInterrupt:0000000000000000 $t
     /tmp/cc8xco1Q.s:3119   .text.USB_ReadDevInEPInterrupt:0000000000000000 USB_ReadDevInEPInterrupt
     /tmp/cc8xco1Q.s:3178   .text.USB_ClearInterrupts:0000000000000000 $t
     /tmp/cc8xco1Q.s:3185   .text.USB_ClearInterrupts:0000000000000000 USB_ClearInterrupts
     /tmp/cc8xco1Q.s:3204   .text.USB_GetMode:0000000000000000 $t
     /tmp/cc8xco1Q.s:3211   .text.USB_GetMode:0000000000000000 USB_GetMode
     /tmp/cc8xco1Q.s:3230   .text.USB_ActivateSetup:0000000000000000 $t
     /tmp/cc8xco1Q.s:3237   .text.USB_ActivateSetup:0000000000000000 USB_ActivateSetup
     /tmp/cc8xco1Q.s:3266   .text.USB_ActivateSetup:000000000000001c $d
     /tmp/cc8xco1Q.s:3271   .text.USB_EP0_OutStart:0000000000000000 $t
     /tmp/cc8xco1Q.s:3278   .text.USB_EP0_OutStart:0000000000000000 USB_EP0_OutStart
     /tmp/cc8xco1Q.s:3361   .text.USB_EP0_OutStart:000000000000005c $d
     /tmp/cc8xco1Q.s:3366   .text.USB_InitFSLSPClkSel:0000000000000000 $t
     /tmp/cc8xco1Q.s:3373   .text.USB_InitFSLSPClkSel:0000000000000000 USB_InitFSLSPClkSel
     /tmp/cc8xco1Q.s:3429   .text.USB_ResetPort:0000000000000000 $t
     /tmp/cc8xco1Q.s:3436   .text.USB_ResetPort:0000000000000000 USB_ResetPort
     /tmp/cc8xco1Q.s:3505   .text.USB_DriveVbus:0000000000000000 $t
     /tmp/cc8xco1Q.s:3512   .text.USB_DriveVbus:0000000000000000 USB_DriveVbus
     /tmp/cc8xco1Q.s:3591   .text.USB_HostInit:0000000000000000 $t
     /tmp/cc8xco1Q.s:3598   .text.USB_HostInit:0000000000000000 USB_HostInit
     /tmp/cc8xco1Q.s:3790   .text.USB_HostInit:00000000000000e0 $d
     /tmp/cc8xco1Q.s:3797   .text.USB_GetHostSpeed:0000000000000000 $t
     /tmp/cc8xco1Q.s:3804   .text.USB_GetHostSpeed:0000000000000000 USB_GetHostSpeed
     /tmp/cc8xco1Q.s:3842   .text.USB_GetCurrentFrame:0000000000000000 $t
     /tmp/cc8xco1Q.s:3849   .text.USB_GetCurrentFrame:0000000000000000 USB_GetCurrentFrame
     /tmp/cc8xco1Q.s:3872   .text.USB_HC_Init:0000000000000000 $t
     /tmp/cc8xco1Q.s:3879   .text.USB_HC_Init:0000000000000000 USB_HC_Init
     /tmp/cc8xco1Q.s:3913   .text.USB_HC_Init:0000000000000020 $d
     /tmp/cc8xco1Q.s:3917   .text.USB_HC_Init:0000000000000024 $t
     /tmp/cc8xco1Q.s:4098   .text.USB_HC_ReadInterrupt:0000000000000000 $t
     /tmp/cc8xco1Q.s:4105   .text.USB_HC_ReadInterrupt:0000000000000000 USB_HC_ReadInterrupt
     /tmp/cc8xco1Q.s:4128   .text.USB_HC_Halt:0000000000000000 $t
     /tmp/cc8xco1Q.s:4135   .text.USB_HC_Halt:0000000000000000 USB_HC_Halt
     /tmp/cc8xco1Q.s:4288   .text.USB_DoPing:0000000000000000 $t
     /tmp/cc8xco1Q.s:4295   .text.USB_DoPing:0000000000000000 USB_DoPing
     /tmp/cc8xco1Q.s:4337   .text.USB_DoPing:0000000000000020 $d
     /tmp/cc8xco1Q.s:4342   .text.USB_HC_StartXfer:0000000000000000 $t
     /tmp/cc8xco1Q.s:4349   .text.USB_HC_StartXfer:0000000000000000 USB_HC_StartXfer
     /tmp/cc8xco1Q.s:4583   .text.USB_HC_StartXfer:0000000000000108 $d
     /tmp/cc8xco1Q.s:4588   .text.USB_HC_StartXfer:000000000000010c $t
     /tmp/cc8xco1Q.s:4671   .text.USB_HC_StartXfer:000000000000015c $d
     /tmp/cc8xco1Q.s:4677   .text.USB_StopHost:0000000000000000 $t
     /tmp/cc8xco1Q.s:4684   .text.USB_StopHost:0000000000000000 USB_StopHost
ARM GAS  /tmp/cc8xco1Q.s 			page 147


     /tmp/cc8xco1Q.s:4829   .text.USB_ActivateRemoteWakeup:0000000000000000 $t
     /tmp/cc8xco1Q.s:4836   .text.USB_ActivateRemoteWakeup:0000000000000000 USB_ActivateRemoteWakeup
     /tmp/cc8xco1Q.s:4870   .text.USB_DeActivateRemoteWakeup:0000000000000000 $t
     /tmp/cc8xco1Q.s:4877   .text.USB_DeActivateRemoteWakeup:0000000000000000 USB_DeActivateRemoteWakeup
     /tmp/cc8xco1Q.s:4901   .bss.tmpreg.0:0000000000000000 $d
     /tmp/cc8xco1Q.s:4905   .bss.tmpreg.0:0000000000000000 tmpreg.0

UNDEFINED SYMBOLS
HAL_Delay
